
SmartFactory.elf:     file format elf32-avr

Sections:
Idx Name          Size      VMA       LMA       File off  Algn
  0 .BOOT         00000058  00020000  00020000  00006750  2**0
                  CONTENTS, ALLOC, LOAD, READONLY, CODE
  1 .jmp_table    000000a8  00007e00  00007e00  000066a8  2**0
                  CONTENTS, ALLOC, LOAD, DATA
  2 .text         00006238  00000000  00000000  000000d4  2**1
                  CONTENTS, ALLOC, LOAD, READONLY, CODE
  3 .data         0000039c  00802000  00006238  0000630c  2**1
                  CONTENTS, ALLOC, LOAD, DATA
  4 .bss          000002ab  0080239c  0080239c  000067ac  2**4
                  ALLOC
  5 .comment      00000060  00000000  00000000  000067a8  2**0
                  CONTENTS, READONLY
  6 .note.gnu.avr.deviceinfo 00000040  00000000  00000000  00006808  2**2
                  CONTENTS, READONLY
  7 .debug_aranges 00000a60  00000000  00000000  00006848  2**3
                  CONTENTS, READONLY, DEBUGGING
  8 .debug_info   00013705  00000000  00000000  000072a8  2**0
                  CONTENTS, READONLY, DEBUGGING
  9 .debug_abbrev 00006b11  00000000  00000000  0001a9ad  2**0
                  CONTENTS, READONLY, DEBUGGING
 10 .debug_line   000091a6  00000000  00000000  000214be  2**0
                  CONTENTS, READONLY, DEBUGGING
 11 .debug_frame  00001e40  00000000  00000000  0002a664  2**2
                  CONTENTS, READONLY, DEBUGGING
 12 .debug_str    0003af86  00000000  00000000  0002c4a4  2**0
                  CONTENTS, READONLY, DEBUGGING
 13 .debug_loc    00008baf  00000000  00000000  0006742a  2**0
                  CONTENTS, READONLY, DEBUGGING
 14 .debug_ranges 00000960  00000000  00000000  0006ffe0  2**3
                  CONTENTS, READONLY, DEBUGGING
 15 .debug_macro  0000c60c  00000000  00000000  00070940  2**0
                  CONTENTS, READONLY, DEBUGGING

Disassembly of section .BOOT:

00020000 <SP_CommonSPM>:
   20000:	fc 01       	movw	r30, r24
   20002:	40 93 ca 01 	sts	0x01CA, r20	; 0x8001ca <__TEXT_REGION_LENGTH__+0x7001ca>
   20006:	2d e9       	ldi	r18, 0x9D	; 157
   20008:	20 93 34 00 	sts	0x0034, r18	; 0x800034 <__TEXT_REGION_LENGTH__+0x700034>
   2000c:	e8 95       	spm
   2000e:	11 24       	eor	r1, r1
   20010:	3b bf       	out	0x3b, r19	; 59
   20012:	08 95       	ret

00020014 <nvm_common_spm>:
   20014:	9b b7       	in	r25, 0x3b	; 59
   20016:	8b bf       	out	0x3b, r24	; 59
   20018:	fb 01       	movw	r30, r22
   2001a:	80 91 ca 01 	lds	r24, 0x01CA	; 0x8001ca <__TEXT_REGION_LENGTH__+0x7001ca>
   2001e:	40 93 ca 01 	sts	0x01CA, r20	; 0x8001ca <__TEXT_REGION_LENGTH__+0x7001ca>
   20022:	7d e9       	ldi	r23, 0x9D	; 157
   20024:	70 93 34 00 	sts	0x0034, r23	; 0x800034 <__TEXT_REGION_LENGTH__+0x700034>
   20028:	e8 95       	spm
   2002a:	80 93 ca 01 	sts	0x01CA, r24	; 0x8001ca <__TEXT_REGION_LENGTH__+0x7001ca>
   2002e:	9b bf       	out	0x3b, r25	; 59
   20030:	08 95       	ret

00020032 <nvm_flash_load_word_to_buffer>:
   20032:	20 91 cf 01 	lds	r18, 0x01CF	; 0x8001cf <__TEXT_REGION_LENGTH__+0x7001cf>
   20036:	27 fd       	sbrc	r18, 7
   20038:	fc cf       	rjmp	.-8      	; 0x20032 <nvm_flash_load_word_to_buffer>
   2003a:	9b b7       	in	r25, 0x3b	; 59
   2003c:	8b bf       	out	0x3b, r24	; 59
   2003e:	fb 01       	movw	r30, r22
   20040:	80 91 ca 01 	lds	r24, 0x01CA	; 0x8001ca <__TEXT_REGION_LENGTH__+0x7001ca>
   20044:	23 e2       	ldi	r18, 0x23	; 35
   20046:	20 93 ca 01 	sts	0x01CA, r18	; 0x8001ca <__TEXT_REGION_LENGTH__+0x7001ca>
   2004a:	0a 01       	movw	r0, r20
   2004c:	e8 95       	spm
   2004e:	11 24       	eor	r1, r1
   20050:	80 93 ca 01 	sts	0x01CA, r24	; 0x8001ca <__TEXT_REGION_LENGTH__+0x7001ca>
   20054:	9b bf       	out	0x3b, r25	; 59
   20056:	08 95       	ret

Disassembly of section .text:

00000000 <__vectors>:
       0:	0c 94 af 02 	jmp	0x55e	; 0x55e <__ctors_end>
       4:	0c 94 d5 02 	jmp	0x5aa	; 0x5aa <__bad_interrupt>
       8:	0c 94 d5 02 	jmp	0x5aa	; 0x5aa <__bad_interrupt>
       c:	0c 94 d5 02 	jmp	0x5aa	; 0x5aa <__bad_interrupt>
      10:	0c 94 d5 02 	jmp	0x5aa	; 0x5aa <__bad_interrupt>
      14:	0c 94 d5 02 	jmp	0x5aa	; 0x5aa <__bad_interrupt>
      18:	0c 94 d5 02 	jmp	0x5aa	; 0x5aa <__bad_interrupt>
      1c:	0c 94 d5 02 	jmp	0x5aa	; 0x5aa <__bad_interrupt>
      20:	0c 94 d5 02 	jmp	0x5aa	; 0x5aa <__bad_interrupt>
      24:	0c 94 d5 02 	jmp	0x5aa	; 0x5aa <__bad_interrupt>
      28:	0c 94 d5 02 	jmp	0x5aa	; 0x5aa <__bad_interrupt>
      2c:	0c 94 d5 02 	jmp	0x5aa	; 0x5aa <__bad_interrupt>
      30:	0c 94 7f 06 	jmp	0xcfe	; 0xcfe <__vector_12>
      34:	0c 94 d5 02 	jmp	0x5aa	; 0x5aa <__bad_interrupt>
      38:	0c 94 d5 02 	jmp	0x5aa	; 0x5aa <__bad_interrupt>
      3c:	0c 94 d5 02 	jmp	0x5aa	; 0x5aa <__bad_interrupt>
      40:	0c 94 d5 02 	jmp	0x5aa	; 0x5aa <__bad_interrupt>
      44:	0c 94 d5 02 	jmp	0x5aa	; 0x5aa <__bad_interrupt>
      48:	0c 94 d5 02 	jmp	0x5aa	; 0x5aa <__bad_interrupt>
      4c:	0c 94 d5 02 	jmp	0x5aa	; 0x5aa <__bad_interrupt>
      50:	0c 94 d5 02 	jmp	0x5aa	; 0x5aa <__bad_interrupt>
      54:	0c 94 d5 02 	jmp	0x5aa	; 0x5aa <__bad_interrupt>
      58:	0c 94 d5 02 	jmp	0x5aa	; 0x5aa <__bad_interrupt>
      5c:	0c 94 d5 02 	jmp	0x5aa	; 0x5aa <__bad_interrupt>
      60:	0c 94 d5 02 	jmp	0x5aa	; 0x5aa <__bad_interrupt>
      64:	0c 94 d5 02 	jmp	0x5aa	; 0x5aa <__bad_interrupt>
      68:	0c 94 d5 02 	jmp	0x5aa	; 0x5aa <__bad_interrupt>
      6c:	0c 94 d5 02 	jmp	0x5aa	; 0x5aa <__bad_interrupt>
      70:	0c 94 d5 02 	jmp	0x5aa	; 0x5aa <__bad_interrupt>
      74:	0c 94 d5 02 	jmp	0x5aa	; 0x5aa <__bad_interrupt>
      78:	0c 94 d5 02 	jmp	0x5aa	; 0x5aa <__bad_interrupt>
      7c:	0c 94 d5 02 	jmp	0x5aa	; 0x5aa <__bad_interrupt>
      80:	0c 94 d5 02 	jmp	0x5aa	; 0x5aa <__bad_interrupt>
      84:	0c 94 d5 02 	jmp	0x5aa	; 0x5aa <__bad_interrupt>
      88:	0c 94 d5 02 	jmp	0x5aa	; 0x5aa <__bad_interrupt>
      8c:	0c 94 d5 02 	jmp	0x5aa	; 0x5aa <__bad_interrupt>
      90:	0c 94 d5 02 	jmp	0x5aa	; 0x5aa <__bad_interrupt>
      94:	0c 94 d5 02 	jmp	0x5aa	; 0x5aa <__bad_interrupt>
      98:	0c 94 d5 02 	jmp	0x5aa	; 0x5aa <__bad_interrupt>
      9c:	0c 94 d5 02 	jmp	0x5aa	; 0x5aa <__bad_interrupt>
      a0:	0c 94 d5 02 	jmp	0x5aa	; 0x5aa <__bad_interrupt>
      a4:	0c 94 d5 02 	jmp	0x5aa	; 0x5aa <__bad_interrupt>
      a8:	0c 94 d5 02 	jmp	0x5aa	; 0x5aa <__bad_interrupt>
      ac:	0c 94 d5 02 	jmp	0x5aa	; 0x5aa <__bad_interrupt>
      b0:	0c 94 d5 02 	jmp	0x5aa	; 0x5aa <__bad_interrupt>
      b4:	0c 94 f9 06 	jmp	0xdf2	; 0xdf2 <__vector_45>
      b8:	0c 94 d5 02 	jmp	0x5aa	; 0x5aa <__bad_interrupt>
      bc:	0c 94 d5 02 	jmp	0x5aa	; 0x5aa <__bad_interrupt>
      c0:	0c 94 d5 02 	jmp	0x5aa	; 0x5aa <__bad_interrupt>
      c4:	0c 94 d5 02 	jmp	0x5aa	; 0x5aa <__bad_interrupt>
      c8:	0c 94 d5 02 	jmp	0x5aa	; 0x5aa <__bad_interrupt>
      cc:	0c 94 d5 02 	jmp	0x5aa	; 0x5aa <__bad_interrupt>
      d0:	0c 94 d5 02 	jmp	0x5aa	; 0x5aa <__bad_interrupt>
      d4:	0c 94 d5 02 	jmp	0x5aa	; 0x5aa <__bad_interrupt>
      d8:	0c 94 d5 02 	jmp	0x5aa	; 0x5aa <__bad_interrupt>
      dc:	0c 94 d5 02 	jmp	0x5aa	; 0x5aa <__bad_interrupt>
      e0:	0c 94 d5 02 	jmp	0x5aa	; 0x5aa <__bad_interrupt>
      e4:	0c 94 d5 02 	jmp	0x5aa	; 0x5aa <__bad_interrupt>
      e8:	0c 94 d5 02 	jmp	0x5aa	; 0x5aa <__bad_interrupt>
      ec:	0c 94 d5 02 	jmp	0x5aa	; 0x5aa <__bad_interrupt>
      f0:	0c 94 d5 02 	jmp	0x5aa	; 0x5aa <__bad_interrupt>
      f4:	0c 94 d5 02 	jmp	0x5aa	; 0x5aa <__bad_interrupt>
      f8:	0c 94 d5 02 	jmp	0x5aa	; 0x5aa <__bad_interrupt>
      fc:	0c 94 d5 02 	jmp	0x5aa	; 0x5aa <__bad_interrupt>
     100:	0c 94 d5 02 	jmp	0x5aa	; 0x5aa <__bad_interrupt>
     104:	0c 94 d5 02 	jmp	0x5aa	; 0x5aa <__bad_interrupt>
     108:	0c 94 d5 02 	jmp	0x5aa	; 0x5aa <__bad_interrupt>
     10c:	0c 94 d5 02 	jmp	0x5aa	; 0x5aa <__bad_interrupt>
     110:	0c 94 d5 02 	jmp	0x5aa	; 0x5aa <__bad_interrupt>
     114:	0c 94 d5 02 	jmp	0x5aa	; 0x5aa <__bad_interrupt>
     118:	0c 94 d5 02 	jmp	0x5aa	; 0x5aa <__bad_interrupt>
     11c:	0c 94 d5 02 	jmp	0x5aa	; 0x5aa <__bad_interrupt>
     120:	0c 94 d5 02 	jmp	0x5aa	; 0x5aa <__bad_interrupt>
     124:	0c 94 d5 02 	jmp	0x5aa	; 0x5aa <__bad_interrupt>
     128:	0c 94 d5 02 	jmp	0x5aa	; 0x5aa <__bad_interrupt>
     12c:	0c 94 bc 06 	jmp	0xd78	; 0xd78 <__vector_75>
     130:	0c 94 d5 02 	jmp	0x5aa	; 0x5aa <__bad_interrupt>
     134:	0c 94 d5 02 	jmp	0x5aa	; 0x5aa <__bad_interrupt>
     138:	0c 94 d5 02 	jmp	0x5aa	; 0x5aa <__bad_interrupt>
     13c:	0c 94 d5 02 	jmp	0x5aa	; 0x5aa <__bad_interrupt>
     140:	0c 94 d5 02 	jmp	0x5aa	; 0x5aa <__bad_interrupt>
     144:	0c 94 d5 02 	jmp	0x5aa	; 0x5aa <__bad_interrupt>
     148:	0c 94 d5 02 	jmp	0x5aa	; 0x5aa <__bad_interrupt>
     14c:	0c 94 d5 02 	jmp	0x5aa	; 0x5aa <__bad_interrupt>
     150:	0c 94 d5 02 	jmp	0x5aa	; 0x5aa <__bad_interrupt>
     154:	0c 94 d5 02 	jmp	0x5aa	; 0x5aa <__bad_interrupt>
     158:	0c 94 d5 02 	jmp	0x5aa	; 0x5aa <__bad_interrupt>
     15c:	0c 94 d5 02 	jmp	0x5aa	; 0x5aa <__bad_interrupt>
     160:	0c 94 d5 02 	jmp	0x5aa	; 0x5aa <__bad_interrupt>
     164:	0c 94 d5 02 	jmp	0x5aa	; 0x5aa <__bad_interrupt>
     168:	0c 94 d5 02 	jmp	0x5aa	; 0x5aa <__bad_interrupt>
     16c:	0c 94 d5 02 	jmp	0x5aa	; 0x5aa <__bad_interrupt>
     170:	0c 94 d5 02 	jmp	0x5aa	; 0x5aa <__bad_interrupt>
     174:	0c 94 d5 02 	jmp	0x5aa	; 0x5aa <__bad_interrupt>
     178:	0c 94 d5 02 	jmp	0x5aa	; 0x5aa <__bad_interrupt>
     17c:	0c 94 d5 02 	jmp	0x5aa	; 0x5aa <__bad_interrupt>
     180:	0c 94 d5 02 	jmp	0x5aa	; 0x5aa <__bad_interrupt>
     184:	0c 94 d5 02 	jmp	0x5aa	; 0x5aa <__bad_interrupt>
     188:	0c 94 d5 02 	jmp	0x5aa	; 0x5aa <__bad_interrupt>
     18c:	0c 94 d5 02 	jmp	0x5aa	; 0x5aa <__bad_interrupt>
     190:	0c 94 87 18 	jmp	0x310e	; 0x310e <__vector_100>
     194:	0c 94 d5 18 	jmp	0x31aa	; 0x31aa <__vector_101>
     198:	0c 94 d5 02 	jmp	0x5aa	; 0x5aa <__bad_interrupt>
     19c:	0c 94 d5 02 	jmp	0x5aa	; 0x5aa <__bad_interrupt>
     1a0:	0c 94 d5 02 	jmp	0x5aa	; 0x5aa <__bad_interrupt>
     1a4:	0c 94 d5 02 	jmp	0x5aa	; 0x5aa <__bad_interrupt>
     1a8:	0c 94 36 07 	jmp	0xe6c	; 0xe6c <__vector_106>
     1ac:	0c 94 d5 02 	jmp	0x5aa	; 0x5aa <__bad_interrupt>
     1b0:	0c 94 d5 02 	jmp	0x5aa	; 0x5aa <__bad_interrupt>
     1b4:	0c 94 d5 02 	jmp	0x5aa	; 0x5aa <__bad_interrupt>
     1b8:	0c 94 d5 02 	jmp	0x5aa	; 0x5aa <__bad_interrupt>
     1bc:	0c 94 d5 02 	jmp	0x5aa	; 0x5aa <__bad_interrupt>
     1c0:	0c 94 d5 02 	jmp	0x5aa	; 0x5aa <__bad_interrupt>
     1c4:	0c 94 d5 02 	jmp	0x5aa	; 0x5aa <__bad_interrupt>
     1c8:	0c 94 d5 02 	jmp	0x5aa	; 0x5aa <__bad_interrupt>
     1cc:	0c 94 d5 02 	jmp	0x5aa	; 0x5aa <__bad_interrupt>
     1d0:	0c 94 d5 02 	jmp	0x5aa	; 0x5aa <__bad_interrupt>
     1d4:	0c 94 d5 02 	jmp	0x5aa	; 0x5aa <__bad_interrupt>
     1d8:	0c 94 d5 02 	jmp	0x5aa	; 0x5aa <__bad_interrupt>
     1dc:	0c 94 d5 02 	jmp	0x5aa	; 0x5aa <__bad_interrupt>
     1e0:	0c 94 d5 02 	jmp	0x5aa	; 0x5aa <__bad_interrupt>
     1e4:	0c 94 d5 02 	jmp	0x5aa	; 0x5aa <__bad_interrupt>
     1e8:	0c 94 d5 02 	jmp	0x5aa	; 0x5aa <__bad_interrupt>
     1ec:	0c 94 d5 02 	jmp	0x5aa	; 0x5aa <__bad_interrupt>
     1f0:	0c 94 d5 02 	jmp	0x5aa	; 0x5aa <__bad_interrupt>
     1f4:	0c 94 c2 29 	jmp	0x5384	; 0x5384 <__vector_125>
     1f8:	0c 94 8f 2a 	jmp	0x551e	; 0x551e <__vector_126>
     1fc:	aa 0c       	add	r10, r10
     1fe:	b9 0c       	add	r11, r9
     200:	c8 0c       	add	r12, r8
     202:	d7 0c       	add	r13, r7
     204:	e5 0c       	add	r14, r5
     206:	f4 0c       	add	r15, r4
     208:	03 0d       	add	r16, r3
     20a:	11 0d       	add	r17, r1
     20c:	1e 0d       	add	r17, r14
     20e:	2d 0d       	add	r18, r13
     210:	3c 0d       	add	r19, r12
     212:	4b 0d       	add	r20, r11
     214:	74 16       	cp	r7, r20
     216:	83 16       	cp	r8, r19
     218:	92 16       	cp	r9, r18
     21a:	a1 16       	cp	r10, r17
     21c:	af 16       	cp	r10, r31
     21e:	be 16       	cp	r11, r30
     220:	cd 16       	cp	r12, r29
     222:	db 16       	cp	r13, r27
     224:	e8 16       	cp	r14, r24
     226:	f7 16       	cp	r15, r23
     228:	06 17       	cp	r16, r22
     22a:	15 17       	cp	r17, r21
     22c:	cd 17       	cp	r28, r29
     22e:	cd 17       	cp	r28, r29
     230:	cd 17       	cp	r28, r29
     232:	cd 17       	cp	r28, r29
     234:	cd 17       	cp	r28, r29
     236:	cd 17       	cp	r28, r29
     238:	cd 17       	cp	r28, r29
     23a:	cd 17       	cp	r28, r29
     23c:	cd 17       	cp	r28, r29
     23e:	cd 17       	cp	r28, r29
     240:	cd 17       	cp	r28, r29
     242:	cd 17       	cp	r28, r29
     244:	cd 17       	cp	r28, r29
     246:	cd 17       	cp	r28, r29
     248:	cd 17       	cp	r28, r29
     24a:	cd 17       	cp	r28, r29
     24c:	cd 17       	cp	r28, r29
     24e:	cd 17       	cp	r28, r29
     250:	cd 17       	cp	r28, r29
     252:	cd 17       	cp	r28, r29
     254:	cb 17       	cp	r28, r27
     256:	cb 17       	cp	r28, r27
     258:	cb 17       	cp	r28, r27
     25a:	cb 17       	cp	r28, r27
     25c:	cb 17       	cp	r28, r27
     25e:	cb 17       	cp	r28, r27
     260:	cb 17       	cp	r28, r27
     262:	cb 17       	cp	r28, r27
     264:	cb 17       	cp	r28, r27
     266:	cb 17       	cp	r28, r27
     268:	cb 17       	cp	r28, r27
     26a:	cb 17       	cp	r28, r27
     26c:	cb 17       	cp	r28, r27
     26e:	cb 17       	cp	r28, r27
     270:	cb 17       	cp	r28, r27
     272:	cb 17       	cp	r28, r27
     274:	cb 17       	cp	r28, r27
     276:	cb 17       	cp	r28, r27
     278:	cb 17       	cp	r28, r27
     27a:	cb 17       	cp	r28, r27
     27c:	cf 17       	cp	r28, r31
     27e:	cf 17       	cp	r28, r31
     280:	cf 17       	cp	r28, r31
     282:	cf 17       	cp	r28, r31
     284:	cf 17       	cp	r28, r31
     286:	cf 17       	cp	r28, r31
     288:	cf 17       	cp	r28, r31
     28a:	cf 17       	cp	r28, r31
     28c:	cf 17       	cp	r28, r31
     28e:	cf 17       	cp	r28, r31
     290:	c9 17       	cp	r28, r25
     292:	c9 17       	cp	r28, r25
     294:	c9 17       	cp	r28, r25
     296:	c9 17       	cp	r28, r25
     298:	c9 17       	cp	r28, r25
     29a:	c9 17       	cp	r28, r25
     29c:	c9 17       	cp	r28, r25
     29e:	c9 17       	cp	r28, r25
     2a0:	c9 17       	cp	r28, r25
     2a2:	c9 17       	cp	r28, r25
     2a4:	cf 17       	cp	r28, r31
     2a6:	cf 17       	cp	r28, r31
     2a8:	cf 17       	cp	r28, r31
     2aa:	cf 17       	cp	r28, r31
     2ac:	cf 17       	cp	r28, r31
     2ae:	cf 17       	cp	r28, r31
     2b0:	cf 17       	cp	r28, r31
     2b2:	cf 17       	cp	r28, r31
     2b4:	cf 17       	cp	r28, r31
     2b6:	cf 17       	cp	r28, r31
     2b8:	cf 17       	cp	r28, r31
     2ba:	cf 17       	cp	r28, r31
     2bc:	cf 17       	cp	r28, r31
     2be:	cf 17       	cp	r28, r31
     2c0:	cf 17       	cp	r28, r31
     2c2:	cf 17       	cp	r28, r31
     2c4:	cf 17       	cp	r28, r31
     2c6:	cf 17       	cp	r28, r31
     2c8:	cf 17       	cp	r28, r31
     2ca:	cf 17       	cp	r28, r31
     2cc:	c7 17       	cp	r28, r23
     2ce:	c7 17       	cp	r28, r23
     2d0:	c7 17       	cp	r28, r23
     2d2:	c7 17       	cp	r28, r23
     2d4:	c7 17       	cp	r28, r23
     2d6:	c7 17       	cp	r28, r23
     2d8:	c7 17       	cp	r28, r23
     2da:	c7 17       	cp	r28, r23
     2dc:	c7 17       	cp	r28, r23
     2de:	c7 17       	cp	r28, r23
     2e0:	c7 17       	cp	r28, r23
     2e2:	c7 17       	cp	r28, r23
     2e4:	c7 17       	cp	r28, r23
     2e6:	c7 17       	cp	r28, r23
     2e8:	c7 17       	cp	r28, r23
     2ea:	c5 17       	cp	r28, r21
     2ec:	c5 17       	cp	r28, r21
     2ee:	c5 17       	cp	r28, r21
     2f0:	c5 17       	cp	r28, r21
     2f2:	c5 17       	cp	r28, r21
     2f4:	c5 17       	cp	r28, r21
     2f6:	c5 17       	cp	r28, r21
     2f8:	c5 17       	cp	r28, r21
     2fa:	c5 17       	cp	r28, r21
     2fc:	c5 17       	cp	r28, r21
     2fe:	c5 17       	cp	r28, r21
     300:	c5 17       	cp	r28, r21
     302:	c5 17       	cp	r28, r21
     304:	c5 17       	cp	r28, r21
     306:	c5 17       	cp	r28, r21
     308:	c3 17       	cp	r28, r19
     30a:	c3 17       	cp	r28, r19
     30c:	c3 17       	cp	r28, r19
     30e:	c3 17       	cp	r28, r19
     310:	c3 17       	cp	r28, r19
     312:	c3 17       	cp	r28, r19
     314:	c3 17       	cp	r28, r19
     316:	c3 17       	cp	r28, r19
     318:	c3 17       	cp	r28, r19
     31a:	c3 17       	cp	r28, r19
     31c:	c3 17       	cp	r28, r19
     31e:	c3 17       	cp	r28, r19
     320:	c3 17       	cp	r28, r19
     322:	c3 17       	cp	r28, r19
     324:	c3 17       	cp	r28, r19
     326:	c3 17       	cp	r28, r19
     328:	c3 17       	cp	r28, r19
     32a:	c3 17       	cp	r28, r19
     32c:	c3 17       	cp	r28, r19
     32e:	c3 17       	cp	r28, r19
     330:	c1 17       	cp	r28, r17
     332:	c1 17       	cp	r28, r17
     334:	c1 17       	cp	r28, r17
     336:	c1 17       	cp	r28, r17
     338:	c1 17       	cp	r28, r17
     33a:	c1 17       	cp	r28, r17
     33c:	c1 17       	cp	r28, r17
     33e:	c1 17       	cp	r28, r17
     340:	c1 17       	cp	r28, r17
     342:	c1 17       	cp	r28, r17
     344:	bf 17       	cp	r27, r31
     346:	bf 17       	cp	r27, r31
     348:	bf 17       	cp	r27, r31
     34a:	bf 17       	cp	r27, r31
     34c:	bf 17       	cp	r27, r31
     34e:	bf 17       	cp	r27, r31
     350:	bf 17       	cp	r27, r31
     352:	bf 17       	cp	r27, r31
     354:	bf 17       	cp	r27, r31
     356:	bf 17       	cp	r27, r31
     358:	bf 17       	cp	r27, r31
     35a:	bf 17       	cp	r27, r31
     35c:	bf 17       	cp	r27, r31
     35e:	bf 17       	cp	r27, r31
     360:	bf 17       	cp	r27, r31
     362:	bf 17       	cp	r27, r31
     364:	bf 17       	cp	r27, r31
     366:	bf 17       	cp	r27, r31
     368:	bf 17       	cp	r27, r31
     36a:	bf 17       	cp	r27, r31
     36c:	bf 17       	cp	r27, r31
     36e:	bf 17       	cp	r27, r31
     370:	bf 17       	cp	r27, r31
     372:	bf 17       	cp	r27, r31
     374:	bf 17       	cp	r27, r31
     376:	bf 17       	cp	r27, r31
     378:	bf 17       	cp	r27, r31
     37a:	bf 17       	cp	r27, r31
     37c:	bf 17       	cp	r27, r31
     37e:	bf 17       	cp	r27, r31
     380:	bd 17       	cp	r27, r29
     382:	bd 17       	cp	r27, r29
     384:	bd 17       	cp	r27, r29
     386:	bd 17       	cp	r27, r29
     388:	bd 17       	cp	r27, r29
     38a:	bb 17       	cp	r27, r27
     38c:	bb 17       	cp	r27, r27
     38e:	bb 17       	cp	r27, r27
     390:	bb 17       	cp	r27, r27
     392:	bb 17       	cp	r27, r27
     394:	b9 17       	cp	r27, r25
     396:	b9 17       	cp	r27, r25
     398:	b9 17       	cp	r27, r25
     39a:	b9 17       	cp	r27, r25
     39c:	b9 17       	cp	r27, r25
     39e:	b7 17       	cp	r27, r23
     3a0:	b7 17       	cp	r27, r23
     3a2:	b7 17       	cp	r27, r23
     3a4:	b7 17       	cp	r27, r23
     3a6:	b7 17       	cp	r27, r23
     3a8:	d1 17       	cp	r29, r17
     3aa:	d1 17       	cp	r29, r17
     3ac:	d1 17       	cp	r29, r17
     3ae:	d1 17       	cp	r29, r17
     3b0:	d1 17       	cp	r29, r17
     3b2:	d1 17       	cp	r29, r17
     3b4:	27 24       	eor	r2, r7
     3b6:	2a 24       	eor	r2, r10
     3b8:	2d 24       	eor	r2, r13
     3ba:	30 24       	eor	r3, r0
     3bc:	33 24       	eor	r3, r3
     3be:	36 24       	eor	r3, r6
     3c0:	39 24       	eor	r3, r9

000003c2 <__trampolines_start>:
     3c2:	0c 94 cb 17 	jmp	0x2f96	; 0x2f96 <_Z15ReadSharpSensorh+0x4a>
     3c6:	0c 94 d1 17 	jmp	0x2fa2	; 0x2fa2 <_Z15ReadSharpSensorh+0x56>
     3ca:	0c 94 b9 17 	jmp	0x2f72	; 0x2f72 <_Z15ReadSharpSensorh+0x26>
     3ce:	0c 94 bb 17 	jmp	0x2f76	; 0x2f76 <_Z15ReadSharpSensorh+0x2a>
     3d2:	0c 94 c7 17 	jmp	0x2f8e	; 0x2f8e <_Z15ReadSharpSensorh+0x42>
     3d6:	0c 94 05 04 	jmp	0x80a	; 0x80a <_Z9isSmallerii>
     3da:	0c 94 ce 14 	jmp	0x299c	; 0x299c <_Z9ToggleLEDv>
     3de:	0c 94 47 1a 	jmp	0x348e	; 0x348e <udi_cdc_data_disable>
     3e2:	0c 94 5c 0d 	jmp	0x1ab8	; 0x1ab8 <SelectColour>
     3e6:	0c 94 e2 14 	jmp	0x29c4	; 0x29c4 <_Z13PulseSolenoidh>
     3ea:	0c 94 30 24 	jmp	0x4860	; 0x4860 <udd_ep_get_size+0x34>
     3ee:	0c 94 db 16 	jmp	0x2db6	; 0x2db6 <_Z12IO_ReadWritebh+0xec>
     3f2:	0c 94 51 1a 	jmp	0x34a2	; 0x34a2 <udi_cdc_data_setup>
     3f6:	0c 94 2a 24 	jmp	0x4854	; 0x4854 <udd_ep_get_size+0x28>
     3fa:	0c 94 a6 17 	jmp	0x2f4c	; 0x2f4c <_Z15ReadSharpSensorh>
     3fe:	0c 94 2d 24 	jmp	0x485a	; 0x485a <udd_ep_get_size+0x2e>
     402:	0c 94 bf 17 	jmp	0x2f7e	; 0x2f7e <_Z15ReadSharpSensorh+0x32>
     406:	0c 94 a1 16 	jmp	0x2d42	; 0x2d42 <_Z12IO_ReadWritebh+0x78>
     40a:	0c 94 3c 0d 	jmp	0x1a78	; 0x1a78 <IO_ReadWrite+0x142>
     40e:	0c 94 f4 0c 	jmp	0x19e8	; 0x19e8 <IO_ReadWrite+0xb2>
     412:	0c 94 f7 03 	jmp	0x7ee	; 0x7ee <_Z7isEqualii>
     416:	0c 94 68 1f 	jmp	0x3ed0	; 0x3ed0 <udc_valid_address>
     41a:	0c 94 39 24 	jmp	0x4872	; 0x4872 <udd_ep_get_size+0x46>
     41e:	0c 94 3d 0c 	jmp	0x187a	; 0x187a <MoveElevator>
     422:	0c 94 da 03 	jmp	0x7b4	; 0x7b4 <_Z8multiplyii>
     426:	0c 94 3b 12 	jmp	0x2476	; 0x2476 <HomeSorterArm>
     42a:	0c 94 5c 10 	jmp	0x20b8	; 0x20b8 <SorterarmIsFinnished>
     42e:	0c 94 85 03 	jmp	0x70a	; 0x70a <_Z3addii>
     432:	0c 94 53 1a 	jmp	0x34a6	; 0x34a6 <udi_cdc_getsetting>
     436:	0c 94 7f 14 	jmp	0x28fe	; 0x28fe <_Z9set_relaybh>
     43a:	0c 94 75 03 	jmp	0x6ea	; 0x6ea <_Z11printNumberj>
     43e:	0c 94 6b 1b 	jmp	0x36d6	; 0x36d6 <udi_cdc_data_sof_notify>
     442:	0c 94 1e 0d 	jmp	0x1a3c	; 0x1a3c <IO_ReadWrite+0x106>
     446:	0c 94 bd 17 	jmp	0x2f7a	; 0x2f7a <_Z15ReadSharpSensorh+0x2e>
     44a:	0c 94 4b 0d 	jmp	0x1a96	; 0x1a96 <IO_ReadWrite+0x160>
     44e:	0c 94 fe 14 	jmp	0x29fc	; 0x29fc <_Z13requestResultv>
     452:	0c 94 55 1a 	jmp	0x34aa	; 0x34aa <udi_cdc_comm_setup>
     456:	0c 94 5e 10 	jmp	0x20bc	; 0x20bc <StopSorterArm>
     45a:	0c 94 f7 16 	jmp	0x2dee	; 0x2dee <_Z12IO_ReadWritebh+0x124>
     45e:	0c 94 15 17 	jmp	0x2e2a	; 0x2e2a <_Z12IO_ReadWritebh+0x160>
     462:	0c 94 27 24 	jmp	0x484e	; 0x484e <udd_ep_get_size+0x22>
     466:	0c 94 1d 14 	jmp	0x283a	; 0x283a <_Z13DemoTestBlockv>
     46a:	0c 94 03 0d 	jmp	0x1a06	; 0x1a06 <IO_ReadWrite+0xd0>
     46e:	0c 94 54 12 	jmp	0x24a8	; 0x24a8 <MoveSorterArmDistance>
     472:	0c 94 c8 0c 	jmp	0x1990	; 0x1990 <IO_ReadWrite+0x5a>
     476:	0c 94 86 13 	jmp	0x270c	; 0x270c <_Z8StopBeltj>
     47a:	0c 94 92 12 	jmp	0x2524	; 0x2524 <MoveSorterArmTo>
     47e:	0c 94 71 0b 	jmp	0x16e2	; 0x16e2 <ElevatorIsReady>
     482:	0c 94 33 24 	jmp	0x4866	; 0x4866 <udd_ep_get_size+0x3a>
     486:	0c 94 cd 16 	jmp	0x2d9a	; 0x2d9a <_Z12IO_ReadWritebh+0xd0>
     48a:	0c 94 4f 14 	jmp	0x289e	; 0x289e <_Z17StopDemoTestBlockv>
     48e:	0c 94 2d 0d 	jmp	0x1a5a	; 0x1a5a <IO_ReadWrite+0x124>
     492:	0c 94 81 03 	jmp	0x702	; 0x702 <_Z6invertj>
     496:	0c 94 c8 14 	jmp	0x2990	; 0x2990 <_Z8Solenoidhb>
     49a:	0c 94 e8 16 	jmp	0x2dd0	; 0x2dd0 <_Z12IO_ReadWritebh+0x106>
     49e:	0c 94 26 17 	jmp	0x2e4c	; 0x2e4c <_Z11DigitalReadi>
     4a2:	0c 94 fe 03 	jmp	0x7fc	; 0x7fc <_Z8isBiggerii>
     4a6:	0c 94 da 17 	jmp	0x2fb4	; 0x2fb4 <_Z15passthrough_TWIv>
     4aa:	0c 94 06 17 	jmp	0x2e0c	; 0x2e0c <_Z12IO_ReadWritebh+0x142>
     4ae:	0c 94 c9 17 	jmp	0x2f92	; 0x2f92 <_Z15ReadSharpSensorh+0x46>
     4b2:	0c 94 5b 03 	jmp	0x6b6	; 0x6b6 <_Z9delay1secv>
     4b6:	0c 94 41 1a 	jmp	0x3482	; 0x3482 <udi_cdc_comm_disable>
     4ba:	0c 94 cf 17 	jmp	0x2f9e	; 0x2f9e <_Z15ReadSharpSensorh+0x52>
     4be:	0c 94 b9 0c 	jmp	0x1972	; 0x1972 <IO_ReadWrite+0x3c>
     4c2:	0c 94 cd 17 	jmp	0x2f9a	; 0x2f9a <_Z15ReadSharpSensorh+0x4e>
     4c6:	0c 94 be 16 	jmp	0x2d7c	; 0x2d7c <_Z12IO_ReadWritebh+0xb2>
     4ca:	0c 94 16 1a 	jmp	0x342c	; 0x342c <udi_cdc_comm_enable>
     4ce:	0c 94 20 04 	jmp	0x840	; 0x840 <_Z9logic_andbb>
     4d2:	0c 94 8f 1c 	jmp	0x391e	; 0x391e <udi_cdc_data_enable>
     4d6:	0c 94 c2 1b 	jmp	0x3784	; 0x3784 <udi_cdc_serial_state_msg_sent>
     4da:	0c 94 11 0d 	jmp	0x1a22	; 0x1a22 <IO_ReadWrite+0xec>
     4de:	0c 94 d3 17 	jmp	0x2fa6	; 0x2fa6 <_Z10AnalogReadi>
     4e2:	0c 94 f7 14 	jmp	0x29ee	; 0x29ee <_Z14requestStartedv>
     4e6:	0c 94 67 14 	jmp	0x28ce	; 0x28ce <_Z10SetAddresshh>
     4ea:	0c 94 74 16 	jmp	0x2ce8	; 0x2ce8 <_Z12IO_ReadWritebh+0x1e>
     4ee:	0c 94 84 18 	jmp	0x3108	; 0x3108 <_Z15OptocouplerReadi>
     4f2:	0c 94 92 16 	jmp	0x2d24	; 0x2d24 <_Z12IO_ReadWritebh+0x5a>
     4f6:	0c 94 23 04 	jmp	0x846	; 0x846 <_Z9logic_xorbb>
     4fa:	0c 94 e5 0c 	jmp	0x19ca	; 0x19ca <IO_ReadWrite+0x94>
     4fe:	0c 94 b7 17 	jmp	0x2f6e	; 0x2f6e <_Z15ReadSharpSensorh+0x22>
     502:	0c 94 9f 1a 	jmp	0x353e	; 0x353e <udi_cdc_line_coding_received>
     506:	0c 94 c1 17 	jmp	0x2f82	; 0x2f82 <_Z15ReadSharpSensorh+0x36>
     50a:	0c 94 2c 13 	jmp	0x2658	; 0x2658 <_Z8MoveBeltbji>
     50e:	0c 94 af 03 	jmp	0x75e	; 0x75e <_Z8subtractii>
     512:	0c 94 65 03 	jmp	0x6ca	; 0x6ca <_Z8delay_msj>
     516:	0c 94 aa 0c 	jmp	0x1954	; 0x1954 <IO_ReadWrite+0x1e>
     51a:	0c 94 52 1b 	jmp	0x36a4	; 0x36a4 <udi_cdc_data_sent>
     51e:	0c 94 03 0f 	jmp	0x1e06	; 0x1e06 <ReadColourSensor>
     522:	0c 94 b1 13 	jmp	0x2762	; 0x2762 <_Z13MoveTurntablebji>
     526:	0c 94 fe 13 	jmp	0x27fc	; 0x27fc <_Z13StopTurntablej>
     52a:	0c 94 0c 04 	jmp	0x818	; 0x818 <_Z15isBiggerOrEqualii>
     52e:	0c 94 36 24 	jmp	0x486c	; 0x486c <udd_ep_get_size+0x40>
     532:	0c 94 af 16 	jmp	0x2d5e	; 0x2d5e <_Z12IO_ReadWritebh+0x94>
     536:	0c 94 1a 04 	jmp	0x834	; 0x834 <_Z8logic_orbb>
     53a:	0c 94 c3 1c 	jmp	0x3986	; 0x3986 <udi_cdc_data_received>
     53e:	0c 94 d7 0c 	jmp	0x19ae	; 0x19ae <IO_ReadWrite+0x78>
     542:	0c 94 83 16 	jmp	0x2d06	; 0x2d06 <_Z12IO_ReadWritebh+0x3c>
     546:	0c 94 f3 03 	jmp	0x7e6	; 0x7e6 <_Z6divideii>
     54a:	0c 94 c5 17 	jmp	0x2f8a	; 0x2f8a <_Z15ReadSharpSensorh+0x3e>
     54e:	0c 94 53 0b 	jmp	0x16a6	; 0x16a6 <StopElevator>
     552:	0c 94 c3 17 	jmp	0x2f86	; 0x2f86 <_Z15ReadSharpSensorh+0x3a>
     556:	0c 94 d4 14 	jmp	0x29a8	; 0x29a8 <_Z3LEDb>
     55a:	0c 94 13 04 	jmp	0x826	; 0x826 <_Z16isSmallerOrEqualii>

0000055e <__ctors_end>:
     55e:	11 24       	eor	r1, r1
     560:	1f be       	out	0x3f, r1	; 63
     562:	cf ef       	ldi	r28, 0xFF	; 255
     564:	cd bf       	out	0x3d, r28	; 61
     566:	df e3       	ldi	r29, 0x3F	; 63
     568:	de bf       	out	0x3e, r29	; 62
     56a:	00 e0       	ldi	r16, 0x00	; 0
     56c:	0c bf       	out	0x3c, r16	; 60
     56e:	18 be       	out	0x38, r1	; 56
     570:	19 be       	out	0x39, r1	; 57
     572:	1a be       	out	0x3a, r1	; 58
     574:	1b be       	out	0x3b, r1	; 59

00000576 <__do_copy_data>:
     576:	13 e2       	ldi	r17, 0x23	; 35
     578:	a0 e0       	ldi	r26, 0x00	; 0
     57a:	b0 e2       	ldi	r27, 0x20	; 32
     57c:	e8 e3       	ldi	r30, 0x38	; 56
     57e:	f2 e6       	ldi	r31, 0x62	; 98
     580:	00 e0       	ldi	r16, 0x00	; 0
     582:	0b bf       	out	0x3b, r16	; 59
     584:	02 c0       	rjmp	.+4      	; 0x58a <__do_copy_data+0x14>
     586:	07 90       	elpm	r0, Z+
     588:	0d 92       	st	X+, r0
     58a:	ac 39       	cpi	r26, 0x9C	; 156
     58c:	b1 07       	cpc	r27, r17
     58e:	d9 f7       	brne	.-10     	; 0x586 <__do_copy_data+0x10>
     590:	1b be       	out	0x3b, r1	; 59

00000592 <__do_clear_bss>:
     592:	26 e2       	ldi	r18, 0x26	; 38
     594:	ac e9       	ldi	r26, 0x9C	; 156
     596:	b3 e2       	ldi	r27, 0x23	; 35
     598:	01 c0       	rjmp	.+2      	; 0x59c <.do_clear_bss_start>

0000059a <.do_clear_bss_loop>:
     59a:	1d 92       	st	X+, r1

0000059c <.do_clear_bss_start>:
     59c:	a7 34       	cpi	r26, 0x47	; 71
     59e:	b2 07       	cpc	r27, r18
     5a0:	e1 f7       	brne	.-8      	; 0x59a <.do_clear_bss_loop>
     5a2:	0e 94 27 19 	call	0x324e	; 0x324e <main>
     5a6:	0c 94 1a 31 	jmp	0x6234	; 0x6234 <_exit>

000005aa <__bad_interrupt>:
     5aa:	0c 94 00 00 	jmp	0	; 0x0 <__vectors>

000005ae <SP_ReadByte>:
     5ae:	3b b7       	in	r19, 0x3b	; 59
     5b0:	8b bf       	out	0x3b, r24	; 59
     5b2:	fb 01       	movw	r30, r22
     5b4:	86 91       	elpm	r24, Z
     5b6:	3b bf       	out	0x3b, r19	; 59
     5b8:	08 95       	ret

000005ba <SP_ReadWord>:
     5ba:	3b b7       	in	r19, 0x3b	; 59
     5bc:	8b bf       	out	0x3b, r24	; 59
     5be:	fb 01       	movw	r30, r22
     5c0:	87 91       	elpm	r24, Z+
     5c2:	96 91       	elpm	r25, Z
     5c4:	3b bf       	out	0x3b, r19	; 59
     5c6:	08 95       	ret

000005c8 <SP_ReadCalibrationByte>:
     5c8:	42 e0       	ldi	r20, 0x02	; 2
     5ca:	70 c0       	rjmp	.+224    	; 0x6ac <SP_CommonLPM>

000005cc <SP_ReadUserSignatureByte>:
     5cc:	41 e0       	ldi	r20, 0x01	; 1
     5ce:	6e c0       	rjmp	.+220    	; 0x6ac <SP_CommonLPM>

000005d0 <SP_ReadFuseByte>:
     5d0:	80 93 c0 01 	sts	0x01C0, r24	; 0x8001c0 <__TEXT_REGION_LENGTH__+0x7001c0>
     5d4:	88 27       	eor	r24, r24
     5d6:	80 93 c1 01 	sts	0x01C1, r24	; 0x8001c1 <__TEXT_REGION_LENGTH__+0x7001c1>
     5da:	80 93 c2 01 	sts	0x01C2, r24	; 0x8001c2 <__TEXT_REGION_LENGTH__+0x7001c2>
     5de:	47 e0       	ldi	r20, 0x07	; 7
     5e0:	55 d0       	rcall	.+170    	; 0x68c <SP_CommonCMD>
     5e2:	cb 01       	movw	r24, r22
     5e4:	08 95       	ret

000005e6 <SP_WriteLockBits>:
     5e6:	80 93 c4 01 	sts	0x01C4, r24	; 0x8001c4 <__TEXT_REGION_LENGTH__+0x7001c4>
     5ea:	48 e0       	ldi	r20, 0x08	; 8
     5ec:	4f c0       	rjmp	.+158    	; 0x68c <SP_CommonCMD>

000005ee <SP_ReadLockBits>:
     5ee:	80 91 d0 01 	lds	r24, 0x01D0	; 0x8001d0 <__TEXT_REGION_LENGTH__+0x7001d0>
     5f2:	08 95       	ret

000005f4 <SP_EraseUserSignatureRow>:
     5f4:	3b b7       	in	r19, 0x3b	; 59
     5f6:	48 e1       	ldi	r20, 0x18	; 24
     5f8:	0d 94 00 00 	jmp	0x20000	; 0x20000 <SP_CommonSPM>

000005fc <SP_WriteUserSignatureRow>:
     5fc:	3b b7       	in	r19, 0x3b	; 59
     5fe:	4a e1       	ldi	r20, 0x1A	; 26
     600:	0d 94 00 00 	jmp	0x20000	; 0x20000 <SP_CommonSPM>

00000604 <SP_EraseApplicationSection>:
     604:	3b b7       	in	r19, 0x3b	; 59
     606:	40 e2       	ldi	r20, 0x20	; 32
     608:	0d 94 00 00 	jmp	0x20000	; 0x20000 <SP_CommonSPM>

0000060c <SP_EraseApplicationPage>:
     60c:	3b b7       	in	r19, 0x3b	; 59
     60e:	8b bf       	out	0x3b, r24	; 59
     610:	cb 01       	movw	r24, r22
     612:	42 e2       	ldi	r20, 0x22	; 34
     614:	0d 94 00 00 	jmp	0x20000	; 0x20000 <SP_CommonSPM>

00000618 <SP_LoadFlashWord>:
     618:	3b b7       	in	r19, 0x3b	; 59
     61a:	0b 01       	movw	r0, r22
     61c:	43 e2       	ldi	r20, 0x23	; 35
     61e:	0d 94 00 00 	jmp	0x20000	; 0x20000 <SP_CommonSPM>

00000622 <SP_WriteApplicationPage>:
     622:	3b b7       	in	r19, 0x3b	; 59
     624:	8b bf       	out	0x3b, r24	; 59
     626:	cb 01       	movw	r24, r22
     628:	44 e2       	ldi	r20, 0x24	; 36
     62a:	0d 94 00 00 	jmp	0x20000	; 0x20000 <SP_CommonSPM>

0000062e <SP_EraseWriteApplicationPage>:
     62e:	3b b7       	in	r19, 0x3b	; 59
     630:	8b bf       	out	0x3b, r24	; 59
     632:	cb 01       	movw	r24, r22
     634:	45 e2       	ldi	r20, 0x25	; 37
     636:	0d 94 00 00 	jmp	0x20000	; 0x20000 <SP_CommonSPM>

0000063a <SP_EraseFlashBuffer>:
     63a:	3b b7       	in	r19, 0x3b	; 59
     63c:	46 e2       	ldi	r20, 0x26	; 38
     63e:	0d 94 00 00 	jmp	0x20000	; 0x20000 <SP_CommonSPM>

00000642 <SP_EraseBootPage>:
     642:	3b b7       	in	r19, 0x3b	; 59
     644:	8b bf       	out	0x3b, r24	; 59
     646:	cb 01       	movw	r24, r22
     648:	4a e2       	ldi	r20, 0x2A	; 42
     64a:	0d 94 00 00 	jmp	0x20000	; 0x20000 <SP_CommonSPM>

0000064e <SP_WriteBootPage>:
     64e:	3b b7       	in	r19, 0x3b	; 59
     650:	8b bf       	out	0x3b, r24	; 59
     652:	cb 01       	movw	r24, r22
     654:	4c e2       	ldi	r20, 0x2C	; 44
     656:	0d 94 00 00 	jmp	0x20000	; 0x20000 <SP_CommonSPM>

0000065a <SP_EraseWriteBootPage>:
     65a:	3b b7       	in	r19, 0x3b	; 59
     65c:	8b bf       	out	0x3b, r24	; 59
     65e:	cb 01       	movw	r24, r22
     660:	4d e2       	ldi	r20, 0x2D	; 45
     662:	0d 94 00 00 	jmp	0x20000	; 0x20000 <SP_CommonSPM>

00000666 <SP_ApplicationCRC>:
     666:	48 e3       	ldi	r20, 0x38	; 56
     668:	11 c0       	rjmp	.+34     	; 0x68c <SP_CommonCMD>

0000066a <SP_BootCRC>:
     66a:	49 e3       	ldi	r20, 0x39	; 57
     66c:	0f c0       	rjmp	.+30     	; 0x68c <SP_CommonCMD>

0000066e <SP_LockSPM>:
     66e:	28 ed       	ldi	r18, 0xD8	; 216
     670:	20 93 34 00 	sts	0x0034, r18	; 0x800034 <__TEXT_REGION_LENGTH__+0x700034>
     674:	21 e0       	ldi	r18, 0x01	; 1
     676:	20 93 cc 01 	sts	0x01CC, r18	; 0x8001cc <__TEXT_REGION_LENGTH__+0x7001cc>
     67a:	08 95       	ret

0000067c <SP_WaitForSPM>:
     67c:	20 91 cf 01 	lds	r18, 0x01CF	; 0x8001cf <__TEXT_REGION_LENGTH__+0x7001cf>
     680:	27 fd       	sbrc	r18, 7
     682:	fc cf       	rjmp	.-8      	; 0x67c <SP_WaitForSPM>
     684:	22 27       	eor	r18, r18
     686:	20 93 ca 01 	sts	0x01CA, r18	; 0x8001ca <__TEXT_REGION_LENGTH__+0x7001ca>
     68a:	08 95       	ret

0000068c <SP_CommonCMD>:
     68c:	40 93 ca 01 	sts	0x01CA, r20	; 0x8001ca <__TEXT_REGION_LENGTH__+0x7001ca>
     690:	28 ed       	ldi	r18, 0xD8	; 216
     692:	31 e0       	ldi	r19, 0x01	; 1
     694:	20 93 34 00 	sts	0x0034, r18	; 0x800034 <__TEXT_REGION_LENGTH__+0x700034>
     698:	30 93 cb 01 	sts	0x01CB, r19	; 0x8001cb <__TEXT_REGION_LENGTH__+0x7001cb>
     69c:	60 91 c4 01 	lds	r22, 0x01C4	; 0x8001c4 <__TEXT_REGION_LENGTH__+0x7001c4>
     6a0:	70 91 c5 01 	lds	r23, 0x01C5	; 0x8001c5 <__TEXT_REGION_LENGTH__+0x7001c5>
     6a4:	80 91 c6 01 	lds	r24, 0x01C6	; 0x8001c6 <__TEXT_REGION_LENGTH__+0x7001c6>
     6a8:	99 27       	eor	r25, r25
     6aa:	08 95       	ret

000006ac <SP_CommonLPM>:
     6ac:	fc 01       	movw	r30, r24
     6ae:	40 93 ca 01 	sts	0x01CA, r20	; 0x8001ca <__TEXT_REGION_LENGTH__+0x7001ca>
     6b2:	84 91       	lpm	r24, Z
     6b4:	08 95       	ret

000006b6 <_Z9delay1secv>:
	#else
		//round up by default
		__ticks_dc = (uint32_t)(ceil(fabs(__tmp)));
	#endif

	__builtin_avr_delay_cycles(__ticks_dc);
     6b6:	2f ef       	ldi	r18, 0xFF	; 255
     6b8:	8d e3       	ldi	r24, 0x3D	; 61
     6ba:	99 e4       	ldi	r25, 0x49	; 73
     6bc:	21 50       	subi	r18, 0x01	; 1
     6be:	80 40       	sbci	r24, 0x00	; 0
     6c0:	90 40       	sbci	r25, 0x00	; 0
     6c2:	e1 f7       	brne	.-8      	; 0x6bc <_Z9delay1secv+0x6>
     6c4:	00 c0       	rjmp	.+0      	; 0x6c6 <_Z9delay1secv+0x10>
     6c6:	00 00       	nop
     6c8:	08 95       	ret

000006ca <_Z8delay_msj>:
}


void delay_ms(uint16_t ms)
{
	for(uint16_t i = 0; i < ms; i++)
     6ca:	00 97       	sbiw	r24, 0x00	; 0
     6cc:	69 f0       	breq	.+26     	; 0x6e8 <_Z8delay_msj+0x1e>
     6ce:	20 e0       	ldi	r18, 0x00	; 0
     6d0:	30 e0       	ldi	r19, 0x00	; 0
     6d2:	ef e6       	ldi	r30, 0x6F	; 111
     6d4:	f7 e1       	ldi	r31, 0x17	; 23
     6d6:	31 97       	sbiw	r30, 0x01	; 1
     6d8:	f1 f7       	brne	.-4      	; 0x6d6 <_Z8delay_msj+0xc>
     6da:	00 c0       	rjmp	.+0      	; 0x6dc <_Z8delay_msj+0x12>
     6dc:	00 00       	nop
     6de:	2f 5f       	subi	r18, 0xFF	; 255
     6e0:	3f 4f       	sbci	r19, 0xFF	; 255
     6e2:	82 17       	cp	r24, r18
     6e4:	93 07       	cpc	r25, r19
     6e6:	a9 f7       	brne	.-22     	; 0x6d2 <_Z8delay_msj+0x8>
     6e8:	08 95       	ret

000006ea <_Z11printNumberj>:



void printNumber(uint16_t num)
{
	USART_Transmit_Number(USARTD0, num);
     6ea:	bc 01       	movw	r22, r24
     6ec:	80 ea       	ldi	r24, 0xA0	; 160
     6ee:	99 e0       	ldi	r25, 0x09	; 9
     6f0:	0e 94 ec 09 	call	0x13d8	; 0x13d8 <_Z21USART_Transmit_NumberR12USART_structi>
	USART_TransmitString(USARTD0, "\n\r");
     6f4:	6b e3       	ldi	r22, 0x3B	; 59
     6f6:	73 e2       	ldi	r23, 0x23	; 35
     6f8:	80 ea       	ldi	r24, 0xA0	; 160
     6fa:	99 e0       	ldi	r25, 0x09	; 9
     6fc:	0e 94 94 09 	call	0x1328	; 0x1328 <_Z20USART_TransmitStringR12USART_structPKc>
     700:	08 95       	ret

00000702 <_Z6invertj>:


uint16_t invert(uint16_t num)
{
	return -num;
}
     702:	91 95       	neg	r25
     704:	81 95       	neg	r24
     706:	91 09       	sbc	r25, r1
     708:	08 95       	ret

0000070a <_Z3addii>:



int16_t add(int16_t A, int16_t B)
{
     70a:	cf 92       	push	r12
     70c:	df 92       	push	r13
     70e:	ef 92       	push	r14
     710:	ff 92       	push	r15
     712:	9b 01       	movw	r18, r22
	long res = (long)A + B;
     714:	6c 01       	movw	r12, r24
     716:	09 2e       	mov	r0, r25
     718:	00 0c       	add	r0, r0
     71a:	ee 08       	sbc	r14, r14
     71c:	ff 08       	sbc	r15, r15
     71e:	ab 01       	movw	r20, r22
     720:	77 0f       	add	r23, r23
     722:	66 0b       	sbc	r22, r22
     724:	77 0b       	sbc	r23, r23
     726:	4c 0d       	add	r20, r12
     728:	5d 1d       	adc	r21, r13
     72a:	6e 1d       	adc	r22, r14
     72c:	7f 1d       	adc	r23, r15

	if(res > 32767)
     72e:	41 15       	cp	r20, r1
     730:	e0 e8       	ldi	r30, 0x80	; 128
     732:	5e 07       	cpc	r21, r30
     734:	61 05       	cpc	r22, r1
     736:	71 05       	cpc	r23, r1
     738:	44 f4       	brge	.+16     	; 0x74a <_Z3addii+0x40>
	return 32767;
	if(res < -32768)
     73a:	41 15       	cp	r20, r1
     73c:	50 48       	sbci	r21, 0x80	; 128
     73e:	6f 4f       	sbci	r22, 0xFF	; 255
     740:	7f 4f       	sbci	r23, 0xFF	; 255
     742:	34 f0       	brlt	.+12     	; 0x750 <_Z3addii+0x46>
	return -32767;

	return (int16_t)res;
     744:	82 0f       	add	r24, r18
     746:	93 1f       	adc	r25, r19
     748:	05 c0       	rjmp	.+10     	; 0x754 <_Z3addii+0x4a>
int16_t add(int16_t A, int16_t B)
{
	long res = (long)A + B;

	if(res > 32767)
	return 32767;
     74a:	8f ef       	ldi	r24, 0xFF	; 255
     74c:	9f e7       	ldi	r25, 0x7F	; 127
     74e:	02 c0       	rjmp	.+4      	; 0x754 <_Z3addii+0x4a>
	if(res < -32768)
	return -32767;
     750:	81 e0       	ldi	r24, 0x01	; 1
     752:	90 e8       	ldi	r25, 0x80	; 128

	return (int16_t)res;
}
     754:	ff 90       	pop	r15
     756:	ef 90       	pop	r14
     758:	df 90       	pop	r13
     75a:	cf 90       	pop	r12
     75c:	08 95       	ret

0000075e <_Z8subtractii>:


int16_t subtract(int16_t A, int16_t B)
{
     75e:	cf 92       	push	r12
     760:	df 92       	push	r13
     762:	ef 92       	push	r14
     764:	ff 92       	push	r15
     766:	9b 01       	movw	r18, r22
	long res = (long)A - B;
     768:	ac 01       	movw	r20, r24
     76a:	09 2e       	mov	r0, r25
     76c:	00 0c       	add	r0, r0
     76e:	66 0b       	sbc	r22, r22
     770:	77 0b       	sbc	r23, r23
     772:	69 01       	movw	r12, r18
     774:	03 2e       	mov	r0, r19
     776:	00 0c       	add	r0, r0
     778:	ee 08       	sbc	r14, r14
     77a:	ff 08       	sbc	r15, r15
     77c:	4c 19       	sub	r20, r12
     77e:	5d 09       	sbc	r21, r13
     780:	6e 09       	sbc	r22, r14
     782:	7f 09       	sbc	r23, r15

	if(res > 32767)
     784:	41 15       	cp	r20, r1
     786:	e0 e8       	ldi	r30, 0x80	; 128
     788:	5e 07       	cpc	r21, r30
     78a:	61 05       	cpc	r22, r1
     78c:	71 05       	cpc	r23, r1
     78e:	44 f4       	brge	.+16     	; 0x7a0 <_Z8subtractii+0x42>
	return 32767;
	if(res < -32768)
     790:	41 15       	cp	r20, r1
     792:	50 48       	sbci	r21, 0x80	; 128
     794:	6f 4f       	sbci	r22, 0xFF	; 255
     796:	7f 4f       	sbci	r23, 0xFF	; 255
     798:	34 f0       	brlt	.+12     	; 0x7a6 <_Z8subtractii+0x48>
	return -32767;

	return (int16_t)res;
     79a:	82 1b       	sub	r24, r18
     79c:	93 0b       	sbc	r25, r19
     79e:	05 c0       	rjmp	.+10     	; 0x7aa <_Z8subtractii+0x4c>
int16_t subtract(int16_t A, int16_t B)
{
	long res = (long)A - B;

	if(res > 32767)
	return 32767;
     7a0:	8f ef       	ldi	r24, 0xFF	; 255
     7a2:	9f e7       	ldi	r25, 0x7F	; 127
     7a4:	02 c0       	rjmp	.+4      	; 0x7aa <_Z8subtractii+0x4c>
	if(res < -32768)
	return -32767;
     7a6:	81 e0       	ldi	r24, 0x01	; 1
     7a8:	90 e8       	ldi	r25, 0x80	; 128

	return (int16_t)res;
}
     7aa:	ff 90       	pop	r15
     7ac:	ef 90       	pop	r14
     7ae:	df 90       	pop	r13
     7b0:	cf 90       	pop	r12
     7b2:	08 95       	ret

000007b4 <_Z8multiplyii>:


int16_t multiply(int16_t A, int16_t B)
{
	long res = (long)A * B;
     7b4:	9c 01       	movw	r18, r24
     7b6:	db 01       	movw	r26, r22
     7b8:	0e 94 e8 30 	call	0x61d0	; 0x61d0 <__mulhisi3>

	if(res > 32767)
     7bc:	61 15       	cp	r22, r1
     7be:	20 e8       	ldi	r18, 0x80	; 128
     7c0:	72 07       	cpc	r23, r18
     7c2:	81 05       	cpc	r24, r1
     7c4:	91 05       	cpc	r25, r1
     7c6:	4c f4       	brge	.+18     	; 0x7da <_Z8multiplyii+0x26>
	return 32767;
	if(res < -32768)
     7c8:	61 15       	cp	r22, r1
     7ca:	20 e8       	ldi	r18, 0x80	; 128
     7cc:	72 07       	cpc	r23, r18
     7ce:	2f ef       	ldi	r18, 0xFF	; 255
     7d0:	82 07       	cpc	r24, r18
     7d2:	92 07       	cpc	r25, r18
     7d4:	2c f0       	brlt	.+10     	; 0x7e0 <_Z8multiplyii+0x2c>
	return -32767;

	return (int16_t)res;
     7d6:	cb 01       	movw	r24, r22
     7d8:	08 95       	ret
int16_t multiply(int16_t A, int16_t B)
{
	long res = (long)A * B;

	if(res > 32767)
	return 32767;
     7da:	8f ef       	ldi	r24, 0xFF	; 255
     7dc:	9f e7       	ldi	r25, 0x7F	; 127
     7de:	08 95       	ret
	if(res < -32768)
	return -32767;
     7e0:	81 e0       	ldi	r24, 0x01	; 1
     7e2:	90 e8       	ldi	r25, 0x80	; 128

	return (int16_t)res;
}
     7e4:	08 95       	ret

000007e6 <_Z6divideii>:


int16_t divide(int16_t A, int16_t B)
{
	return A / B;
     7e6:	0e 94 8a 30 	call	0x6114	; 0x6114 <__divmodhi4>
     7ea:	cb 01       	movw	r24, r22
}
     7ec:	08 95       	ret

000007ee <_Z7isEqualii>:


bool isEqual(int16_t A, int16_t B)			{return A == B; }
     7ee:	21 e0       	ldi	r18, 0x01	; 1
     7f0:	86 17       	cp	r24, r22
     7f2:	97 07       	cpc	r25, r23
     7f4:	09 f0       	breq	.+2      	; 0x7f8 <_Z7isEqualii+0xa>
     7f6:	20 e0       	ldi	r18, 0x00	; 0
     7f8:	82 2f       	mov	r24, r18
     7fa:	08 95       	ret

000007fc <_Z8isBiggerii>:
bool isBigger(int16_t A, int16_t B)			{return A > B;	}
     7fc:	21 e0       	ldi	r18, 0x01	; 1
     7fe:	68 17       	cp	r22, r24
     800:	79 07       	cpc	r23, r25
     802:	0c f0       	brlt	.+2      	; 0x806 <_Z8isBiggerii+0xa>
     804:	20 e0       	ldi	r18, 0x00	; 0
     806:	82 2f       	mov	r24, r18
     808:	08 95       	ret

0000080a <_Z9isSmallerii>:
bool isSmaller(int16_t A, int16_t B)		{return A < B;	}
     80a:	21 e0       	ldi	r18, 0x01	; 1
     80c:	86 17       	cp	r24, r22
     80e:	97 07       	cpc	r25, r23
     810:	0c f0       	brlt	.+2      	; 0x814 <_Z9isSmallerii+0xa>
     812:	20 e0       	ldi	r18, 0x00	; 0
     814:	82 2f       	mov	r24, r18
     816:	08 95       	ret

00000818 <_Z15isBiggerOrEqualii>:
bool isBiggerOrEqual(int16_t A, int16_t B)	{return A >= B;	}
     818:	21 e0       	ldi	r18, 0x01	; 1
     81a:	86 17       	cp	r24, r22
     81c:	97 07       	cpc	r25, r23
     81e:	0c f4       	brge	.+2      	; 0x822 <_Z15isBiggerOrEqualii+0xa>
     820:	20 e0       	ldi	r18, 0x00	; 0
     822:	82 2f       	mov	r24, r18
     824:	08 95       	ret

00000826 <_Z16isSmallerOrEqualii>:
bool isSmallerOrEqual(int16_t A, int16_t B)	{return A <= B; }
     826:	21 e0       	ldi	r18, 0x01	; 1
     828:	68 17       	cp	r22, r24
     82a:	79 07       	cpc	r23, r25
     82c:	0c f4       	brge	.+2      	; 0x830 <_Z16isSmallerOrEqualii+0xa>
     82e:	20 e0       	ldi	r18, 0x00	; 0
     830:	82 2f       	mov	r24, r18
     832:	08 95       	ret

00000834 <_Z8logic_orbb>:

bool logic_or(bool A, bool B)	{return A || B; }
     834:	81 11       	cpse	r24, r1
     836:	02 c0       	rjmp	.+4      	; 0x83c <_Z8logic_orbb+0x8>
     838:	86 2f       	mov	r24, r22
     83a:	08 95       	ret
     83c:	81 e0       	ldi	r24, 0x01	; 1
     83e:	08 95       	ret

00000840 <_Z9logic_andbb>:
bool logic_and(bool A, bool B)	{return A && B; }
     840:	81 11       	cpse	r24, r1
     842:	86 2f       	mov	r24, r22
     844:	08 95       	ret

00000846 <_Z9logic_xorbb>:
     846:	86 27       	eor	r24, r22
     848:	08 95       	ret

0000084a <_Z11hexToNibblec>:
	return (hexToNibble(h) << 4) | hexToNibble(l);
}

uint8_t hexToNibble(char hex)
{
	if(hex >= '0' && hex <= '9')
     84a:	90 ed       	ldi	r25, 0xD0	; 208
     84c:	98 0f       	add	r25, r24
     84e:	9a 30       	cpi	r25, 0x0A	; 10
     850:	60 f0       	brcs	.+24     	; 0x86a <_Z11hexToNibblec+0x20>
	{
		return hex-'0';
	}
	else if(hex >= 'A' && hex <= 'F')
     852:	9f eb       	ldi	r25, 0xBF	; 191
     854:	98 0f       	add	r25, r24
     856:	96 30       	cpi	r25, 0x06	; 6
     858:	10 f4       	brcc	.+4      	; 0x85e <_Z11hexToNibblec+0x14>
	{
		return hex-'A'+10;
     85a:	87 53       	subi	r24, 0x37	; 55
     85c:	08 95       	ret
	}
	else if(hex >= 'a' && hex <= 'f')
     85e:	9f e9       	ldi	r25, 0x9F	; 159
     860:	98 0f       	add	r25, r24
     862:	96 30       	cpi	r25, 0x06	; 6
     864:	20 f4       	brcc	.+8      	; 0x86e <_Z11hexToNibblec+0x24>
	{
		return hex-'a'+10;
     866:	87 55       	subi	r24, 0x57	; 87
     868:	08 95       	ret

uint8_t hexToNibble(char hex)
{
	if(hex >= '0' && hex <= '9')
	{
		return hex-'0';
     86a:	89 2f       	mov	r24, r25
     86c:	08 95       	ret
	}
	else if(hex >= 'a' && hex <= 'f')
	{
		return hex-'a'+10;
	}
	return 0xff;
     86e:	8f ef       	ldi	r24, 0xFF	; 255
}
     870:	08 95       	ret

00000872 <_Z9hexToBytecc>:
 */ 

#include "Convert.h"

uint8_t hexToByte(char h, char l)
{
     872:	cf 93       	push	r28
     874:	df 93       	push	r29
     876:	d6 2f       	mov	r29, r22
	return (hexToNibble(h) << 4) | hexToNibble(l);
     878:	0e 94 25 04 	call	0x84a	; 0x84a <_Z11hexToNibblec>
     87c:	c8 2f       	mov	r28, r24
     87e:	8d 2f       	mov	r24, r29
     880:	0e 94 25 04 	call	0x84a	; 0x84a <_Z11hexToNibblec>
     884:	90 e1       	ldi	r25, 0x10	; 16
     886:	c9 9f       	mul	r28, r25
     888:	90 01       	movw	r18, r0
     88a:	11 24       	eor	r1, r1
}
     88c:	82 2b       	or	r24, r18
     88e:	df 91       	pop	r29
     890:	cf 91       	pop	r28
     892:	08 95       	ret

00000894 <_Z11resetDevicev>:
 #include "Programming.h"

void resetDevice()
{
	//disable interrupts
	asm("cli");
     894:	f8 94       	cli
	// enable watchdog timer
	CCP = 0xD8;
     896:	88 ed       	ldi	r24, 0xD8	; 216
     898:	84 bf       	out	0x34, r24	; 52
	WDT.CTRL = (1<< WDT_ENABLE_bp)| (1<<WDT_CEN_bp);
     89a:	83 e0       	ldi	r24, 0x03	; 3
     89c:	80 93 80 00 	sts	0x0080, r24	; 0x800080 <__TEXT_REGION_LENGTH__+0x700080>
     8a0:	ff cf       	rjmp	.-2      	; 0x8a0 <_Z11resetDevicev+0xc>

000008a2 <_Z12programFlashhjhPh>:
	programFlash(byteCount, ((uint16_t)(address_H << 8)) | address_L, recordType, data);
}


void programFlash(uint8_t byteCount, uint16_t address, uint8_t recordType, uint8_t* data)
{
     8a2:	ef 92       	push	r14
     8a4:	ff 92       	push	r15
     8a6:	0f 93       	push	r16
     8a8:	1f 93       	push	r17
     8aa:	cf 93       	push	r28
     8ac:	df 93       	push	r29
     8ae:	e8 2e       	mov	r14, r24
     8b0:	eb 01       	movw	r28, r22
     8b2:	89 01       	movw	r16, r18
	static uint16_t previousAddress = 0xFFFF;
	static bool firstByte = true;

	if(recordType == EOF_RECORD)
     8b4:	41 30       	cpi	r20, 0x01	; 1
     8b6:	71 f5       	brne	.+92     	; 0x914 <_Z12programFlashhjhPh+0x72>
	{
		// if the first byte has already been sent
		if(!firstByte)
     8b8:	80 91 02 20 	lds	r24, 0x2002	; 0x802002 <_ZZ12programFlashhjhPhE9firstByte>
     8bc:	81 11       	cpse	r24, r1
     8be:	28 c0       	rjmp	.+80     	; 0x910 <_Z12programFlashhjhPh+0x6e>
		{
			// check if the address is within the blockly range
			if(previousAddress < LOWER_ADDRESS_LIMIT || previousAddress > UPPER_ADDRESS_LIMIT)
     8c0:	80 91 00 20 	lds	r24, 0x2000	; 0x802000 <__DATA_REGION_ORIGIN__>
     8c4:	90 91 01 20 	lds	r25, 0x2001	; 0x802001 <__DATA_REGION_ORIGIN__+0x1>
     8c8:	90 58       	subi	r25, 0x80	; 128
     8ca:	8f 3f       	cpi	r24, 0xFF	; 255
     8cc:	9f 47       	sbci	r25, 0x7F	; 127
     8ce:	b0 f0       	brcs	.+44     	; 0x8fc <_Z12programFlashhjhPh+0x5a>
			{
				USART_TransmitString(USARTD0, "\n\rFlash address:");
     8d0:	6c eb       	ldi	r22, 0xBC	; 188
     8d2:	70 e2       	ldi	r23, 0x20	; 32
     8d4:	80 ea       	ldi	r24, 0xA0	; 160
     8d6:	99 e0       	ldi	r25, 0x09	; 9
     8d8:	0e 94 94 09 	call	0x1328	; 0x1328 <_Z20USART_TransmitStringR12USART_structPKc>
				USART_Transmit_Number(USARTD0, previousAddress);
     8dc:	60 91 00 20 	lds	r22, 0x2000	; 0x802000 <__DATA_REGION_ORIGIN__>
     8e0:	70 91 01 20 	lds	r23, 0x2001	; 0x802001 <__DATA_REGION_ORIGIN__+0x1>
     8e4:	80 ea       	ldi	r24, 0xA0	; 160
     8e6:	99 e0       	ldi	r25, 0x09	; 9
     8e8:	0e 94 ec 09 	call	0x13d8	; 0x13d8 <_Z21USART_Transmit_NumberR12USART_structi>
				USART_TransmitString(USARTD0, " out of range\n\rResetting");
     8ec:	6d ec       	ldi	r22, 0xCD	; 205
     8ee:	70 e2       	ldi	r23, 0x20	; 32
     8f0:	80 ea       	ldi	r24, 0xA0	; 160
     8f2:	99 e0       	ldi	r25, 0x09	; 9
     8f4:	0e 94 94 09 	call	0x1328	; 0x1328 <_Z20USART_TransmitStringR12USART_structPKc>
				
				//USB_TransmitString("\n\rFlash address:");
				//USB_Transmit_Number(previousAddress);
				//USB_TransmitString(" out of range\n\rResetting");
				resetDevice();
     8f8:	0e 94 4a 04 	call	0x894	; 0x894 <_Z11resetDevicev>
			}
			
			SP_WaitForSPM();	//wait for nvm module if busy
     8fc:	0e 94 3e 03 	call	0x67c	; 0x67c <SP_WaitForSPM>
			SP_EraseWriteApplicationPage(previousAddress); //program page to flash
     900:	60 91 00 20 	lds	r22, 0x2000	; 0x802000 <__DATA_REGION_ORIGIN__>
     904:	70 91 01 20 	lds	r23, 0x2001	; 0x802001 <__DATA_REGION_ORIGIN__+0x1>
     908:	80 e0       	ldi	r24, 0x00	; 0
     90a:	90 e0       	ldi	r25, 0x00	; 0
     90c:	0e 94 17 03 	call	0x62e	; 0x62e <SP_EraseWriteApplicationPage>
		}
		// reset device
		resetDevice();
     910:	0e 94 4a 04 	call	0x894	; 0x894 <_Z11resetDevicev>
	}
	else if(recordType == DATA_RECORD)
     914:	41 11       	cpse	r20, r1
     916:	56 c0       	rjmp	.+172    	; 0x9c4 <_Z12programFlashhjhPh+0x122>
	{
		// loop through bytes
		for(uint8_t i = 0; i < byteCount; i+=2)
     918:	88 23       	and	r24, r24
     91a:	09 f4       	brne	.+2      	; 0x91e <_Z12programFlashhjhPh+0x7c>
     91c:	53 c0       	rjmp	.+166    	; 0x9c4 <_Z12programFlashhjhPh+0x122>
     91e:	f1 2c       	mov	r15, r1
		{
			// if address is in the another page than the last
			if(previousAddress/SPM_PAGESIZE != address/SPM_PAGESIZE)
     920:	80 91 00 20 	lds	r24, 0x2000	; 0x802000 <__DATA_REGION_ORIGIN__>
     924:	90 91 01 20 	lds	r25, 0x2001	; 0x802001 <__DATA_REGION_ORIGIN__+0x1>
     928:	ac 01       	movw	r20, r24
     92a:	45 2f       	mov	r20, r21
     92c:	55 27       	eor	r21, r21
     92e:	46 95       	lsr	r20
     930:	9e 01       	movw	r18, r28
     932:	23 2f       	mov	r18, r19
     934:	33 27       	eor	r19, r19
     936:	26 95       	lsr	r18
     938:	42 17       	cp	r20, r18
     93a:	53 07       	cpc	r21, r19
     93c:	41 f1       	breq	.+80     	; 0x98e <_Z12programFlashhjhPh+0xec>
			{
				// if this isn't the first byte
				if(!firstByte)
     93e:	20 91 02 20 	lds	r18, 0x2002	; 0x802002 <_ZZ12programFlashhjhPhE9firstByte>
     942:	21 11       	cpse	r18, r1
     944:	24 c0       	rjmp	.+72     	; 0x98e <_Z12programFlashhjhPh+0xec>
				{
					if(previousAddress < LOWER_ADDRESS_LIMIT || previousAddress > UPPER_ADDRESS_LIMIT)
     946:	90 58       	subi	r25, 0x80	; 128
     948:	8f 3f       	cpi	r24, 0xFF	; 255
     94a:	9f 47       	sbci	r25, 0x7F	; 127
     94c:	b0 f0       	brcs	.+44     	; 0x97a <_Z12programFlashhjhPh+0xd8>
					{
						USART_TransmitString(USARTD0, "\n\rFlash address:");
     94e:	6c eb       	ldi	r22, 0xBC	; 188
     950:	70 e2       	ldi	r23, 0x20	; 32
     952:	80 ea       	ldi	r24, 0xA0	; 160
     954:	99 e0       	ldi	r25, 0x09	; 9
     956:	0e 94 94 09 	call	0x1328	; 0x1328 <_Z20USART_TransmitStringR12USART_structPKc>
						USART_Transmit_Number(USARTD0, previousAddress);
     95a:	60 91 00 20 	lds	r22, 0x2000	; 0x802000 <__DATA_REGION_ORIGIN__>
     95e:	70 91 01 20 	lds	r23, 0x2001	; 0x802001 <__DATA_REGION_ORIGIN__+0x1>
     962:	80 ea       	ldi	r24, 0xA0	; 160
     964:	99 e0       	ldi	r25, 0x09	; 9
     966:	0e 94 ec 09 	call	0x13d8	; 0x13d8 <_Z21USART_Transmit_NumberR12USART_structi>
						USART_TransmitString(USARTD0, " out of range\n\rResetting");
     96a:	6d ec       	ldi	r22, 0xCD	; 205
     96c:	70 e2       	ldi	r23, 0x20	; 32
     96e:	80 ea       	ldi	r24, 0xA0	; 160
     970:	99 e0       	ldi	r25, 0x09	; 9
     972:	0e 94 94 09 	call	0x1328	; 0x1328 <_Z20USART_TransmitStringR12USART_structPKc>
						
						//USB_TransmitString("\n\rFlash address:");
						//USB_Transmit_Number(previousAddress);
						//USB_TransmitString(" out of range\n\rResetting");
						
						resetDevice();
     976:	0e 94 4a 04 	call	0x894	; 0x894 <_Z11resetDevicev>
					}
					
					SP_WaitForSPM();
     97a:	0e 94 3e 03 	call	0x67c	; 0x67c <SP_WaitForSPM>
					SP_EraseWriteApplicationPage(previousAddress);
     97e:	60 91 00 20 	lds	r22, 0x2000	; 0x802000 <__DATA_REGION_ORIGIN__>
     982:	70 91 01 20 	lds	r23, 0x2001	; 0x802001 <__DATA_REGION_ORIGIN__+0x1>
     986:	80 e0       	ldi	r24, 0x00	; 0
     988:	90 e0       	ldi	r25, 0x00	; 0
     98a:	0e 94 17 03 	call	0x62e	; 0x62e <SP_EraseWriteApplicationPage>
				}
			}
			
			//load byte into temporary page buffer
			SP_WaitForSPM();
     98e:	0e 94 3e 03 	call	0x67c	; 0x67c <SP_WaitForSPM>
			SP_LoadFlashWord(address%SPM_PAGESIZE, ((uint16_t)data[i+1] << 8 | data[i]));
     992:	f8 01       	movw	r30, r16
     994:	ef 0d       	add	r30, r15
     996:	f1 1d       	adc	r31, r1
     998:	61 81       	ldd	r22, Z+1	; 0x01
     99a:	70 e0       	ldi	r23, 0x00	; 0
     99c:	76 2f       	mov	r23, r22
     99e:	66 27       	eor	r22, r22
     9a0:	80 81       	ld	r24, Z
     9a2:	68 2b       	or	r22, r24
     9a4:	ce 01       	movw	r24, r28
     9a6:	91 70       	andi	r25, 0x01	; 1
     9a8:	0e 94 0c 03 	call	0x618	; 0x618 <SP_LoadFlashWord>
				
			// track the programming state
			firstByte = false;
     9ac:	10 92 02 20 	sts	0x2002, r1	; 0x802002 <_ZZ12programFlashhjhPhE9firstByte>
			previousAddress = address;
     9b0:	c0 93 00 20 	sts	0x2000, r28	; 0x802000 <__DATA_REGION_ORIGIN__>
     9b4:	d0 93 01 20 	sts	0x2001, r29	; 0x802001 <__DATA_REGION_ORIGIN__+0x1>
			address+=2;
     9b8:	22 96       	adiw	r28, 0x02	; 2
		resetDevice();
	}
	else if(recordType == DATA_RECORD)
	{
		// loop through bytes
		for(uint8_t i = 0; i < byteCount; i+=2)
     9ba:	f3 94       	inc	r15
     9bc:	f3 94       	inc	r15
     9be:	fe 14       	cp	r15, r14
     9c0:	08 f4       	brcc	.+2      	; 0x9c4 <_Z12programFlashhjhPh+0x122>
     9c2:	ae cf       	rjmp	.-164    	; 0x920 <_Z12programFlashhjhPh+0x7e>
			previousAddress = address;
			address+=2;
		}
	}

     9c4:	df 91       	pop	r29
     9c6:	cf 91       	pop	r28
     9c8:	1f 91       	pop	r17
     9ca:	0f 91       	pop	r16
     9cc:	ff 90       	pop	r15
     9ce:	ef 90       	pop	r14
     9d0:	08 95       	ret

000009d2 <_Z14programHexLinePc>:
		programHexLine(buff);
	}
}

void programHexLine(char* line)
{
     9d2:	5f 92       	push	r5
     9d4:	6f 92       	push	r6
     9d6:	7f 92       	push	r7
     9d8:	8f 92       	push	r8
     9da:	9f 92       	push	r9
     9dc:	af 92       	push	r10
     9de:	bf 92       	push	r11
     9e0:	cf 92       	push	r12
     9e2:	df 92       	push	r13
     9e4:	ef 92       	push	r14
     9e6:	ff 92       	push	r15
     9e8:	0f 93       	push	r16
     9ea:	1f 93       	push	r17
     9ec:	cf 93       	push	r28
     9ee:	df 93       	push	r29
     9f0:	cd b7       	in	r28, 0x3d	; 61
     9f2:	de b7       	in	r29, 0x3e	; 62
     9f4:	60 97       	sbiw	r28, 0x10	; 16
     9f6:	cd bf       	out	0x3d, r28	; 61
     9f8:	de bf       	out	0x3e, r29	; 62
     9fa:	5c 01       	movw	r10, r24
	cli();
     9fc:	f8 94       	cli
	// parse the line
	uint8_t byteCount	= hexToByte(line[1], line[2]);
     9fe:	fc 01       	movw	r30, r24
     a00:	62 81       	ldd	r22, Z+2	; 0x02
     a02:	81 81       	ldd	r24, Z+1	; 0x01
     a04:	0e 94 39 04 	call	0x872	; 0x872 <_Z9hexToBytecc>
     a08:	78 2e       	mov	r7, r24
	uint8_t address_H	= hexToByte(line[3], line[4]);
     a0a:	f5 01       	movw	r30, r10
     a0c:	64 81       	ldd	r22, Z+4	; 0x04
     a0e:	83 81       	ldd	r24, Z+3	; 0x03
     a10:	0e 94 39 04 	call	0x872	; 0x872 <_Z9hexToBytecc>
     a14:	58 2e       	mov	r5, r24
	uint8_t address_L	= hexToByte(line[5], line[6]);
     a16:	f5 01       	movw	r30, r10
     a18:	66 81       	ldd	r22, Z+6	; 0x06
     a1a:	85 81       	ldd	r24, Z+5	; 0x05
     a1c:	0e 94 39 04 	call	0x872	; 0x872 <_Z9hexToBytecc>
     a20:	e8 2e       	mov	r14, r24
	uint8_t recordType	= hexToByte(line[7], line[8]);
     a22:	f5 01       	movw	r30, r10
     a24:	60 85       	ldd	r22, Z+8	; 0x08
     a26:	87 81       	ldd	r24, Z+7	; 0x07
     a28:	0e 94 39 04 	call	0x872	; 0x872 <_Z9hexToBytecc>
     a2c:	68 2e       	mov	r6, r24

	uint8_t checksum = byteCount + address_H + address_L + recordType;
     a2e:	f7 2c       	mov	r15, r7
     a30:	f5 0c       	add	r15, r5
     a32:	fe 0c       	add	r15, r14
     a34:	f8 0e       	add	r15, r24
	uint8_t data[16];

	// loop through data bytes
	for(uint8_t i = 0; i < byteCount; i++)
     a36:	77 20       	and	r7, r7
     a38:	f9 f0       	breq	.+62     	; 0xa78 <_Z14programHexLinePc+0xa6>
     a3a:	85 01       	movw	r16, r10
     a3c:	07 5f       	subi	r16, 0xF7	; 247
     a3e:	1f 4f       	sbci	r17, 0xFF	; 255
     a40:	ce 01       	movw	r24, r28
     a42:	01 96       	adiw	r24, 0x01	; 1
     a44:	6c 01       	movw	r12, r24
     a46:	88 24       	eor	r8, r8
     a48:	8a 94       	dec	r8
     a4a:	87 0c       	add	r8, r7
     a4c:	91 2c       	mov	r9, r1
     a4e:	88 0c       	add	r8, r8
     a50:	99 1c       	adc	r9, r9
     a52:	9b e0       	ldi	r25, 0x0B	; 11
     a54:	89 0e       	add	r8, r25
     a56:	91 1c       	adc	r9, r1
     a58:	8a 0c       	add	r8, r10
     a5a:	9b 1c       	adc	r9, r11
	{
		uint8_t charOffset = 9+2*i;
		uint8_t byte = hexToByte(line[charOffset], line[charOffset+1]);
     a5c:	f8 01       	movw	r30, r16
     a5e:	61 81       	ldd	r22, Z+1	; 0x01
     a60:	80 81       	ld	r24, Z
     a62:	0e 94 39 04 	call	0x872	; 0x872 <_Z9hexToBytecc>
		checksum += byte;
     a66:	f8 0e       	add	r15, r24
		data[i] = byte;
     a68:	f6 01       	movw	r30, r12
     a6a:	81 93       	st	Z+, r24
     a6c:	6f 01       	movw	r12, r30
     a6e:	0e 5f       	subi	r16, 0xFE	; 254
     a70:	1f 4f       	sbci	r17, 0xFF	; 255

	uint8_t checksum = byteCount + address_H + address_L + recordType;
	uint8_t data[16];

	// loop through data bytes
	for(uint8_t i = 0; i < byteCount; i++)
     a72:	08 15       	cp	r16, r8
     a74:	19 05       	cpc	r17, r9
     a76:	91 f7       	brne	.-28     	; 0xa5c <_Z14programHexLinePc+0x8a>
		uint8_t byte = hexToByte(line[charOffset], line[charOffset+1]);
		checksum += byte;
		data[i] = byte;
	}

	checksum += hexToByte(line[9+2*byteCount],line[10+2*byteCount]);
     a78:	e7 2d       	mov	r30, r7
     a7a:	f0 e0       	ldi	r31, 0x00	; 0
     a7c:	35 96       	adiw	r30, 0x05	; 5
     a7e:	ee 0f       	add	r30, r30
     a80:	ff 1f       	adc	r31, r31
     a82:	ea 0d       	add	r30, r10
     a84:	fb 1d       	adc	r31, r11
     a86:	df 01       	movw	r26, r30
     a88:	11 97       	sbiw	r26, 0x01	; 1
     a8a:	60 81       	ld	r22, Z
     a8c:	8c 91       	ld	r24, X
     a8e:	0e 94 39 04 	call	0x872	; 0x872 <_Z9hexToBytecc>
	
	if(checksum != 0)
     a92:	8f 0d       	add	r24, r15
     a94:	41 f0       	breq	.+16     	; 0xaa6 <_Z14programHexLinePc+0xd4>
	{
		USART_TransmitString(USARTD0, "\n\rChecksum error while receiving program\n\rResetting");
     a96:	66 ee       	ldi	r22, 0xE6	; 230
     a98:	70 e2       	ldi	r23, 0x20	; 32
     a9a:	80 ea       	ldi	r24, 0xA0	; 160
     a9c:	99 e0       	ldi	r25, 0x09	; 9
     a9e:	0e 94 94 09 	call	0x1328	; 0x1328 <_Z20USART_TransmitStringR12USART_structPKc>
		//USB_TransmitString("\n\rChecksum error while receiving program\n\rResetting");
		resetDevice();
     aa2:	0e 94 4a 04 	call	0x894	; 0x894 <_Z11resetDevicev>
		return;
	}
	
	USART_TransmitString(USARTD0, "\r\nReceived: ");
     aa6:	6a e1       	ldi	r22, 0x1A	; 26
     aa8:	71 e2       	ldi	r23, 0x21	; 33
     aaa:	80 ea       	ldi	r24, 0xA0	; 160
     aac:	99 e0       	ldi	r25, 0x09	; 9
     aae:	0e 94 94 09 	call	0x1328	; 0x1328 <_Z20USART_TransmitStringR12USART_structPKc>
	USART_Transmit(USARTD0, line, 11+2*byteCount);
     ab2:	47 2d       	mov	r20, r7
     ab4:	44 0f       	add	r20, r20
     ab6:	45 5f       	subi	r20, 0xF5	; 245
     ab8:	b5 01       	movw	r22, r10
     aba:	80 ea       	ldi	r24, 0xA0	; 160
     abc:	99 e0       	ldi	r25, 0x09	; 9
     abe:	0e 94 b0 09 	call	0x1360	; 0x1360 <_Z14USART_TransmitR12USART_structPKch>
	
	//USB_TransmitString("\r\nReceived: ");
	//USB_Transmit(line, 11+2*byteCount);
		
	programFlash(byteCount, ((uint16_t)(address_H << 8)) | address_L, recordType, data);
     ac2:	6e 2d       	mov	r22, r14
     ac4:	70 e0       	ldi	r23, 0x00	; 0
     ac6:	75 29       	or	r23, r5
     ac8:	9e 01       	movw	r18, r28
     aca:	2f 5f       	subi	r18, 0xFF	; 255
     acc:	3f 4f       	sbci	r19, 0xFF	; 255
     ace:	46 2d       	mov	r20, r6
     ad0:	87 2d       	mov	r24, r7
     ad2:	0e 94 51 04 	call	0x8a2	; 0x8a2 <_Z12programFlashhjhPh>
}
     ad6:	60 96       	adiw	r28, 0x10	; 16
     ad8:	cd bf       	out	0x3d, r28	; 61
     ada:	de bf       	out	0x3e, r29	; 62
     adc:	df 91       	pop	r29
     ade:	cf 91       	pop	r28
     ae0:	1f 91       	pop	r17
     ae2:	0f 91       	pop	r16
     ae4:	ff 90       	pop	r15
     ae6:	ef 90       	pop	r14
     ae8:	df 90       	pop	r13
     aea:	cf 90       	pop	r12
     aec:	bf 90       	pop	r11
     aee:	af 90       	pop	r10
     af0:	9f 90       	pop	r9
     af2:	8f 90       	pop	r8
     af4:	7f 90       	pop	r7
     af6:	6f 90       	pop	r6
     af8:	5f 90       	pop	r5
     afa:	08 95       	ret

00000afc <_Z17receiveHexFileUSBv>:
		break;
	}
}

void receiveHexFileUSB()
{
     afc:	cf 93       	push	r28
     afe:	df 93       	push	r29
     b00:	cd b7       	in	r28, 0x3d	; 61
     b02:	de b7       	in	r29, 0x3e	; 62
     b04:	e2 97       	sbiw	r28, 0x32	; 50
     b06:	cd bf       	out	0x3d, r28	; 61
     b08:	de bf       	out	0x3e, r29	; 62
     b0a:	ce 01       	movw	r24, r28
     b0c:	01 96       	adiw	r24, 0x01	; 1
     b0e:	6c 01       	movw	r12, r24
     b10:	7e 01       	movw	r14, r28
     b12:	93 e3       	ldi	r25, 0x33	; 51
     b14:	e9 0e       	add	r14, r25
     b16:	f1 1c       	adc	r15, r1
     b18:	86 01       	movw	r16, r12
	while(true)
	{
		// receive a line of the hex file
		for(uint8_t i = 0; i < 50; i++)
		{
			char c = USART_Receive(USARTD0);
     b1a:	80 ea       	ldi	r24, 0xA0	; 160
     b1c:	99 e0       	ldi	r25, 0x09	; 9
     b1e:	0e 94 6c 09 	call	0x12d8	; 0x12d8 <_Z13USART_ReceiveR12USART_struct>
     b22:	98 01       	movw	r18, r16
     b24:	2c 19       	sub	r18, r12
     b26:	3d 09       	sbc	r19, r13
			buff[i] = c;
     b28:	f8 01       	movw	r30, r16
     b2a:	81 93       	st	Z+, r24
     b2c:	8f 01       	movw	r16, r30
			if(c == '\n')
     b2e:	8a 30       	cpi	r24, 0x0A	; 10
     b30:	41 f4       	brne	.+16     	; 0xb42 <_Z17receiveHexFileUSBv+0x46>
			{
				buff[i+1] = '\0';
     b32:	e2 e0       	ldi	r30, 0x02	; 2
     b34:	f0 e0       	ldi	r31, 0x00	; 0
     b36:	ec 0f       	add	r30, r28
     b38:	fd 1f       	adc	r31, r29
     b3a:	e2 0f       	add	r30, r18
     b3c:	f3 1f       	adc	r31, r19
     b3e:	10 82       	st	Z, r1
				break;
     b40:	03 c0       	rjmp	.+6      	; 0xb48 <_Z17receiveHexFileUSBv+0x4c>
	char buff[50];

	while(true)
	{
		// receive a line of the hex file
		for(uint8_t i = 0; i < 50; i++)
     b42:	ee 15       	cp	r30, r14
     b44:	ff 05       	cpc	r31, r15
     b46:	49 f7       	brne	.-46     	; 0xb1a <_Z17receiveHexFileUSBv+0x1e>
			{
				buff[i+1] = '\0';
				break;
			}
		}
		programHexLine(buff);
     b48:	c6 01       	movw	r24, r12
     b4a:	0e 94 e9 04 	call	0x9d2	; 0x9d2 <_Z14programHexLinePc>

void receiveHexFileUSB()
{
	char buff[50];

	while(true)
     b4e:	e4 cf       	rjmp	.-56     	; 0xb18 <_Z17receiveHexFileUSBv+0x1c>

00000b50 <_Z10getUsbBootv>:
	// let the watchdog time out
	while(true);
}

void getUsbBoot()
{
     b50:	0f 93       	push	r16
     b52:	1f 93       	push	r17
     b54:	cf 93       	push	r28
     b56:	df 93       	push	r29
     b58:	c0 e1       	ldi	r28, 0x10	; 16
     b5a:	d7 e2       	ldi	r29, 0x27	; 39
	bool timeout = true;
	char* check = "ABCD";

	for(uint16_t t = 0; t < 10000; t++)
	{
		if(USART_Available(USARTD0))
     b5c:	80 ea       	ldi	r24, 0xA0	; 160
     b5e:	99 e0       	ldi	r25, 0x09	; 9
     b60:	0e 94 8e 09 	call	0x131c	; 0x131c <_Z15USART_AvailableR12USART_struct>
     b64:	81 11       	cpse	r24, r1
     b66:	0c c0       	rjmp	.+24     	; 0xb80 <_Z10getUsbBootv+0x30>
		{
			timeout = false;
			break;
		}
		if(TWI_RecievedAddress(TWIC))
     b68:	80 e8       	ldi	r24, 0x80	; 128
     b6a:	94 e0       	ldi	r25, 0x04	; 4
     b6c:	0e 94 7d 07 	call	0xefa	; 0xefa <_Z19TWI_RecievedAddressR10TWI_struct>
     b70:	81 11       	cpse	r24, r1
     b72:	22 c0       	rjmp	.+68     	; 0xbb8 <_Z10getUsbBootv+0x68>
	#else
		//round up by default
		__ticks_dc = (uint32_t)(ceil(fabs(__tmp)));
	#endif

	__builtin_avr_delay_cycles(__ticks_dc);
     b74:	86 ef       	ldi	r24, 0xF6	; 246
     b76:	8a 95       	dec	r24
     b78:	f1 f7       	brne	.-4      	; 0xb76 <_Z10getUsbBootv+0x26>
     b7a:	21 97       	sbiw	r28, 0x01	; 1
void getUsbBoot()
{
	bool timeout = true;
	char* check = "ABCD";

	for(uint16_t t = 0; t < 10000; t++)
     b7c:	79 f7       	brne	.-34     	; 0xb5c <_Z10getUsbBootv+0xc>
     b7e:	1c c0       	rjmp	.+56     	; 0xbb8 <_Z10getUsbBootv+0x68>
     b80:	c7 e2       	ldi	r28, 0x27	; 39
     b82:	d1 e2       	ldi	r29, 0x21	; 33
     b84:	0b e2       	ldi	r16, 0x2B	; 43
     b86:	11 e2       	ldi	r17, 0x21	; 33
	if(timeout)
	return;

	for(uint8_t i = 0; i < 4; i++)
	{
		char c = USART_Receive(USARTD0);
     b88:	80 ea       	ldi	r24, 0xA0	; 160
     b8a:	99 e0       	ldi	r25, 0x09	; 9
     b8c:	0e 94 6c 09 	call	0x12d8	; 0x12d8 <_Z13USART_ReceiveR12USART_struct>
		//USART0_Transmit(c);
		if(c != check[i])
     b90:	99 91       	ld	r25, Y+
     b92:	89 13       	cpse	r24, r25
     b94:	11 c0       	rjmp	.+34     	; 0xbb8 <_Z10getUsbBootv+0x68>
	}

	if(timeout)
	return;

	for(uint8_t i = 0; i < 4; i++)
     b96:	c0 17       	cp	r28, r16
     b98:	d1 07       	cpc	r29, r17
     b9a:	b1 f7       	brne	.-20     	; 0xb88 <_Z10getUsbBootv+0x38>
		if(c != check[i])
		return;
	}


	switch(USART_Receive(USARTD0))
     b9c:	80 ea       	ldi	r24, 0xA0	; 160
     b9e:	99 e0       	ldi	r25, 0x09	; 9
     ba0:	0e 94 6c 09 	call	0x12d8	; 0x12d8 <_Z13USART_ReceiveR12USART_struct>
     ba4:	85 35       	cpi	r24, 0x55	; 85
     ba6:	41 f4       	brne	.+16     	; 0xbb8 <_Z10getUsbBootv+0x68>
	{
		case 'U':
		// upload hex file via usb
		USART_TransmitString(USARTD0,"Receiving program via UART\n\r");
     ba8:	6c e2       	ldi	r22, 0x2C	; 44
     baa:	71 e2       	ldi	r23, 0x21	; 33
     bac:	80 ea       	ldi	r24, 0xA0	; 160
     bae:	99 e0       	ldi	r25, 0x09	; 9
     bb0:	0e 94 94 09 	call	0x1328	; 0x1328 <_Z20USART_TransmitStringR12USART_structPKc>
		//USB_TransmitString("Receiving program via UART\n\r");
		receiveHexFileUSB();
     bb4:	0e 94 7e 05 	call	0xafc	; 0xafc <_Z17receiveHexFileUSBv>
		break;
		default:
		break;
	}
}
     bb8:	df 91       	pop	r29
     bba:	cf 91       	pop	r28
     bbc:	1f 91       	pop	r17
     bbe:	0f 91       	pop	r16
     bc0:	08 95       	ret

00000bc2 <_Z17receiveHexFileI2CPFvvE>:
		programHexLine(buff);
	}
}

void receiveHexFileI2C(void (*cb)())
{
     bc2:	0f 93       	push	r16
     bc4:	1f 93       	push	r17
     bc6:	cf 93       	push	r28
     bc8:	df 93       	push	r29
     bca:	cd b7       	in	r28, 0x3d	; 61
     bcc:	de b7       	in	r29, 0x3e	; 62
     bce:	e2 97       	sbiw	r28, 0x32	; 50
     bd0:	cd bf       	out	0x3d, r28	; 61
     bd2:	de bf       	out	0x3e, r29	; 62
     bd4:	8c 01       	movw	r16, r24
	char buff[50];

	while(true)
	{
		USART_TransmitString(USARTD0, "\n\rtest4\n\r");
     bd6:	69 e4       	ldi	r22, 0x49	; 73
     bd8:	71 e2       	ldi	r23, 0x21	; 33
     bda:	80 ea       	ldi	r24, 0xA0	; 160
     bdc:	99 e0       	ldi	r25, 0x09	; 9
     bde:	0e 94 94 09 	call	0x1328	; 0x1328 <_Z20USART_TransmitStringR12USART_structPKc>
		// receive a line of the hex file
		TWI_ReceivePacket(TWIC,(uint8_t*)buff, 50);
     be2:	42 e3       	ldi	r20, 0x32	; 50
     be4:	be 01       	movw	r22, r28
     be6:	6f 5f       	subi	r22, 0xFF	; 255
     be8:	7f 4f       	sbci	r23, 0xFF	; 255
     bea:	80 e8       	ldi	r24, 0x80	; 128
     bec:	94 e0       	ldi	r25, 0x04	; 4
     bee:	0e 94 89 07 	call	0xf12	; 0xf12 <_Z17TWI_ReceivePacketR10TWI_structPhh>
		
		if(buff[0] == 's') { cb(); } //voer callback uit: stepper-test modus
     bf2:	89 81       	ldd	r24, Y+1	; 0x01
     bf4:	83 37       	cpi	r24, 0x73	; 115
     bf6:	11 f4       	brne	.+4      	; 0xbfc <_Z17receiveHexFileI2CPFvvE+0x3a>
     bf8:	f8 01       	movw	r30, r16
     bfa:	19 95       	eicall
			
		if(buff[0] != ':')
     bfc:	89 81       	ldd	r24, Y+1	; 0x01
     bfe:	8a 33       	cpi	r24, 0x3A	; 58
     c00:	39 f0       	breq	.+14     	; 0xc10 <_Z17receiveHexFileI2CPFvvE+0x4e>
		{
			USART_TransmitString(USARTD0,"Error while receiving program");
     c02:	63 e5       	ldi	r22, 0x53	; 83
     c04:	71 e2       	ldi	r23, 0x21	; 33
     c06:	80 ea       	ldi	r24, 0xA0	; 160
     c08:	99 e0       	ldi	r25, 0x09	; 9
     c0a:	0e 94 94 09 	call	0x1328	; 0x1328 <_Z20USART_TransmitStringR12USART_structPKc>
			return;
     c0e:	0b c0       	rjmp	.+22     	; 0xc26 <_Z17receiveHexFileI2CPFvvE+0x64>
		}
		USART_TransmitString(USARTD0,"test");
     c10:	61 e7       	ldi	r22, 0x71	; 113
     c12:	71 e2       	ldi	r23, 0x21	; 33
     c14:	80 ea       	ldi	r24, 0xA0	; 160
     c16:	99 e0       	ldi	r25, 0x09	; 9
     c18:	0e 94 94 09 	call	0x1328	; 0x1328 <_Z20USART_TransmitStringR12USART_structPKc>
		programHexLine(buff);
     c1c:	ce 01       	movw	r24, r28
     c1e:	01 96       	adiw	r24, 0x01	; 1
     c20:	0e 94 e9 04 	call	0x9d2	; 0x9d2 <_Z14programHexLinePc>

void receiveHexFileI2C(void (*cb)())
{
	char buff[50];

	while(true)
     c24:	d8 cf       	rjmp	.-80     	; 0xbd6 <_Z17receiveHexFileI2CPFvvE+0x14>
			return;
		}
		USART_TransmitString(USARTD0,"test");
		programHexLine(buff);
	}
}
     c26:	e2 96       	adiw	r28, 0x32	; 50
     c28:	cd bf       	out	0x3d, r28	; 61
     c2a:	de bf       	out	0x3e, r29	; 62
     c2c:	df 91       	pop	r29
     c2e:	cf 91       	pop	r28
     c30:	1f 91       	pop	r17
     c32:	0f 91       	pop	r16
     c34:	08 95       	ret

00000c36 <_Z8SPI_InitR10SPI_struct>:
#include <util/delay.h>

void SPI_Init(SPI_struct &SPI)
{
	//enable SPI, Set master mode, 8MHz default Clock
	SPIC.CTRL = SPI_ENABLE_bm | SPI_MASTER_bm | SPI_MODE_0_gc | SPI_PRESCALER0_bm;
     c36:	81 e5       	ldi	r24, 0x51	; 81
     c38:	80 93 c0 08 	sts	0x08C0, r24	; 0x8008c0 <__TEXT_REGION_LENGTH__+0x7008c0>
     c3c:	08 95       	ret

00000c3e <_Z14SPI_TrancieverR10SPI_structh>:
}

uint8_t SPI_Tranciever(SPI_struct &SPI, uint8_t data)
{
     c3e:	fc 01       	movw	r30, r24
	//load data into data buffer
	SPI.DATA = data;
     c40:	63 83       	std	Z+3, r22	; 0x03
	//wait for transmit complete
	while (!(SPI.STATUS & (1<<SPI_IF_bp)));
     c42:	92 81       	ldd	r25, Z+2	; 0x02
     c44:	99 23       	and	r25, r25
     c46:	ec f7       	brge	.-6      	; 0xc42 <_Z14SPI_TrancieverR10SPI_structh+0x4>
	
	//return received data
	return(SPI.DATA);		
     c48:	83 81       	ldd	r24, Z+3	; 0x03
}
     c4a:	08 95       	ret

00000c4c <_Z11SS_set_highR11PORT_structh>:

void SS_set_high(PORT_struct &PORT, uint8_t pin)
{
	PORT.OUTSET = (1<<pin);
     c4c:	21 e0       	ldi	r18, 0x01	; 1
     c4e:	30 e0       	ldi	r19, 0x00	; 0
     c50:	02 c0       	rjmp	.+4      	; 0xc56 <_Z11SS_set_highR11PORT_structh+0xa>
     c52:	22 0f       	add	r18, r18
     c54:	33 1f       	adc	r19, r19
     c56:	6a 95       	dec	r22
     c58:	e2 f7       	brpl	.-8      	; 0xc52 <_Z11SS_set_highR11PORT_structh+0x6>
     c5a:	fc 01       	movw	r30, r24
     c5c:	25 83       	std	Z+5, r18	; 0x05
     c5e:	fa e0       	ldi	r31, 0x0A	; 10
     c60:	fa 95       	dec	r31
     c62:	f1 f7       	brne	.-4      	; 0xc60 <_Z11SS_set_highR11PORT_structh+0x14>
     c64:	00 c0       	rjmp	.+0      	; 0xc66 <_Z11SS_set_highR11PORT_structh+0x1a>
     c66:	08 95       	ret

00000c68 <_Z10SS_set_lowR11PORT_structh>:
	_delay_us(1);
}

void SS_set_low(PORT_struct &PORT, uint8_t pin)
{
	PORT.OUTCLR = (1<<pin);
     c68:	21 e0       	ldi	r18, 0x01	; 1
     c6a:	30 e0       	ldi	r19, 0x00	; 0
     c6c:	02 c0       	rjmp	.+4      	; 0xc72 <_Z10SS_set_lowR11PORT_structh+0xa>
     c6e:	22 0f       	add	r18, r18
     c70:	33 1f       	adc	r19, r19
     c72:	6a 95       	dec	r22
     c74:	e2 f7       	brpl	.-8      	; 0xc6e <_Z10SS_set_lowR11PORT_structh+0x6>
     c76:	fc 01       	movw	r30, r24
     c78:	26 83       	std	Z+6, r18	; 0x06
     c7a:	fa e0       	ldi	r31, 0x0A	; 10
     c7c:	fa 95       	dec	r31
     c7e:	f1 f7       	brne	.-4      	; 0xc7c <_Z10SS_set_lowR11PORT_structh+0x14>
     c80:	00 c0       	rjmp	.+0      	; 0xc82 <_Z10SS_set_lowR11PORT_structh+0x1a>
     c82:	08 95       	ret

00000c84 <_Z12SPI_CAN_ReadR10SPI_structhh>:
	_delay_us(1);
}

uint8_t SPI_CAN_Read(SPI_struct &SPI, uint8_t address, uint8_t read_cmd)
{
     c84:	1f 93       	push	r17
     c86:	cf 93       	push	r28
     c88:	df 93       	push	r29
     c8a:	ec 01       	movw	r28, r24
     c8c:	16 2f       	mov	r17, r22
	SPI_Tranciever(SPI, read_cmd);
     c8e:	64 2f       	mov	r22, r20
     c90:	0e 94 1f 06 	call	0xc3e	; 0xc3e <_Z14SPI_TrancieverR10SPI_structh>
	SPI_Tranciever(SPI, address);
     c94:	61 2f       	mov	r22, r17
     c96:	ce 01       	movw	r24, r28
     c98:	0e 94 1f 06 	call	0xc3e	; 0xc3e <_Z14SPI_TrancieverR10SPI_structh>
	uint8_t data = SPI_Tranciever(SPI, 0x00);
     c9c:	60 e0       	ldi	r22, 0x00	; 0
     c9e:	ce 01       	movw	r24, r28
     ca0:	0e 94 1f 06 	call	0xc3e	; 0xc3e <_Z14SPI_TrancieverR10SPI_structh>
	return data;
}
     ca4:	df 91       	pop	r29
     ca6:	cf 91       	pop	r28
     ca8:	1f 91       	pop	r17
     caa:	08 95       	ret

00000cac <_Z13SPI_CAN_writeR10SPI_structhhh>:

void SPI_CAN_write(SPI_struct &SPI, uint8_t address, uint8_t data, uint8_t write_cmd)
{
     cac:	0f 93       	push	r16
     cae:	1f 93       	push	r17
     cb0:	cf 93       	push	r28
     cb2:	df 93       	push	r29
     cb4:	ec 01       	movw	r28, r24
     cb6:	06 2f       	mov	r16, r22
     cb8:	14 2f       	mov	r17, r20
	SPI_Tranciever(SPI, write_cmd);
     cba:	62 2f       	mov	r22, r18
     cbc:	0e 94 1f 06 	call	0xc3e	; 0xc3e <_Z14SPI_TrancieverR10SPI_structh>
	SPI_Tranciever(SPI, address);
     cc0:	60 2f       	mov	r22, r16
     cc2:	ce 01       	movw	r24, r28
     cc4:	0e 94 1f 06 	call	0xc3e	; 0xc3e <_Z14SPI_TrancieverR10SPI_structh>
	SPI_Tranciever(SPI, data);
     cc8:	61 2f       	mov	r22, r17
     cca:	ce 01       	movw	r24, r28
     ccc:	0e 94 1f 06 	call	0xc3e	; 0xc3e <_Z14SPI_TrancieverR10SPI_structh>
}
     cd0:	df 91       	pop	r29
     cd2:	cf 91       	pop	r28
     cd4:	1f 91       	pop	r17
     cd6:	0f 91       	pop	r16
     cd8:	08 95       	ret

00000cda <_Z13TWI_HandleISRPFvvEPFvhER10TWI_struct>:
ISR(TWIF_TWIS_vect) { //slave
	TWI_HandleISR(TWIF_TxCallback, TWIF_RxCallback, TWIF);
}


void TWI_HandleISR(void (*TxCallback)(), void (*RxCallback)(uint8_t), TWI_struct &TWI) {
     cda:	fc 01       	movw	r30, r24
	if((TWI.SLAVE.STATUS &(1<<TWI_SLAVE_DIR_bp))) { //read operation
     cdc:	da 01       	movw	r26, r20
     cde:	1a 96       	adiw	r26, 0x0a	; 10
     ce0:	9c 91       	ld	r25, X
     ce2:	91 ff       	sbrs	r25, 1
     ce4:	04 c0       	rjmp	.+8      	; 0xcee <_Z13TWI_HandleISRPFvvEPFvhER10TWI_struct+0x14>
		if (!TxCallback) { return; } //callback is niet ingesteld
     ce6:	30 97       	sbiw	r30, 0x00	; 0
     ce8:	49 f0       	breq	.+18     	; 0xcfc <_Z13TWI_HandleISRPFvvEPFvhER10TWI_struct+0x22>
		TxCallback();
     cea:	19 95       	eicall
     cec:	08 95       	ret
	} else { //write operation
		if (!RxCallback) { return; } //callback is niet ingesteld
     cee:	61 15       	cp	r22, r1
     cf0:	71 05       	cpc	r23, r1
     cf2:	21 f0       	breq	.+8      	; 0xcfc <_Z13TWI_HandleISRPFvvEPFvhER10TWI_struct+0x22>
		RxCallback(TWI.SLAVE.DATA); //ongetest
     cf4:	fa 01       	movw	r30, r20
     cf6:	84 85       	ldd	r24, Z+12	; 0x0c
     cf8:	fb 01       	movw	r30, r22
     cfa:	19 95       	eicall
     cfc:	08 95       	ret

00000cfe <__vector_12>:
void (*TWIF_TxCallback)();
void (*TWIC_RxCallback)(uint8_t); //onReceive, data wordt/is ontvangen van master
void (*TWID_RxCallback)(uint8_t); //via callbacks ongetest
void (*TWIE_RxCallback)(uint8_t);
void (*TWIF_RxCallback)(uint8_t);
ISR(TWIC_TWIS_vect) { //slave
     cfe:	1f 92       	push	r1
     d00:	0f 92       	push	r0
     d02:	0f b6       	in	r0, 0x3f	; 63
     d04:	0f 92       	push	r0
     d06:	11 24       	eor	r1, r1
     d08:	08 b6       	in	r0, 0x38	; 56
     d0a:	0f 92       	push	r0
     d0c:	18 be       	out	0x38, r1	; 56
     d0e:	09 b6       	in	r0, 0x39	; 57
     d10:	0f 92       	push	r0
     d12:	19 be       	out	0x39, r1	; 57
     d14:	0b b6       	in	r0, 0x3b	; 59
     d16:	0f 92       	push	r0
     d18:	1b be       	out	0x3b, r1	; 59
     d1a:	2f 93       	push	r18
     d1c:	3f 93       	push	r19
     d1e:	4f 93       	push	r20
     d20:	5f 93       	push	r21
     d22:	6f 93       	push	r22
     d24:	7f 93       	push	r23
     d26:	8f 93       	push	r24
     d28:	9f 93       	push	r25
     d2a:	af 93       	push	r26
     d2c:	bf 93       	push	r27
     d2e:	ef 93       	push	r30
     d30:	ff 93       	push	r31
	TWI_HandleISR(TWIC_TxCallback, TWIC_RxCallback, TWIC);
     d32:	60 91 a5 23 	lds	r22, 0x23A5	; 0x8023a5 <TWIC_RxCallback>
     d36:	70 91 a6 23 	lds	r23, 0x23A6	; 0x8023a6 <TWIC_RxCallback+0x1>
     d3a:	40 e8       	ldi	r20, 0x80	; 128
     d3c:	54 e0       	ldi	r21, 0x04	; 4
     d3e:	80 91 ad 23 	lds	r24, 0x23AD	; 0x8023ad <TWIC_TxCallback>
     d42:	90 91 ae 23 	lds	r25, 0x23AE	; 0x8023ae <TWIC_TxCallback+0x1>
     d46:	0e 94 6d 06 	call	0xcda	; 0xcda <_Z13TWI_HandleISRPFvvEPFvhER10TWI_struct>
}
     d4a:	ff 91       	pop	r31
     d4c:	ef 91       	pop	r30
     d4e:	bf 91       	pop	r27
     d50:	af 91       	pop	r26
     d52:	9f 91       	pop	r25
     d54:	8f 91       	pop	r24
     d56:	7f 91       	pop	r23
     d58:	6f 91       	pop	r22
     d5a:	5f 91       	pop	r21
     d5c:	4f 91       	pop	r20
     d5e:	3f 91       	pop	r19
     d60:	2f 91       	pop	r18
     d62:	0f 90       	pop	r0
     d64:	0b be       	out	0x3b, r0	; 59
     d66:	0f 90       	pop	r0
     d68:	09 be       	out	0x39, r0	; 57
     d6a:	0f 90       	pop	r0
     d6c:	08 be       	out	0x38, r0	; 56
     d6e:	0f 90       	pop	r0
     d70:	0f be       	out	0x3f, r0	; 63
     d72:	0f 90       	pop	r0
     d74:	1f 90       	pop	r1
     d76:	18 95       	reti

00000d78 <__vector_75>:
ISR(TWID_TWIS_vect) { //slave
     d78:	1f 92       	push	r1
     d7a:	0f 92       	push	r0
     d7c:	0f b6       	in	r0, 0x3f	; 63
     d7e:	0f 92       	push	r0
     d80:	11 24       	eor	r1, r1
     d82:	08 b6       	in	r0, 0x38	; 56
     d84:	0f 92       	push	r0
     d86:	18 be       	out	0x38, r1	; 56
     d88:	09 b6       	in	r0, 0x39	; 57
     d8a:	0f 92       	push	r0
     d8c:	19 be       	out	0x39, r1	; 57
     d8e:	0b b6       	in	r0, 0x3b	; 59
     d90:	0f 92       	push	r0
     d92:	1b be       	out	0x3b, r1	; 59
     d94:	2f 93       	push	r18
     d96:	3f 93       	push	r19
     d98:	4f 93       	push	r20
     d9a:	5f 93       	push	r21
     d9c:	6f 93       	push	r22
     d9e:	7f 93       	push	r23
     da0:	8f 93       	push	r24
     da2:	9f 93       	push	r25
     da4:	af 93       	push	r26
     da6:	bf 93       	push	r27
     da8:	ef 93       	push	r30
     daa:	ff 93       	push	r31
	TWI_HandleISR(TWID_TxCallback, TWID_RxCallback, TWID);
     dac:	60 91 a3 23 	lds	r22, 0x23A3	; 0x8023a3 <TWID_RxCallback>
     db0:	70 91 a4 23 	lds	r23, 0x23A4	; 0x8023a4 <TWID_RxCallback+0x1>
     db4:	40 e9       	ldi	r20, 0x90	; 144
     db6:	54 e0       	ldi	r21, 0x04	; 4
     db8:	80 91 ab 23 	lds	r24, 0x23AB	; 0x8023ab <TWID_TxCallback>
     dbc:	90 91 ac 23 	lds	r25, 0x23AC	; 0x8023ac <TWID_TxCallback+0x1>
     dc0:	0e 94 6d 06 	call	0xcda	; 0xcda <_Z13TWI_HandleISRPFvvEPFvhER10TWI_struct>
}
     dc4:	ff 91       	pop	r31
     dc6:	ef 91       	pop	r30
     dc8:	bf 91       	pop	r27
     dca:	af 91       	pop	r26
     dcc:	9f 91       	pop	r25
     dce:	8f 91       	pop	r24
     dd0:	7f 91       	pop	r23
     dd2:	6f 91       	pop	r22
     dd4:	5f 91       	pop	r21
     dd6:	4f 91       	pop	r20
     dd8:	3f 91       	pop	r19
     dda:	2f 91       	pop	r18
     ddc:	0f 90       	pop	r0
     dde:	0b be       	out	0x3b, r0	; 59
     de0:	0f 90       	pop	r0
     de2:	09 be       	out	0x39, r0	; 57
     de4:	0f 90       	pop	r0
     de6:	08 be       	out	0x38, r0	; 56
     de8:	0f 90       	pop	r0
     dea:	0f be       	out	0x3f, r0	; 63
     dec:	0f 90       	pop	r0
     dee:	1f 90       	pop	r1
     df0:	18 95       	reti

00000df2 <__vector_45>:
ISR(TWIE_TWIS_vect) { //slave
     df2:	1f 92       	push	r1
     df4:	0f 92       	push	r0
     df6:	0f b6       	in	r0, 0x3f	; 63
     df8:	0f 92       	push	r0
     dfa:	11 24       	eor	r1, r1
     dfc:	08 b6       	in	r0, 0x38	; 56
     dfe:	0f 92       	push	r0
     e00:	18 be       	out	0x38, r1	; 56
     e02:	09 b6       	in	r0, 0x39	; 57
     e04:	0f 92       	push	r0
     e06:	19 be       	out	0x39, r1	; 57
     e08:	0b b6       	in	r0, 0x3b	; 59
     e0a:	0f 92       	push	r0
     e0c:	1b be       	out	0x3b, r1	; 59
     e0e:	2f 93       	push	r18
     e10:	3f 93       	push	r19
     e12:	4f 93       	push	r20
     e14:	5f 93       	push	r21
     e16:	6f 93       	push	r22
     e18:	7f 93       	push	r23
     e1a:	8f 93       	push	r24
     e1c:	9f 93       	push	r25
     e1e:	af 93       	push	r26
     e20:	bf 93       	push	r27
     e22:	ef 93       	push	r30
     e24:	ff 93       	push	r31
	TWI_HandleISR(TWIE_TxCallback, TWIE_RxCallback, TWIE);
     e26:	60 91 a1 23 	lds	r22, 0x23A1	; 0x8023a1 <TWIE_RxCallback>
     e2a:	70 91 a2 23 	lds	r23, 0x23A2	; 0x8023a2 <TWIE_RxCallback+0x1>
     e2e:	40 ea       	ldi	r20, 0xA0	; 160
     e30:	54 e0       	ldi	r21, 0x04	; 4
     e32:	80 91 a9 23 	lds	r24, 0x23A9	; 0x8023a9 <TWIE_TxCallback>
     e36:	90 91 aa 23 	lds	r25, 0x23AA	; 0x8023aa <TWIE_TxCallback+0x1>
     e3a:	0e 94 6d 06 	call	0xcda	; 0xcda <_Z13TWI_HandleISRPFvvEPFvhER10TWI_struct>
}
     e3e:	ff 91       	pop	r31
     e40:	ef 91       	pop	r30
     e42:	bf 91       	pop	r27
     e44:	af 91       	pop	r26
     e46:	9f 91       	pop	r25
     e48:	8f 91       	pop	r24
     e4a:	7f 91       	pop	r23
     e4c:	6f 91       	pop	r22
     e4e:	5f 91       	pop	r21
     e50:	4f 91       	pop	r20
     e52:	3f 91       	pop	r19
     e54:	2f 91       	pop	r18
     e56:	0f 90       	pop	r0
     e58:	0b be       	out	0x3b, r0	; 59
     e5a:	0f 90       	pop	r0
     e5c:	09 be       	out	0x39, r0	; 57
     e5e:	0f 90       	pop	r0
     e60:	08 be       	out	0x38, r0	; 56
     e62:	0f 90       	pop	r0
     e64:	0f be       	out	0x3f, r0	; 63
     e66:	0f 90       	pop	r0
     e68:	1f 90       	pop	r1
     e6a:	18 95       	reti

00000e6c <__vector_106>:
ISR(TWIF_TWIS_vect) { //slave
     e6c:	1f 92       	push	r1
     e6e:	0f 92       	push	r0
     e70:	0f b6       	in	r0, 0x3f	; 63
     e72:	0f 92       	push	r0
     e74:	11 24       	eor	r1, r1
     e76:	08 b6       	in	r0, 0x38	; 56
     e78:	0f 92       	push	r0
     e7a:	18 be       	out	0x38, r1	; 56
     e7c:	09 b6       	in	r0, 0x39	; 57
     e7e:	0f 92       	push	r0
     e80:	19 be       	out	0x39, r1	; 57
     e82:	0b b6       	in	r0, 0x3b	; 59
     e84:	0f 92       	push	r0
     e86:	1b be       	out	0x3b, r1	; 59
     e88:	2f 93       	push	r18
     e8a:	3f 93       	push	r19
     e8c:	4f 93       	push	r20
     e8e:	5f 93       	push	r21
     e90:	6f 93       	push	r22
     e92:	7f 93       	push	r23
     e94:	8f 93       	push	r24
     e96:	9f 93       	push	r25
     e98:	af 93       	push	r26
     e9a:	bf 93       	push	r27
     e9c:	ef 93       	push	r30
     e9e:	ff 93       	push	r31
	TWI_HandleISR(TWIF_TxCallback, TWIF_RxCallback, TWIF);
     ea0:	60 91 9f 23 	lds	r22, 0x239F	; 0x80239f <TWIF_RxCallback>
     ea4:	70 91 a0 23 	lds	r23, 0x23A0	; 0x8023a0 <TWIF_RxCallback+0x1>
     ea8:	40 eb       	ldi	r20, 0xB0	; 176
     eaa:	54 e0       	ldi	r21, 0x04	; 4
     eac:	80 91 a7 23 	lds	r24, 0x23A7	; 0x8023a7 <TWIF_TxCallback>
     eb0:	90 91 a8 23 	lds	r25, 0x23A8	; 0x8023a8 <TWIF_TxCallback+0x1>
     eb4:	0e 94 6d 06 	call	0xcda	; 0xcda <_Z13TWI_HandleISRPFvvEPFvhER10TWI_struct>
}
     eb8:	ff 91       	pop	r31
     eba:	ef 91       	pop	r30
     ebc:	bf 91       	pop	r27
     ebe:	af 91       	pop	r26
     ec0:	9f 91       	pop	r25
     ec2:	8f 91       	pop	r24
     ec4:	7f 91       	pop	r23
     ec6:	6f 91       	pop	r22
     ec8:	5f 91       	pop	r21
     eca:	4f 91       	pop	r20
     ecc:	3f 91       	pop	r19
     ece:	2f 91       	pop	r18
     ed0:	0f 90       	pop	r0
     ed2:	0b be       	out	0x3b, r0	; 59
     ed4:	0f 90       	pop	r0
     ed6:	09 be       	out	0x39, r0	; 57
     ed8:	0f 90       	pop	r0
     eda:	08 be       	out	0x38, r0	; 56
     edc:	0f 90       	pop	r0
     ede:	0f be       	out	0x3f, r0	; 63
     ee0:	0f 90       	pop	r0
     ee2:	1f 90       	pop	r1
     ee4:	18 95       	reti

00000ee6 <_Z8TWI_initR10TWI_struct>:
	}
}


void TWI_init(TWI_struct &TWI) //als slave
{
     ee6:	fc 01       	movw	r30, r24
	TWI.SLAVE.CTRLA = (1<<TWI_SLAVE_APIEN_bp)|(1<<TWI_SLAVE_ENABLE_bp)|(1<<TWI_SLAVE_PIEN_bp)|(1<<TWI_SLAVE_PMEN_bp);
     ee8:	8e e1       	ldi	r24, 0x1E	; 30
     eea:	80 87       	std	Z+8, r24	; 0x08
	TWI.SLAVE.CTRLA |= (1<<TWI_SLAVE_DIEN_bp);
     eec:	80 85       	ldd	r24, Z+8	; 0x08
     eee:	80 62       	ori	r24, 0x20	; 32
     ef0:	80 87       	std	Z+8, r24	; 0x08

	//toegevoegd voor TWI_Write(), clear deze bits om het springen naar ISRs uit te schakelen
	TWI.SLAVE.CTRLA |= TWI_MASTER_INTLVL0_bm | TWI_MASTER_INTLVL1_bm; //enable port interrupt high level
     ef2:	80 85       	ldd	r24, Z+8	; 0x08
     ef4:	80 6c       	ori	r24, 0xC0	; 192
     ef6:	80 87       	std	Z+8, r24	; 0x08
     ef8:	08 95       	ret

00000efa <_Z19TWI_RecievedAddressR10TWI_struct>:


bool TWI_RecievedAddress(TWI_struct &TWI)
{
	//valid address received and write operation
	return ((TWI.SLAVE.STATUS &(1<<TWI_SLAVE_APIF_bp)) && !(TWI.SLAVE.STATUS &(1<<TWI_SLAVE_DIR_bp)));
     efa:	fc 01       	movw	r30, r24
     efc:	22 85       	ldd	r18, Z+10	; 0x0a
     efe:	26 ff       	sbrs	r18, 6
     f00:	06 c0       	rjmp	.+12     	; 0xf0e <_Z19TWI_RecievedAddressR10TWI_struct+0x14>
     f02:	82 85       	ldd	r24, Z+10	; 0x0a
     f04:	86 95       	lsr	r24
     f06:	81 70       	andi	r24, 0x01	; 1
     f08:	91 e0       	ldi	r25, 0x01	; 1
     f0a:	89 27       	eor	r24, r25
     f0c:	08 95       	ret
     f0e:	80 e0       	ldi	r24, 0x00	; 0
}
     f10:	08 95       	ret

00000f12 <_Z17TWI_ReceivePacketR10TWI_structPhh>:

//============================================================
//	RECEIVE PACKET : HVWI VERSIE
//============================================================
bool TWI_ReceivePacket(TWI_struct &TWI, uint8_t* buffer, uint8_t bufferLength) {
     f12:	fc 01       	movw	r30, r24
	//variabelen
	volatile static bool bResult;
	volatile static int i;
	//begin bij de eerste ontvangst databuffer index
	i=0;
     f14:	10 92 9d 23 	sts	0x239D, r1	; 0x80239d <_ZZ17TWI_ReceivePacketR10TWI_structPhhE1i>
     f18:	10 92 9e 23 	sts	0x239E, r1	; 0x80239e <_ZZ17TWI_ReceivePacketR10TWI_structPhhE1i+0x1>
	//uitgangspunt: het correct ontvangen van data door de slave vanaf de master is niet gelukt
	bResult = false;
     f1c:	10 92 9c 23 	sts	0x239C, r1	; 0x80239c <__data_end>
	//   TWI.SLAVE.STATUS=TWI_SLAVE_APIF_bm; //hier wordt een '1' weggeschreven in het APIF bit waardoor
	//                                       //dit bit wordt gewist(!), zie datasheet. Alle overige 0-bits
	//                                       //hebben geen invloed op de overige register bits inhoud(!)
	//----------------------------------------------------------------------------------------------------
	//genereer een ack op het ontvangen adres, de master zal nu een eerste databyte zenden
	TWI.SLAVE.STATUS=TWI_SLAVE_APIF_bm;
     f20:	80 e4       	ldi	r24, 0x40	; 64
     f22:	82 87       	std	Z+10, r24	; 0x0a
			break;
		}//if
		//er is een databyte ontvangen
		if ( TWI.SLAVE.STATUS & TWI_SLAVE_DIF_bm ) {
			//er is nog ruimte in de ontvangst buffer
			if ( i <= bufferLength ) {
     f24:	50 e0       	ldi	r21, 0x00	; 0
			else {
				//verlaat de lus (met foutstatus)
				break;
			}//else
			//genereer een ack op het ontvangen databyte, de master zal nu eventueel een volgende databyte zenden
			TWI.SLAVE.STATUS=TWI_SLAVE_DIF_bm;
     f26:	20 e8       	ldi	r18, 0x80	; 128
	//genereer een ack op het ontvangen adres, de master zal nu een eerste databyte zenden
	TWI.SLAVE.STATUS=TWI_SLAVE_APIF_bm;
	//voor altijd doe
	while ( true ) {
		//er is een door de master gegenereerde stop conditie gedetecteerd (want TWI_SLAVE_PIEN_bm in CTRLA is gezet)
		if ( TWI.SLAVE.STATUS & TWI_SLAVE_APIF_bm ) {
     f28:	82 85       	ldd	r24, Z+10	; 0x0a
     f2a:	86 ff       	sbrs	r24, 6
     f2c:	04 c0       	rjmp	.+8      	; 0xf36 <_Z17TWI_ReceivePacketR10TWI_structPhh+0x24>
			//meld een pass
			bResult = true ;
     f2e:	81 e0       	ldi	r24, 0x01	; 1
     f30:	80 93 9c 23 	sts	0x239C, r24	; 0x80239c <__data_end>
			//verlaat de lus
			break;
     f34:	1b c0       	rjmp	.+54     	; 0xf6c <_Z17TWI_ReceivePacketR10TWI_structPhh+0x5a>
		}//if
		//er is een databyte ontvangen
		if ( TWI.SLAVE.STATUS & TWI_SLAVE_DIF_bm ) {
     f36:	82 85       	ldd	r24, Z+10	; 0x0a
     f38:	88 23       	and	r24, r24
     f3a:	b4 f7       	brge	.-20     	; 0xf28 <_Z17TWI_ReceivePacketR10TWI_structPhh+0x16>
			//er is nog ruimte in de ontvangst buffer
			if ( i <= bufferLength ) {
     f3c:	80 91 9d 23 	lds	r24, 0x239D	; 0x80239d <_ZZ17TWI_ReceivePacketR10TWI_structPhhE1i>
     f40:	90 91 9e 23 	lds	r25, 0x239E	; 0x80239e <_ZZ17TWI_ReceivePacketR10TWI_structPhhE1i+0x1>
     f44:	48 17       	cp	r20, r24
     f46:	59 07       	cpc	r21, r25
     f48:	8c f0       	brlt	.+34     	; 0xf6c <_Z17TWI_ReceivePacketR10TWI_structPhh+0x5a>
				//noteer het ontvangen databyte
				buffer[i++] = TWI.SLAVE.DATA;
     f4a:	80 91 9d 23 	lds	r24, 0x239D	; 0x80239d <_ZZ17TWI_ReceivePacketR10TWI_structPhhE1i>
     f4e:	90 91 9e 23 	lds	r25, 0x239E	; 0x80239e <_ZZ17TWI_ReceivePacketR10TWI_structPhhE1i+0x1>
     f52:	dc 01       	movw	r26, r24
     f54:	11 96       	adiw	r26, 0x01	; 1
     f56:	a0 93 9d 23 	sts	0x239D, r26	; 0x80239d <_ZZ17TWI_ReceivePacketR10TWI_structPhhE1i>
     f5a:	b0 93 9e 23 	sts	0x239E, r27	; 0x80239e <_ZZ17TWI_ReceivePacketR10TWI_structPhhE1i+0x1>
     f5e:	34 85       	ldd	r19, Z+12	; 0x0c
     f60:	db 01       	movw	r26, r22
     f62:	a8 0f       	add	r26, r24
     f64:	b9 1f       	adc	r27, r25
     f66:	3c 93       	st	X, r19
			else {
				//verlaat de lus (met foutstatus)
				break;
			}//else
			//genereer een ack op het ontvangen databyte, de master zal nu eventueel een volgende databyte zenden
			TWI.SLAVE.STATUS=TWI_SLAVE_DIF_bm;
     f68:	22 87       	std	Z+10, r18	; 0x0a
     f6a:	de cf       	rjmp	.-68     	; 0xf28 <_Z17TWI_ReceivePacketR10TWI_structPhh+0x16>
		}//if
	}//while
	//rapporteer het resultaat
	return bResult ;
     f6c:	80 91 9c 23 	lds	r24, 0x239C	; 0x80239c <__data_end>
} //TWI_ReceivePacket
     f70:	08 95       	ret

00000f72 <_Z9TWI_WriteR10TWI_structh>:


bool TWI_Write(TWI_struct &TWI, uint8_t byte) //als slave
{
     f72:	fc 01       	movw	r30, r24
	//wait for address received interrupt
	while(!(TWI.SLAVE.STATUS &(1<< TWI_SLAVE_APIF_bp)));
     f74:	82 85       	ldd	r24, Z+10	; 0x0a
     f76:	86 ff       	sbrs	r24, 6
     f78:	fd cf       	rjmp	.-6      	; 0xf74 <_Z9TWI_WriteR10TWI_structh+0x2>

	//check if master read operation
	if( !(TWI.SLAVE.STATUS &(1<<TWI_SLAVE_DIR_bp)) ) {
     f7a:	82 85       	ldd	r24, Z+10	; 0x0a
     f7c:	81 ff       	sbrs	r24, 1
     f7e:	25 c0       	rjmp	.+74     	; 0xfca <_Z9TWI_WriteR10TWI_structh+0x58>
		return false; //master write operation
	}

	while(1) {
		TWI.SLAVE.STATUS |= (1<<TWI_SLAVE_DIF_bp)|(1<<TWI_SLAVE_APIF_bp); //clear interrupts
     f80:	82 85       	ldd	r24, Z+10	; 0x0a
     f82:	80 6c       	ori	r24, 0xC0	; 192
     f84:	82 87       	std	Z+10, r24	; 0x0a

		TWI.SLAVE.DATA = byte;
     f86:	64 87       	std	Z+12, r22	; 0x0c

		//acknowledge and send byte
		TWI.SLAVE.CTRLB &= ~(TWI_SLAVE_ACKACT_bm); //ACK
     f88:	81 85       	ldd	r24, Z+9	; 0x09
     f8a:	8b 7f       	andi	r24, 0xFB	; 251
     f8c:	81 87       	std	Z+9, r24	; 0x09
//		TWI.SLAVE.CTRLB |= (1<<TWI_SLAVE_CMD0_bp)|(1<<TWI_SLAVE_CMD1_bp); //RESPONSE, er komen meer bytes	//<<< gebruik deze voor een toekomstige TWI_SendPacket functie
		TWI.SLAVE.CTRLB |= (1<<TWI_SLAVE_CMD1_bp); //COMPLETE, enige byte wordt verzonden
     f8e:	81 85       	ldd	r24, Z+9	; 0x09
     f90:	82 60       	ori	r24, 0x02	; 2
     f92:	81 87       	std	Z+9, r24	; 0x09

		//wait for transmission completed
		while(TWI.SLAVE.STATUS &(1<<TWI_SLAVE_DIF_bp)) {
     f94:	82 85       	ldd	r24, Z+10	; 0x0a
     f96:	88 23       	and	r24, r24
     f98:	74 f4       	brge	.+28     	; 0xfb6 <_Z9TWI_WriteR10TWI_structh+0x44>
			//check for collisions or bus errors
			if (TWI.SLAVE.STATUS &(1<<TWI_SLAVE_COLL_bp) || TWI.SLAVE.STATUS &(1<<TWI_SLAVE_BUSERR_bp)) {
     f9a:	82 85       	ldd	r24, Z+10	; 0x0a
     f9c:	83 fd       	sbrc	r24, 3
     f9e:	03 c0       	rjmp	.+6      	; 0xfa6 <_Z9TWI_WriteR10TWI_structh+0x34>
     fa0:	82 85       	ldd	r24, Z+10	; 0x0a
     fa2:	82 ff       	sbrs	r24, 2
     fa4:	f7 cf       	rjmp	.-18     	; 0xf94 <_Z9TWI_WriteR10TWI_structh+0x22>
				TWI.SLAVE.STATUS |= (1<<TWI_SLAVE_BUSERR_bp); //clear buserror, collision is cleared automatically
     fa6:	82 85       	ldd	r24, Z+10	; 0x0a
     fa8:	84 60       	ori	r24, 0x04	; 4
     faa:	82 87       	std	Z+10, r24	; 0x0a
				TWI.SLAVE.STATUS |= (1<<TWI_SLAVE_DIF_bp)|(1<<TWI_SLAVE_APIF_bp); //clear interrupts
     fac:	82 85       	ldd	r24, Z+10	; 0x0a
     fae:	80 6c       	ori	r24, 0xC0	; 192
     fb0:	82 87       	std	Z+10, r24	; 0x0a
				return false;
     fb2:	80 e0       	ldi	r24, 0x00	; 0
     fb4:	08 95       	ret
     fb6:	80 e5       	ldi	r24, 0x50	; 80
     fb8:	8a 95       	dec	r24
     fba:	f1 f7       	brne	.-4      	; 0xfb8 <_Z9TWI_WriteR10TWI_structh+0x46>

		_delay_us(10);

//		if (TWI.SLAVE.STATUS &(1<<TWI_SLAVE_RXACK_bp)) {	//<<< op een of andere manier komt de NACK flag voorafgaand van de STOP conditie nooit aan bod
			//NACK, expect STOP or repeated START condition
			if ((TWI.SLAVE.STATUS &(1<<TWI_SLAVE_APIF_bp)) && !(TWI.SLAVE.STATUS &(1<<TWI_SLAVE_AP_bp))) {
     fbc:	82 85       	ldd	r24, Z+10	; 0x0a
     fbe:	86 ff       	sbrs	r24, 6
     fc0:	df cf       	rjmp	.-66     	; 0xf80 <_Z9TWI_WriteR10TWI_structh+0xe>
     fc2:	82 85       	ldd	r24, Z+10	; 0x0a
     fc4:	80 fd       	sbrc	r24, 0
     fc6:	dc cf       	rjmp	.-72     	; 0xf80 <_Z9TWI_WriteR10TWI_structh+0xe>
     fc8:	02 c0       	rjmp	.+4      	; 0xfce <_Z9TWI_WriteR10TWI_structh+0x5c>
	//wait for address received interrupt
	while(!(TWI.SLAVE.STATUS &(1<< TWI_SLAVE_APIF_bp)));

	//check if master read operation
	if( !(TWI.SLAVE.STATUS &(1<<TWI_SLAVE_DIR_bp)) ) {
		return false; //master write operation
     fca:	80 e0       	ldi	r24, 0x00	; 0
     fcc:	08 95       	ret

//		if (TWI.SLAVE.STATUS &(1<<TWI_SLAVE_RXACK_bp)) {	//<<< op een of andere manier komt de NACK flag voorafgaand van de STOP conditie nooit aan bod
			//NACK, expect STOP or repeated START condition
			if ((TWI.SLAVE.STATUS &(1<<TWI_SLAVE_APIF_bp)) && !(TWI.SLAVE.STATUS &(1<<TWI_SLAVE_AP_bp))) {
				//received stop condition
				TWI.SLAVE.STATUS |= (1<<TWI_SLAVE_DIF_bp)|(1<<TWI_SLAVE_APIF_bp); //clear interrupts
     fce:	82 85       	ldd	r24, Z+10	; 0x0a
     fd0:	80 6c       	ori	r24, 0xC0	; 192
     fd2:	82 87       	std	Z+10, r24	; 0x0a
				return true;
     fd4:	81 e0       	ldi	r24, 0x01	; 1
			}
//		} //ACK, continue transmitting
	}
}
     fd6:	08 95       	ret

00000fd8 <_Z13TWI_onRequestPFvvER10TWI_struct>:


//tx callbacks, set function call at interrupt
void TWI_onRequest(void (*f)(), TWI_struct &twi) {
	switch ((int) (&twi)) {
     fd8:	60 39       	cpi	r22, 0x90	; 144
     fda:	24 e0       	ldi	r18, 0x04	; 4
     fdc:	72 07       	cpc	r23, r18
     fde:	91 f0       	breq	.+36     	; 0x1004 <_Z13TWI_onRequestPFvvER10TWI_struct+0x2c>
     fe0:	24 f4       	brge	.+8      	; 0xfea <_Z13TWI_onRequestPFvvER10TWI_struct+0x12>
     fe2:	60 38       	cpi	r22, 0x80	; 128
     fe4:	74 40       	sbci	r23, 0x04	; 4
     fe6:	49 f0       	breq	.+18     	; 0xffa <_Z13TWI_onRequestPFvvER10TWI_struct+0x22>
     fe8:	1c c0       	rjmp	.+56     	; 0x1022 <_Z13TWI_onRequestPFvvER10TWI_struct+0x4a>
     fea:	60 3a       	cpi	r22, 0xA0	; 160
     fec:	24 e0       	ldi	r18, 0x04	; 4
     fee:	72 07       	cpc	r23, r18
     ff0:	71 f0       	breq	.+28     	; 0x100e <_Z13TWI_onRequestPFvvER10TWI_struct+0x36>
     ff2:	60 3b       	cpi	r22, 0xB0	; 176
     ff4:	74 40       	sbci	r23, 0x04	; 4
     ff6:	81 f0       	breq	.+32     	; 0x1018 <_Z13TWI_onRequestPFvvER10TWI_struct+0x40>
     ff8:	14 c0       	rjmp	.+40     	; 0x1022 <_Z13TWI_onRequestPFvvER10TWI_struct+0x4a>
		case TWIC_ptr: TWIC_TxCallback = f; break;
     ffa:	80 93 ad 23 	sts	0x23AD, r24	; 0x8023ad <TWIC_TxCallback>
     ffe:	90 93 ae 23 	sts	0x23AE, r25	; 0x8023ae <TWIC_TxCallback+0x1>
    1002:	08 95       	ret
		case TWID_ptr: TWID_TxCallback = f; break;
    1004:	80 93 ab 23 	sts	0x23AB, r24	; 0x8023ab <TWID_TxCallback>
    1008:	90 93 ac 23 	sts	0x23AC, r25	; 0x8023ac <TWID_TxCallback+0x1>
    100c:	08 95       	ret
		case TWIE_ptr: TWIE_TxCallback = f; break;
    100e:	80 93 a9 23 	sts	0x23A9, r24	; 0x8023a9 <TWIE_TxCallback>
    1012:	90 93 aa 23 	sts	0x23AA, r25	; 0x8023aa <TWIE_TxCallback+0x1>
    1016:	08 95       	ret
		case TWIF_ptr: TWIF_TxCallback = f; break;
    1018:	80 93 a7 23 	sts	0x23A7, r24	; 0x8023a7 <TWIF_TxCallback>
    101c:	90 93 a8 23 	sts	0x23A8, r25	; 0x8023a8 <TWIF_TxCallback+0x1>
    1020:	08 95       	ret
    1022:	ff cf       	rjmp	.-2      	; 0x1022 <_Z13TWI_onRequestPFvvER10TWI_struct+0x4a>

00001024 <_Z13TWI_onReceivePFvhER10TWI_struct>:
}


//rx callbacks, set function call at interrupt
void TWI_onReceive(void (*f)(uint8_t), TWI_struct &twi) {
	switch ((int) &twi) {
    1024:	60 39       	cpi	r22, 0x90	; 144
    1026:	24 e0       	ldi	r18, 0x04	; 4
    1028:	72 07       	cpc	r23, r18
    102a:	91 f0       	breq	.+36     	; 0x1050 <_Z13TWI_onReceivePFvhER10TWI_struct+0x2c>
    102c:	24 f4       	brge	.+8      	; 0x1036 <_Z13TWI_onReceivePFvhER10TWI_struct+0x12>
    102e:	60 38       	cpi	r22, 0x80	; 128
    1030:	74 40       	sbci	r23, 0x04	; 4
    1032:	49 f0       	breq	.+18     	; 0x1046 <_Z13TWI_onReceivePFvhER10TWI_struct+0x22>
    1034:	1c c0       	rjmp	.+56     	; 0x106e <_Z13TWI_onReceivePFvhER10TWI_struct+0x4a>
    1036:	60 3a       	cpi	r22, 0xA0	; 160
    1038:	24 e0       	ldi	r18, 0x04	; 4
    103a:	72 07       	cpc	r23, r18
    103c:	71 f0       	breq	.+28     	; 0x105a <_Z13TWI_onReceivePFvhER10TWI_struct+0x36>
    103e:	60 3b       	cpi	r22, 0xB0	; 176
    1040:	74 40       	sbci	r23, 0x04	; 4
    1042:	81 f0       	breq	.+32     	; 0x1064 <_Z13TWI_onReceivePFvhER10TWI_struct+0x40>
    1044:	14 c0       	rjmp	.+40     	; 0x106e <_Z13TWI_onReceivePFvhER10TWI_struct+0x4a>
		case TWIC_ptr: TWIC_RxCallback = f; break;
    1046:	80 93 a5 23 	sts	0x23A5, r24	; 0x8023a5 <TWIC_RxCallback>
    104a:	90 93 a6 23 	sts	0x23A6, r25	; 0x8023a6 <TWIC_RxCallback+0x1>
    104e:	08 95       	ret
		case TWID_ptr: TWID_RxCallback = f; break;
    1050:	80 93 a3 23 	sts	0x23A3, r24	; 0x8023a3 <TWID_RxCallback>
    1054:	90 93 a4 23 	sts	0x23A4, r25	; 0x8023a4 <TWID_RxCallback+0x1>
    1058:	08 95       	ret
		case TWIE_ptr: TWIE_RxCallback = f; break;
    105a:	80 93 a1 23 	sts	0x23A1, r24	; 0x8023a1 <TWIE_RxCallback>
    105e:	90 93 a2 23 	sts	0x23A2, r25	; 0x8023a2 <TWIE_RxCallback+0x1>
    1062:	08 95       	ret
		case TWIF_ptr: TWIF_RxCallback = f; break;
    1064:	80 93 9f 23 	sts	0x239F, r24	; 0x80239f <TWIF_RxCallback>
    1068:	90 93 a0 23 	sts	0x23A0, r25	; 0x8023a0 <TWIF_RxCallback+0x1>
    106c:	08 95       	ret
    106e:	ff cf       	rjmp	.-2      	; 0x106e <_Z13TWI_onReceivePFvhER10TWI_struct+0x4a>

00001070 <_Z10HexToASCIIh>:

#include "UART.h"

char HexToASCII(uint8_t i)
  {
	  i &= 0x0f;
    1070:	8f 70       	andi	r24, 0x0F	; 15
	  if(i > 9)
    1072:	8a 30       	cpi	r24, 0x0A	; 10
    1074:	10 f0       	brcs	.+4      	; 0x107a <_Z10HexToASCIIh+0xa>
	  return i+'A'-10;
    1076:	89 5c       	subi	r24, 0xC9	; 201
    1078:	08 95       	ret
	  else
	  return i+'0';
    107a:	80 5d       	subi	r24, 0xD0	; 208
  }
    107c:	08 95       	ret

0000107e <_Z18USART_Set_BaudrateR12USART_structmm>:
 
 bool USART_Set_Baudrate(USART_struct &USART, uint32_t baud, uint32_t cpu_hz)
{
    107e:	4f 92       	push	r4
    1080:	5f 92       	push	r5
    1082:	6f 92       	push	r6
    1084:	7f 92       	push	r7
    1086:	8f 92       	push	r8
    1088:	9f 92       	push	r9
    108a:	af 92       	push	r10
    108c:	bf 92       	push	r11
    108e:	ef 92       	push	r14
    1090:	ff 92       	push	r15
    1092:	0f 93       	push	r16
    1094:	1f 93       	push	r17
    1096:	cf 93       	push	r28
    1098:	7c 01       	movw	r14, r24
    109a:	4a 01       	movw	r8, r20
    109c:	5b 01       	movw	r10, r22
    109e:	28 01       	movw	r4, r16
    10a0:	39 01       	movw	r6, r18
	/* 8 = (2^0) * 8 * (2^0) = (2^BSCALE_MIN) * 8 * (BSEL_MIN) */
	max_rate = cpu_hz / 8;
	/* 4194304 = (2^7) * 8 * (2^12) = (2^BSCALE_MAX) * 8 * (BSEL_MAX+1) */
	min_rate = cpu_hz / 4194304;

	if (!(USART.CTRLB & USART_CLK2X_bm)) {
    10a2:	fc 01       	movw	r30, r24
    10a4:	84 81       	ldd	r24, Z+4	; 0x04
    10a6:	82 ff       	sbrs	r24, 2
    10a8:	16 c0       	rjmp	.+44     	; 0x10d6 <_Z18USART_Set_BaudrateR12USART_structmm+0x58>

	/*
	 * Check if the hardware supports the given baud rate
	 */
	/* 8 = (2^0) * 8 * (2^0) = (2^BSCALE_MIN) * 8 * (BSEL_MIN) */
	max_rate = cpu_hz / 8;
    10aa:	d9 01       	movw	r26, r18
    10ac:	c8 01       	movw	r24, r16
    10ae:	68 94       	set
    10b0:	12 f8       	bld	r1, 2
    10b2:	b6 95       	lsr	r27
    10b4:	a7 95       	ror	r26
    10b6:	97 95       	ror	r25
    10b8:	87 95       	ror	r24
    10ba:	16 94       	lsr	r1
    10bc:	d1 f7       	brne	.-12     	; 0x10b2 <_Z18USART_Set_BaudrateR12USART_structmm+0x34>
	/* 4194304 = (2^7) * 8 * (2^12) = (2^BSCALE_MAX) * 8 * (BSEL_MAX+1) */
	min_rate = cpu_hz / 4194304;
    10be:	b9 01       	movw	r22, r18
    10c0:	a8 01       	movw	r20, r16
    10c2:	03 2e       	mov	r0, r19
    10c4:	36 e1       	ldi	r19, 0x16	; 22
    10c6:	76 95       	lsr	r23
    10c8:	67 95       	ror	r22
    10ca:	57 95       	ror	r21
    10cc:	47 95       	ror	r20
    10ce:	3a 95       	dec	r19
    10d0:	d1 f7       	brne	.-12     	; 0x10c6 <_Z18USART_Set_BaudrateR12USART_structmm+0x48>
    10d2:	30 2d       	mov	r19, r0
    10d4:	15 c0       	rjmp	.+42     	; 0x1100 <_Z18USART_Set_BaudrateR12USART_structmm+0x82>

	if (!(USART.CTRLB & USART_CLK2X_bm)) {
		max_rate /= 2;
    10d6:	d9 01       	movw	r26, r18
    10d8:	c8 01       	movw	r24, r16
    10da:	68 94       	set
    10dc:	13 f8       	bld	r1, 3
    10de:	b6 95       	lsr	r27
    10e0:	a7 95       	ror	r26
    10e2:	97 95       	ror	r25
    10e4:	87 95       	ror	r24
    10e6:	16 94       	lsr	r1
    10e8:	d1 f7       	brne	.-12     	; 0x10de <_Z18USART_Set_BaudrateR12USART_structmm+0x60>
		min_rate /= 2;
    10ea:	b9 01       	movw	r22, r18
    10ec:	a8 01       	movw	r20, r16
    10ee:	03 2e       	mov	r0, r19
    10f0:	37 e1       	ldi	r19, 0x17	; 23
    10f2:	76 95       	lsr	r23
    10f4:	67 95       	ror	r22
    10f6:	57 95       	ror	r21
    10f8:	47 95       	ror	r20
    10fa:	3a 95       	dec	r19
    10fc:	d1 f7       	brne	.-12     	; 0x10f2 <_Z18USART_Set_BaudrateR12USART_structmm+0x74>
    10fe:	30 2d       	mov	r19, r0
	}

	if ((baud > max_rate) || (baud < min_rate)) {
    1100:	88 15       	cp	r24, r8
    1102:	99 05       	cpc	r25, r9
    1104:	aa 05       	cpc	r26, r10
    1106:	bb 05       	cpc	r27, r11
    1108:	08 f4       	brcc	.+2      	; 0x110c <_Z18USART_Set_BaudrateR12USART_structmm+0x8e>
    110a:	a6 c0       	rjmp	.+332    	; 0x1258 <_Z18USART_Set_BaudrateR12USART_structmm+0x1da>
    110c:	84 16       	cp	r8, r20
    110e:	95 06       	cpc	r9, r21
    1110:	a6 06       	cpc	r10, r22
    1112:	b7 06       	cpc	r11, r23
    1114:	08 f4       	brcc	.+2      	; 0x1118 <_Z18USART_Set_BaudrateR12USART_structmm+0x9a>
    1116:	a2 c0       	rjmp	.+324    	; 0x125c <_Z18USART_Set_BaudrateR12USART_structmm+0x1de>
		return false;
	}

	/* Check if double speed is enabled. */
	if (!(USART.CTRLB & USART_CLK2X_bm)) {
    1118:	f7 01       	movw	r30, r14
    111a:	84 81       	ldd	r24, Z+4	; 0x04
    111c:	82 fd       	sbrc	r24, 2
    111e:	04 c0       	rjmp	.+8      	; 0x1128 <_Z18USART_Set_BaudrateR12USART_structmm+0xaa>
		baud *= 2;
    1120:	88 0c       	add	r8, r8
    1122:	99 1c       	adc	r9, r9
    1124:	aa 1c       	adc	r10, r10
    1126:	bb 1c       	adc	r11, r11
	}

	/* Find the lowest possible exponent. */
	limit = 0xfffU >> 4;
	ratio = cpu_hz / baud;
    1128:	c3 01       	movw	r24, r6
    112a:	b2 01       	movw	r22, r4
    112c:	a5 01       	movw	r20, r10
    112e:	94 01       	movw	r18, r8
    1130:	0e 94 9e 30 	call	0x613c	; 0x613c <__udivmodsi4>

	for (exp = -7; exp < 7; exp++) {
		if (ratio < limit) {
    1134:	2f 3f       	cpi	r18, 0xFF	; 255
    1136:	31 05       	cpc	r19, r1
    1138:	41 05       	cpc	r20, r1
    113a:	51 05       	cpc	r21, r1
    113c:	08 f4       	brcc	.+2      	; 0x1140 <_Z18USART_Set_BaudrateR12USART_structmm+0xc2>
    113e:	90 c0       	rjmp	.+288    	; 0x1260 <_Z18USART_Set_BaudrateR12USART_structmm+0x1e2>
    1140:	8f ef       	ldi	r24, 0xFF	; 255
    1142:	90 e0       	ldi	r25, 0x00	; 0
    1144:	a0 e0       	ldi	r26, 0x00	; 0
    1146:	b0 e0       	ldi	r27, 0x00	; 0
    1148:	c9 ef       	ldi	r28, 0xF9	; 249
    114a:	05 c0       	rjmp	.+10     	; 0x1156 <_Z18USART_Set_BaudrateR12USART_structmm+0xd8>
    114c:	28 17       	cp	r18, r24
    114e:	39 07       	cpc	r19, r25
    1150:	4a 07       	cpc	r20, r26
    1152:	5b 07       	cpc	r21, r27
    1154:	58 f0       	brcs	.+22     	; 0x116c <_Z18USART_Set_BaudrateR12USART_structmm+0xee>
			break;
		}

		limit <<= 1;
    1156:	88 0f       	add	r24, r24
    1158:	99 1f       	adc	r25, r25
    115a:	aa 1f       	adc	r26, r26
    115c:	bb 1f       	adc	r27, r27

		if (exp < -3) {
    115e:	cd 3f       	cpi	r28, 0xFD	; 253
    1160:	0c f4       	brge	.+2      	; 0x1164 <_Z18USART_Set_BaudrateR12USART_structmm+0xe6>
			limit |= 1;
    1162:	81 60       	ori	r24, 0x01	; 1
    1164:	cf 5f       	subi	r28, 0xFF	; 255

	/* Find the lowest possible exponent. */
	limit = 0xfffU >> 4;
	ratio = cpu_hz / baud;

	for (exp = -7; exp < 7; exp++) {
    1166:	c7 30       	cpi	r28, 0x07	; 7
    1168:	89 f7       	brne	.-30     	; 0x114c <_Z18USART_Set_BaudrateR12USART_structmm+0xce>
    116a:	4f c0       	rjmp	.+158    	; 0x120a <_Z18USART_Set_BaudrateR12USART_structmm+0x18c>
	 * point.
	 *
	 * The formula for calculating BSEL is slightly different when exp is
	 * negative than it is when exp is positive.
	 */
	if (exp < 0) {
    116c:	cc 23       	and	r28, r28
    116e:	0c f0       	brlt	.+2      	; 0x1172 <_Z18USART_Set_BaudrateR12USART_structmm+0xf4>
    1170:	4c c0       	rjmp	.+152    	; 0x120a <_Z18USART_Set_BaudrateR12USART_structmm+0x18c>
		/* We are supposed to subtract 1, then apply BSCALE. We want to
		 * apply BSCALE first, so we need to turn everything inside the
		 * parenthesis into a single fractional expression.
		 */
		cpu_hz -= 8 * baud;
    1172:	d5 01       	movw	r26, r10
    1174:	c4 01       	movw	r24, r8
    1176:	88 0f       	add	r24, r24
    1178:	99 1f       	adc	r25, r25
    117a:	aa 1f       	adc	r26, r26
    117c:	bb 1f       	adc	r27, r27
    117e:	88 0f       	add	r24, r24
    1180:	99 1f       	adc	r25, r25
    1182:	aa 1f       	adc	r26, r26
    1184:	bb 1f       	adc	r27, r27
    1186:	88 0f       	add	r24, r24
    1188:	99 1f       	adc	r25, r25
    118a:	aa 1f       	adc	r26, r26
    118c:	bb 1f       	adc	r27, r27
    118e:	48 1a       	sub	r4, r24
    1190:	59 0a       	sbc	r5, r25
    1192:	6a 0a       	sbc	r6, r26
    1194:	7b 0a       	sbc	r7, r27
		/* If we end up with a left-shift after taking the final
		 * divide-by-8 into account, do the shift before the divide.
		 * Otherwise, left-shift the denominator instead (effectively
		 * resulting in an overall right shift.)
		 */
		if (exp <= -3) {
    1196:	ce 3f       	cpi	r28, 0xFE	; 254
    1198:	f4 f4       	brge	.+60     	; 0x11d6 <_Z18USART_Set_BaudrateR12USART_structmm+0x158>
			div = ((cpu_hz << (-exp - 3)) + baud / 2) / baud;
    119a:	8d ef       	ldi	r24, 0xFD	; 253
    119c:	9f ef       	ldi	r25, 0xFF	; 255
    119e:	8c 1b       	sub	r24, r28
    11a0:	91 09       	sbc	r25, r1
    11a2:	c7 fd       	sbrc	r28, 7
    11a4:	93 95       	inc	r25
    11a6:	04 c0       	rjmp	.+8      	; 0x11b0 <_Z18USART_Set_BaudrateR12USART_structmm+0x132>
    11a8:	44 0c       	add	r4, r4
    11aa:	55 1c       	adc	r5, r5
    11ac:	66 1c       	adc	r6, r6
    11ae:	77 1c       	adc	r7, r7
    11b0:	8a 95       	dec	r24
    11b2:	d2 f7       	brpl	.-12     	; 0x11a8 <_Z18USART_Set_BaudrateR12USART_structmm+0x12a>
    11b4:	d5 01       	movw	r26, r10
    11b6:	c4 01       	movw	r24, r8
    11b8:	b6 95       	lsr	r27
    11ba:	a7 95       	ror	r26
    11bc:	97 95       	ror	r25
    11be:	87 95       	ror	r24
    11c0:	bc 01       	movw	r22, r24
    11c2:	cd 01       	movw	r24, r26
    11c4:	64 0d       	add	r22, r4
    11c6:	75 1d       	adc	r23, r5
    11c8:	86 1d       	adc	r24, r6
    11ca:	97 1d       	adc	r25, r7
    11cc:	a5 01       	movw	r20, r10
    11ce:	94 01       	movw	r18, r8
    11d0:	0e 94 9e 30 	call	0x613c	; 0x613c <__udivmodsi4>
    11d4:	37 c0       	rjmp	.+110    	; 0x1244 <_Z18USART_Set_BaudrateR12USART_structmm+0x1c6>
		} else {
			baud <<= exp + 3;
    11d6:	83 e0       	ldi	r24, 0x03	; 3
    11d8:	8c 0f       	add	r24, r28
    11da:	a5 01       	movw	r20, r10
    11dc:	94 01       	movw	r18, r8
    11de:	04 c0       	rjmp	.+8      	; 0x11e8 <_Z18USART_Set_BaudrateR12USART_structmm+0x16a>
    11e0:	22 0f       	add	r18, r18
    11e2:	33 1f       	adc	r19, r19
    11e4:	44 1f       	adc	r20, r20
    11e6:	55 1f       	adc	r21, r21
    11e8:	8a 95       	dec	r24
    11ea:	d2 f7       	brpl	.-12     	; 0x11e0 <_Z18USART_Set_BaudrateR12USART_structmm+0x162>
			div = (cpu_hz + baud / 2) / baud;
    11ec:	da 01       	movw	r26, r20
    11ee:	c9 01       	movw	r24, r18
    11f0:	b6 95       	lsr	r27
    11f2:	a7 95       	ror	r26
    11f4:	97 95       	ror	r25
    11f6:	87 95       	ror	r24
    11f8:	bc 01       	movw	r22, r24
    11fa:	cd 01       	movw	r24, r26
    11fc:	64 0d       	add	r22, r4
    11fe:	75 1d       	adc	r23, r5
    1200:	86 1d       	adc	r24, r6
    1202:	97 1d       	adc	r25, r7
    1204:	0e 94 9e 30 	call	0x613c	; 0x613c <__udivmodsi4>
    1208:	1d c0       	rjmp	.+58     	; 0x1244 <_Z18USART_Set_BaudrateR12USART_structmm+0x1c6>
		}
	} else {
		/* We will always do a right shift in this case, but we need to
		 * shift three extra positions because of the divide-by-8.
		 */
		baud <<= exp + 3;
    120a:	83 e0       	ldi	r24, 0x03	; 3
    120c:	8c 0f       	add	r24, r28
    120e:	a5 01       	movw	r20, r10
    1210:	94 01       	movw	r18, r8
    1212:	04 c0       	rjmp	.+8      	; 0x121c <_Z18USART_Set_BaudrateR12USART_structmm+0x19e>
    1214:	22 0f       	add	r18, r18
    1216:	33 1f       	adc	r19, r19
    1218:	44 1f       	adc	r20, r20
    121a:	55 1f       	adc	r21, r21
    121c:	8a 95       	dec	r24
    121e:	d2 f7       	brpl	.-12     	; 0x1214 <_Z18USART_Set_BaudrateR12USART_structmm+0x196>
		div = (cpu_hz + baud / 2) / baud - 1;
    1220:	da 01       	movw	r26, r20
    1222:	c9 01       	movw	r24, r18
    1224:	b6 95       	lsr	r27
    1226:	a7 95       	ror	r26
    1228:	97 95       	ror	r25
    122a:	87 95       	ror	r24
    122c:	bc 01       	movw	r22, r24
    122e:	cd 01       	movw	r24, r26
    1230:	64 0d       	add	r22, r4
    1232:	75 1d       	adc	r23, r5
    1234:	86 1d       	adc	r24, r6
    1236:	97 1d       	adc	r25, r7
    1238:	0e 94 9e 30 	call	0x613c	; 0x613c <__udivmodsi4>
    123c:	21 50       	subi	r18, 0x01	; 1
    123e:	31 09       	sbc	r19, r1
    1240:	41 09       	sbc	r20, r1
    1242:	51 09       	sbc	r21, r1
	}

	USART.BAUDCTRLB = (uint8_t)(((div >> 8) & 0X0F) | (exp << 4));
    1244:	83 2f       	mov	r24, r19
    1246:	8f 70       	andi	r24, 0x0F	; 15
    1248:	c2 95       	swap	r28
    124a:	c0 7f       	andi	r28, 0xF0	; 240
    124c:	c8 2b       	or	r28, r24
    124e:	f7 01       	movw	r30, r14
    1250:	c7 83       	std	Z+7, r28	; 0x07
	USART.BAUDCTRLA = (uint8_t)div;
    1252:	26 83       	std	Z+6, r18	; 0x06

	return true;
    1254:	81 e0       	ldi	r24, 0x01	; 1
    1256:	18 c0       	rjmp	.+48     	; 0x1288 <_Z18USART_Set_BaudrateR12USART_structmm+0x20a>
		max_rate /= 2;
		min_rate /= 2;
	}

	if ((baud > max_rate) || (baud < min_rate)) {
		return false;
    1258:	80 e0       	ldi	r24, 0x00	; 0
    125a:	16 c0       	rjmp	.+44     	; 0x1288 <_Z18USART_Set_BaudrateR12USART_structmm+0x20a>
    125c:	80 e0       	ldi	r24, 0x00	; 0
    125e:	14 c0       	rjmp	.+40     	; 0x1288 <_Z18USART_Set_BaudrateR12USART_structmm+0x20a>
	if (exp < 0) {
		/* We are supposed to subtract 1, then apply BSCALE. We want to
		 * apply BSCALE first, so we need to turn everything inside the
		 * parenthesis into a single fractional expression.
		 */
		cpu_hz -= 8 * baud;
    1260:	d5 01       	movw	r26, r10
    1262:	c4 01       	movw	r24, r8
    1264:	88 0f       	add	r24, r24
    1266:	99 1f       	adc	r25, r25
    1268:	aa 1f       	adc	r26, r26
    126a:	bb 1f       	adc	r27, r27
    126c:	88 0f       	add	r24, r24
    126e:	99 1f       	adc	r25, r25
    1270:	aa 1f       	adc	r26, r26
    1272:	bb 1f       	adc	r27, r27
    1274:	88 0f       	add	r24, r24
    1276:	99 1f       	adc	r25, r25
    1278:	aa 1f       	adc	r26, r26
    127a:	bb 1f       	adc	r27, r27
    127c:	48 1a       	sub	r4, r24
    127e:	59 0a       	sbc	r5, r25
    1280:	6a 0a       	sbc	r6, r26
    1282:	7b 0a       	sbc	r7, r27

	/* Find the lowest possible exponent. */
	limit = 0xfffU >> 4;
	ratio = cpu_hz / baud;

	for (exp = -7; exp < 7; exp++) {
    1284:	c9 ef       	ldi	r28, 0xF9	; 249
    1286:	89 cf       	rjmp	.-238    	; 0x119a <_Z18USART_Set_BaudrateR12USART_structmm+0x11c>

	USART.BAUDCTRLB = (uint8_t)(((div >> 8) & 0X0F) | (exp << 4));
	USART.BAUDCTRLA = (uint8_t)div;

	return true;
}
    1288:	cf 91       	pop	r28
    128a:	1f 91       	pop	r17
    128c:	0f 91       	pop	r16
    128e:	ff 90       	pop	r15
    1290:	ef 90       	pop	r14
    1292:	bf 90       	pop	r11
    1294:	af 90       	pop	r10
    1296:	9f 90       	pop	r9
    1298:	8f 90       	pop	r8
    129a:	7f 90       	pop	r7
    129c:	6f 90       	pop	r6
    129e:	5f 90       	pop	r5
    12a0:	4f 90       	pop	r4
    12a2:	08 95       	ret

000012a4 <_Z10USART_InitR12USART_structmmb>:
 
 
 void USART_Init(USART_struct &USART, uint32_t baud, uint32_t cpu_hz, bool doubleSpeed)
 {	
    12a4:	0f 93       	push	r16
    12a6:	1f 93       	push	r17
    12a8:	cf 93       	push	r28
    12aa:	df 93       	push	r29
    12ac:	ec 01       	movw	r28, r24
	 /* Set baud rate */
	 USART_Set_Baudrate(USART, baud,cpu_hz);
    12ae:	0e 94 3f 08 	call	0x107e	; 0x107e <_Z18USART_Set_BaudrateR12USART_structmm>
	#else
		//round up by default
		__ticks_dc = (uint32_t)(ceil(fabs(__tmp)));
	#endif

	__builtin_avr_delay_cycles(__ticks_dc);
    12b2:	8f e5       	ldi	r24, 0x5F	; 95
    12b4:	9a ee       	ldi	r25, 0xEA	; 234
    12b6:	01 97       	sbiw	r24, 0x01	; 1
    12b8:	f1 f7       	brne	.-4      	; 0x12b6 <_Z10USART_InitR12USART_structmmb+0x12>
    12ba:	00 c0       	rjmp	.+0      	; 0x12bc <_Z10USART_InitR12USART_structmmb+0x18>
    12bc:	00 00       	nop
	 _delay_ms(10); // wait for stable clock
	 //USART.CTRLA = (1 << USART_RXCINTLVL0_bp)|(1 << USART_TXCINTLVL0_bp)|(1 << USART_DREINTLVL0_bp);
	 USART.CTRLB = (1 << USART_RXEN_bp)|(1 << USART_TXEN_bp); 
    12be:	88 e1       	ldi	r24, 0x18	; 24
    12c0:	8c 83       	std	Y+4, r24	; 0x04
 }
    12c2:	df 91       	pop	r29
    12c4:	cf 91       	pop	r28
    12c6:	1f 91       	pop	r17
    12c8:	0f 91       	pop	r16
    12ca:	08 95       	ret

000012cc <_Z14USART_TransmitR12USART_structc>:

void USART_Transmit(USART_struct &USART, const char data )
{
    12cc:	fc 01       	movw	r30, r24
	/* Wait for empty transmit buffer */
	while ( !( USART.STATUS & (1<<USART_DREIF_bp)) );
    12ce:	91 81       	ldd	r25, Z+1	; 0x01
    12d0:	95 ff       	sbrs	r25, 5
    12d2:	fd cf       	rjmp	.-6      	; 0x12ce <_Z14USART_TransmitR12USART_structc+0x2>
	/* Put data into buffer, sends the data */
	USART.DATA = data;
    12d4:	60 83       	st	Z, r22
    12d6:	08 95       	ret

000012d8 <_Z13USART_ReceiveR12USART_struct>:
}

char USART_Receive(USART_struct &USART)
{
    12d8:	fc 01       	movw	r30, r24
	/* Wait for data to be received */
	while ( !(USART.STATUS & (1<<USART_RXCIF_bp)));
    12da:	91 81       	ldd	r25, Z+1	; 0x01
    12dc:	99 23       	and	r25, r25
    12de:	ec f7       	brge	.-6      	; 0x12da <_Z13USART_ReceiveR12USART_struct+0x2>
	/* Get and return received data from buffer */
	return USART.DATA;
    12e0:	80 81       	ld	r24, Z
}
    12e2:	08 95       	ret

000012e4 <_Z13USART_ReceiveR12USART_structjRb>:

char USART_Receive(USART_struct &USART, uint16_t timeout, bool& isTimedOut )
{
    12e4:	fc 01       	movw	r30, r24
	/* Wait for data to be received */
	for(uint16_t i = 0; i < timeout; i++)
    12e6:	61 15       	cp	r22, r1
    12e8:	71 05       	cpc	r23, r1
    12ea:	99 f0       	breq	.+38     	; 0x1312 <_Z13USART_ReceiveR12USART_structjRb+0x2e>
	{
		if(USART.STATUS & (1<<USART_RXCIF_bp))
    12ec:	81 81       	ldd	r24, Z+1	; 0x01
    12ee:	88 23       	and	r24, r24
    12f0:	34 f0       	brlt	.+12     	; 0x12fe <_Z13USART_ReceiveR12USART_structjRb+0x1a>
    12f2:	20 e0       	ldi	r18, 0x00	; 0
    12f4:	30 e0       	ldi	r19, 0x00	; 0
    12f6:	05 c0       	rjmp	.+10     	; 0x1302 <_Z13USART_ReceiveR12USART_structjRb+0x1e>
    12f8:	91 81       	ldd	r25, Z+1	; 0x01
    12fa:	99 23       	and	r25, r25
    12fc:	14 f4       	brge	.+4      	; 0x1302 <_Z13USART_ReceiveR12USART_structjRb+0x1e>
		{
			/* Get and return received data from buffer */
			return USART.DATA;
    12fe:	80 81       	ld	r24, Z
    1300:	08 95       	ret
	#else
		//round up by default
		__ticks_dc = (uint32_t)(ceil(fabs(__tmp)));
	#endif

	__builtin_avr_delay_cycles(__ticks_dc);
    1302:	88 e0       	ldi	r24, 0x08	; 8
    1304:	8a 95       	dec	r24
    1306:	f1 f7       	brne	.-4      	; 0x1304 <_Z13USART_ReceiveR12USART_structjRb+0x20>
}

char USART_Receive(USART_struct &USART, uint16_t timeout, bool& isTimedOut )
{
	/* Wait for data to be received */
	for(uint16_t i = 0; i < timeout; i++)
    1308:	2f 5f       	subi	r18, 0xFF	; 255
    130a:	3f 4f       	sbci	r19, 0xFF	; 255
    130c:	62 17       	cp	r22, r18
    130e:	73 07       	cpc	r23, r19
    1310:	99 f7       	brne	.-26     	; 0x12f8 <_Z13USART_ReceiveR12USART_structjRb+0x14>
		}

		_delay_us(1);
	}
	 
	isTimedOut = true;
    1312:	81 e0       	ldi	r24, 0x01	; 1
    1314:	fa 01       	movw	r30, r20
    1316:	80 83       	st	Z, r24
	return 0;
    1318:	80 e0       	ldi	r24, 0x00	; 0
}
    131a:	08 95       	ret

0000131c <_Z15USART_AvailableR12USART_struct>:

 bool USART_Available(USART_struct &USART)
 {
	 return (USART.STATUS & (1<<USART_RXCIF_bp));
    131c:	fc 01       	movw	r30, r24
    131e:	81 81       	ldd	r24, Z+1	; 0x01
 }
    1320:	88 1f       	adc	r24, r24
    1322:	88 27       	eor	r24, r24
    1324:	88 1f       	adc	r24, r24
    1326:	08 95       	ret

00001328 <_Z20USART_TransmitStringR12USART_structPKc>:


 void USART_TransmitString(USART_struct &USART, const char* str)
 {
    1328:	ef 92       	push	r14
    132a:	ff 92       	push	r15
    132c:	0f 93       	push	r16
    132e:	1f 93       	push	r17
    1330:	cf 93       	push	r28
    1332:	fb 01       	movw	r30, r22
	 for(uint8_t i = 0; str[i]; i++)
    1334:	60 81       	ld	r22, Z
    1336:	66 23       	and	r22, r22
    1338:	69 f0       	breq	.+26     	; 0x1354 <_Z20USART_TransmitStringR12USART_structPKc+0x2c>
    133a:	8f 01       	movw	r16, r30
    133c:	7c 01       	movw	r14, r24
    133e:	c0 e0       	ldi	r28, 0x00	; 0
	 USART_Transmit(USART, str[i]);
    1340:	c7 01       	movw	r24, r14
    1342:	0e 94 66 09 	call	0x12cc	; 0x12cc <_Z14USART_TransmitR12USART_structc>
 }


 void USART_TransmitString(USART_struct &USART, const char* str)
 {
	 for(uint8_t i = 0; str[i]; i++)
    1346:	cf 5f       	subi	r28, 0xFF	; 255
    1348:	f8 01       	movw	r30, r16
    134a:	ec 0f       	add	r30, r28
    134c:	f1 1d       	adc	r31, r1
    134e:	60 81       	ld	r22, Z
    1350:	61 11       	cpse	r22, r1
    1352:	f6 cf       	rjmp	.-20     	; 0x1340 <_Z20USART_TransmitStringR12USART_structPKc+0x18>
	 USART_Transmit(USART, str[i]);
 }
    1354:	cf 91       	pop	r28
    1356:	1f 91       	pop	r17
    1358:	0f 91       	pop	r16
    135a:	ff 90       	pop	r15
    135c:	ef 90       	pop	r14
    135e:	08 95       	ret

00001360 <_Z14USART_TransmitR12USART_structPKch>:


 void USART_Transmit(USART_struct &USART, const char* buff, uint8_t length)
 {
    1360:	ef 92       	push	r14
    1362:	ff 92       	push	r15
    1364:	0f 93       	push	r16
    1366:	1f 93       	push	r17
    1368:	cf 93       	push	r28
    136a:	df 93       	push	r29
	 for(uint8_t i = 0; i < length; i++)
    136c:	44 23       	and	r20, r20
    136e:	81 f0       	breq	.+32     	; 0x1390 <_Z14USART_TransmitR12USART_structPKch+0x30>
    1370:	7c 01       	movw	r14, r24
    1372:	eb 01       	movw	r28, r22
    1374:	41 50       	subi	r20, 0x01	; 1
    1376:	04 2f       	mov	r16, r20
    1378:	10 e0       	ldi	r17, 0x00	; 0
    137a:	0f 5f       	subi	r16, 0xFF	; 255
    137c:	1f 4f       	sbci	r17, 0xFF	; 255
    137e:	06 0f       	add	r16, r22
    1380:	17 1f       	adc	r17, r23
	 USART_Transmit(USART, buff[i]);
    1382:	69 91       	ld	r22, Y+
    1384:	c7 01       	movw	r24, r14
    1386:	0e 94 66 09 	call	0x12cc	; 0x12cc <_Z14USART_TransmitR12USART_structc>
 }


 void USART_Transmit(USART_struct &USART, const char* buff, uint8_t length)
 {
	 for(uint8_t i = 0; i < length; i++)
    138a:	c0 17       	cp	r28, r16
    138c:	d1 07       	cpc	r29, r17
    138e:	c9 f7       	brne	.-14     	; 0x1382 <_Z14USART_TransmitR12USART_structPKch+0x22>
	 USART_Transmit(USART, buff[i]);
 }
    1390:	df 91       	pop	r29
    1392:	cf 91       	pop	r28
    1394:	1f 91       	pop	r17
    1396:	0f 91       	pop	r16
    1398:	ff 90       	pop	r15
    139a:	ef 90       	pop	r14
    139c:	08 95       	ret

0000139e <_Z18USART_Transmit_HexR12USART_structc>:

 
 void USART_Transmit_Hex(USART_struct &USART, const char data )
 {
    139e:	1f 93       	push	r17
    13a0:	cf 93       	push	r28
    13a2:	df 93       	push	r29
    13a4:	ec 01       	movw	r28, r24
    13a6:	16 2f       	mov	r17, r22
	 USART_TransmitString(USART, "0x");
    13a8:	66 e7       	ldi	r22, 0x76	; 118
    13aa:	71 e2       	ldi	r23, 0x21	; 33
    13ac:	0e 94 94 09 	call	0x1328	; 0x1328 <_Z20USART_TransmitStringR12USART_structPKc>
	 USART_Transmit(USART, HexToASCII(data>>4));
    13b0:	81 2f       	mov	r24, r17
    13b2:	82 95       	swap	r24
    13b4:	8f 70       	andi	r24, 0x0F	; 15
    13b6:	0e 94 38 08 	call	0x1070	; 0x1070 <_Z10HexToASCIIh>
    13ba:	68 2f       	mov	r22, r24
    13bc:	ce 01       	movw	r24, r28
    13be:	0e 94 66 09 	call	0x12cc	; 0x12cc <_Z14USART_TransmitR12USART_structc>
	 USART_Transmit(USART, HexToASCII(data));
    13c2:	81 2f       	mov	r24, r17
    13c4:	0e 94 38 08 	call	0x1070	; 0x1070 <_Z10HexToASCIIh>
    13c8:	68 2f       	mov	r22, r24
    13ca:	ce 01       	movw	r24, r28
    13cc:	0e 94 66 09 	call	0x12cc	; 0x12cc <_Z14USART_TransmitR12USART_structc>
 }
    13d0:	df 91       	pop	r29
    13d2:	cf 91       	pop	r28
    13d4:	1f 91       	pop	r17
    13d6:	08 95       	ret

000013d8 <_Z21USART_Transmit_NumberR12USART_structi>:


 void USART_Transmit_Number(USART_struct &USART, int16_t num)
 {
    13d8:	0f 93       	push	r16
    13da:	1f 93       	push	r17
    13dc:	cf 93       	push	r28
    13de:	df 93       	push	r29
    13e0:	8c 01       	movw	r16, r24
    13e2:	eb 01       	movw	r28, r22
	 if(num < 0)
    13e4:	dd 23       	and	r29, r29
    13e6:	34 f4       	brge	.+12     	; 0x13f4 <_Z21USART_Transmit_NumberR12USART_structi+0x1c>
	 {
		 num = -num;
    13e8:	d1 95       	neg	r29
    13ea:	c1 95       	neg	r28
    13ec:	d1 09       	sbc	r29, r1
		 USART_Transmit(USART, '-');
    13ee:	6d e2       	ldi	r22, 0x2D	; 45
    13f0:	0e 94 66 09 	call	0x12cc	; 0x12cc <_Z14USART_TransmitR12USART_structc>
	 }

	 bool started = false;
	 uint8_t ten_thousands	= (num/10000);
    13f4:	ce 01       	movw	r24, r28
    13f6:	60 e1       	ldi	r22, 0x10	; 16
    13f8:	77 e2       	ldi	r23, 0x27	; 39
    13fa:	0e 94 8a 30 	call	0x6114	; 0x6114 <__divmodhi4>
	 if(ten_thousands > 0)
    13fe:	66 23       	and	r22, r22
    1400:	31 f0       	breq	.+12     	; 0x140e <_Z21USART_Transmit_NumberR12USART_structi+0x36>
	 {
		 USART_Transmit(USART, '0'+ten_thousands);
    1402:	60 5d       	subi	r22, 0xD0	; 208
    1404:	c8 01       	movw	r24, r16
    1406:	0e 94 66 09 	call	0x12cc	; 0x12cc <_Z14USART_TransmitR12USART_structc>
		 started = true;
    140a:	21 e0       	ldi	r18, 0x01	; 1
    140c:	01 c0       	rjmp	.+2      	; 0x1410 <_Z21USART_Transmit_NumberR12USART_structi+0x38>
	 {
		 num = -num;
		 USART_Transmit(USART, '-');
	 }

	 bool started = false;
    140e:	20 e0       	ldi	r18, 0x00	; 0
	 {
		 USART_Transmit(USART, '0'+ten_thousands);
		 started = true;
	 }

	 uint8_t thousands	= (num/1000)%10;
    1410:	ce 01       	movw	r24, r28
    1412:	68 ee       	ldi	r22, 0xE8	; 232
    1414:	73 e0       	ldi	r23, 0x03	; 3
    1416:	0e 94 8a 30 	call	0x6114	; 0x6114 <__divmodhi4>
    141a:	cb 01       	movw	r24, r22
    141c:	6a e0       	ldi	r22, 0x0A	; 10
    141e:	70 e0       	ldi	r23, 0x00	; 0
    1420:	0e 94 8a 30 	call	0x6114	; 0x6114 <__divmodhi4>
	 if(thousands > 0)
    1424:	88 23       	and	r24, r24
    1426:	81 f0       	breq	.+32     	; 0x1448 <_Z21USART_Transmit_NumberR12USART_structi+0x70>
	 {
		 USART_Transmit(USART, '0'+thousands);
    1428:	60 e3       	ldi	r22, 0x30	; 48
    142a:	68 0f       	add	r22, r24
    142c:	c8 01       	movw	r24, r16
    142e:	0e 94 66 09 	call	0x12cc	; 0x12cc <_Z14USART_TransmitR12USART_structc>
		 started = true;
	 }

	 uint8_t hundreds	= (num/100)%10;
    1432:	ce 01       	movw	r24, r28
    1434:	64 e6       	ldi	r22, 0x64	; 100
    1436:	70 e0       	ldi	r23, 0x00	; 0
    1438:	0e 94 8a 30 	call	0x6114	; 0x6114 <__divmodhi4>
    143c:	cb 01       	movw	r24, r22
    143e:	6a e0       	ldi	r22, 0x0A	; 10
    1440:	70 e0       	ldi	r23, 0x00	; 0
    1442:	0e 94 8a 30 	call	0x6114	; 0x6114 <__divmodhi4>
    1446:	0e c0       	rjmp	.+28     	; 0x1464 <_Z21USART_Transmit_NumberR12USART_structi+0x8c>
    1448:	ce 01       	movw	r24, r28
    144a:	64 e6       	ldi	r22, 0x64	; 100
    144c:	70 e0       	ldi	r23, 0x00	; 0
    144e:	0e 94 8a 30 	call	0x6114	; 0x6114 <__divmodhi4>
    1452:	cb 01       	movw	r24, r22
    1454:	6a e0       	ldi	r22, 0x0A	; 10
    1456:	70 e0       	ldi	r23, 0x00	; 0
    1458:	0e 94 8a 30 	call	0x6114	; 0x6114 <__divmodhi4>
	 if(hundreds > 0 || started)
    145c:	81 11       	cpse	r24, r1
    145e:	02 c0       	rjmp	.+4      	; 0x1464 <_Z21USART_Transmit_NumberR12USART_structi+0x8c>
    1460:	22 23       	and	r18, r18
    1462:	f9 f0       	breq	.+62     	; 0x14a2 <_Z21USART_Transmit_NumberR12USART_structi+0xca>
	 {
		 USART_Transmit(USART, '0'+hundreds);
    1464:	60 e3       	ldi	r22, 0x30	; 48
    1466:	68 0f       	add	r22, r24
    1468:	c8 01       	movw	r24, r16
    146a:	0e 94 66 09 	call	0x12cc	; 0x12cc <_Z14USART_TransmitR12USART_structc>
		 started = true;
	 }

	 uint8_t tens		= (num/10)%10;
    146e:	2a e0       	ldi	r18, 0x0A	; 10
    1470:	30 e0       	ldi	r19, 0x00	; 0
    1472:	ce 01       	movw	r24, r28
    1474:	b9 01       	movw	r22, r18
    1476:	0e 94 8a 30 	call	0x6114	; 0x6114 <__divmodhi4>
    147a:	cb 01       	movw	r24, r22
    147c:	b9 01       	movw	r22, r18
    147e:	0e 94 8a 30 	call	0x6114	; 0x6114 <__divmodhi4>
	 if(tens > 0 || started)
	 {
		 USART_Transmit(USART, '0'+tens);
    1482:	60 e3       	ldi	r22, 0x30	; 48
    1484:	68 0f       	add	r22, r24
    1486:	c8 01       	movw	r24, r16
    1488:	0e 94 66 09 	call	0x12cc	; 0x12cc <_Z14USART_TransmitR12USART_structc>
		 started = true;
	 }
	 
	 USART_Transmit(USART, '0' + (num%10));
    148c:	ce 01       	movw	r24, r28
    148e:	6a e0       	ldi	r22, 0x0A	; 10
    1490:	70 e0       	ldi	r23, 0x00	; 0
    1492:	0e 94 8a 30 	call	0x6114	; 0x6114 <__divmodhi4>
    1496:	60 e3       	ldi	r22, 0x30	; 48
    1498:	68 0f       	add	r22, r24
    149a:	c8 01       	movw	r24, r16
    149c:	0e 94 66 09 	call	0x12cc	; 0x12cc <_Z14USART_TransmitR12USART_structc>
 }
    14a0:	0d c0       	rjmp	.+26     	; 0x14bc <_Z21USART_Transmit_NumberR12USART_structi+0xe4>
	 {
		 USART_Transmit(USART, '0'+hundreds);
		 started = true;
	 }

	 uint8_t tens		= (num/10)%10;
    14a2:	2a e0       	ldi	r18, 0x0A	; 10
    14a4:	30 e0       	ldi	r19, 0x00	; 0
    14a6:	ce 01       	movw	r24, r28
    14a8:	b9 01       	movw	r22, r18
    14aa:	0e 94 8a 30 	call	0x6114	; 0x6114 <__divmodhi4>
    14ae:	cb 01       	movw	r24, r22
    14b0:	b9 01       	movw	r22, r18
    14b2:	0e 94 8a 30 	call	0x6114	; 0x6114 <__divmodhi4>
	 if(tens > 0 || started)
    14b6:	88 23       	and	r24, r24
    14b8:	49 f3       	breq	.-46     	; 0x148c <_Z21USART_Transmit_NumberR12USART_structi+0xb4>
    14ba:	e3 cf       	rjmp	.-58     	; 0x1482 <_Z21USART_Transmit_NumberR12USART_structi+0xaa>
		 USART_Transmit(USART, '0'+tens);
		 started = true;
	 }
	 
	 USART_Transmit(USART, '0' + (num%10));
 }
    14bc:	df 91       	pop	r29
    14be:	cf 91       	pop	r28
    14c0:	1f 91       	pop	r17
    14c2:	0f 91       	pop	r16
    14c4:	08 95       	ret

000014c6 <_Z18USART_TransmitDoneR12USART_struct>:
 


bool USART_TransmitDone(USART_struct &USART)
{
	return USART.STATUS & (1<<USART_DREIF_bp);
    14c6:	fc 01       	movw	r30, r24
    14c8:	81 81       	ldd	r24, Z+1	; 0x01
}
    14ca:	85 fb       	bst	r24, 5
    14cc:	88 27       	eor	r24, r24
    14ce:	80 f9       	bld	r24, 0
    14d0:	08 95       	ret

000014d2 <_Z12USB_Transmitc>:

void USB_Transmit(const char data )
{
	//while(!udi_cdc_is_tx_ready())
	//{
	udi_cdc_putc(data);
    14d2:	90 e0       	ldi	r25, 0x00	; 0
    14d4:	0e 94 b3 1e 	call	0x3d66	; 0x3d66 <udi_cdc_putc>
    14d8:	08 95       	ret

000014da <_Z11USB_Receivev>:
}

char USB_Receive()
{
	// 	/* Wait for data to be received */
	while (!udi_cdc_is_rx_ready());
    14da:	0e 94 f4 1c 	call	0x39e8	; 0x39e8 <udi_cdc_is_rx_ready>
    14de:	88 23       	and	r24, r24
    14e0:	e1 f3       	breq	.-8      	; 0x14da <_Z11USB_Receivev>
	// 	/* Get and return received data from buffer */
	return udi_cdc_getc();
    14e2:	0e 94 4d 1d 	call	0x3a9a	; 0x3a9a <udi_cdc_getc>
}
    14e6:	08 95       	ret

000014e8 <_Z11USB_ReceivejRb>:

char USB_Receive(uint16_t timeout, bool& isTimedOut )
{
    14e8:	ef 92       	push	r14
    14ea:	ff 92       	push	r15
    14ec:	0f 93       	push	r16
    14ee:	1f 93       	push	r17
    14f0:	cf 93       	push	r28
    14f2:	df 93       	push	r29
    14f4:	8c 01       	movw	r16, r24
    14f6:	7b 01       	movw	r14, r22
	/* Wait for data to be received */
	for(uint16_t i = 0; i < timeout; i++)
    14f8:	89 2b       	or	r24, r25
    14fa:	81 f0       	breq	.+32     	; 0x151c <_Z11USB_ReceivejRb+0x34>
    14fc:	c0 e0       	ldi	r28, 0x00	; 0
    14fe:	d0 e0       	ldi	r29, 0x00	; 0
	{
		if(udi_cdc_is_rx_ready())
    1500:	0e 94 f4 1c 	call	0x39e8	; 0x39e8 <udi_cdc_is_rx_ready>
    1504:	88 23       	and	r24, r24
    1506:	19 f0       	breq	.+6      	; 0x150e <_Z11USB_ReceivejRb+0x26>
		{
			/* Get and return received data from buffer */
			return udi_cdc_getc();
    1508:	0e 94 4d 1d 	call	0x3a9a	; 0x3a9a <udi_cdc_getc>
    150c:	0b c0       	rjmp	.+22     	; 0x1524 <_Z11USB_ReceivejRb+0x3c>
    150e:	88 e0       	ldi	r24, 0x08	; 8
    1510:	8a 95       	dec	r24
    1512:	f1 f7       	brne	.-4      	; 0x1510 <_Z11USB_ReceivejRb+0x28>
}

char USB_Receive(uint16_t timeout, bool& isTimedOut )
{
	/* Wait for data to be received */
	for(uint16_t i = 0; i < timeout; i++)
    1514:	21 96       	adiw	r28, 0x01	; 1
    1516:	0c 17       	cp	r16, r28
    1518:	1d 07       	cpc	r17, r29
    151a:	91 f7       	brne	.-28     	; 0x1500 <_Z11USB_ReceivejRb+0x18>
		}

		_delay_us(1);
	}
	
	isTimedOut = true;
    151c:	81 e0       	ldi	r24, 0x01	; 1
    151e:	f7 01       	movw	r30, r14
    1520:	80 83       	st	Z, r24
	return 0;
    1522:	80 e0       	ldi	r24, 0x00	; 0
}
    1524:	df 91       	pop	r29
    1526:	cf 91       	pop	r28
    1528:	1f 91       	pop	r17
    152a:	0f 91       	pop	r16
    152c:	ff 90       	pop	r15
    152e:	ef 90       	pop	r14
    1530:	08 95       	ret

00001532 <_Z13USB_Availablev>:

bool USB_Available()
{
	return (udi_cdc_is_tx_ready());
    1532:	0e 94 60 1e 	call	0x3cc0	; 0x3cc0 <udi_cdc_is_tx_ready>
}
    1536:	08 95       	ret

00001538 <_Z18USB_TransmitStringPKc>:


void USB_TransmitString(const char* str)
{
    1538:	0f 93       	push	r16
    153a:	1f 93       	push	r17
    153c:	cf 93       	push	r28
    153e:	fc 01       	movw	r30, r24
	for(uint8_t i = 0; str[i]; i++)
    1540:	80 81       	ld	r24, Z
    1542:	88 23       	and	r24, r24
    1544:	61 f0       	breq	.+24     	; 0x155e <_Z18USB_TransmitStringPKc+0x26>
    1546:	8f 01       	movw	r16, r30
    1548:	c0 e0       	ldi	r28, 0x00	; 0

void USB_Transmit(const char data )
{
	//while(!udi_cdc_is_tx_ready())
	//{
	udi_cdc_putc(data);
    154a:	90 e0       	ldi	r25, 0x00	; 0
    154c:	0e 94 b3 1e 	call	0x3d66	; 0x3d66 <udi_cdc_putc>
}


void USB_TransmitString(const char* str)
{
	for(uint8_t i = 0; str[i]; i++)
    1550:	cf 5f       	subi	r28, 0xFF	; 255
    1552:	f8 01       	movw	r30, r16
    1554:	ec 0f       	add	r30, r28
    1556:	f1 1d       	adc	r31, r1
    1558:	80 81       	ld	r24, Z
    155a:	81 11       	cpse	r24, r1
    155c:	f6 cf       	rjmp	.-20     	; 0x154a <_Z18USB_TransmitStringPKc+0x12>
	USB_Transmit(str[i]);
}
    155e:	cf 91       	pop	r28
    1560:	1f 91       	pop	r17
    1562:	0f 91       	pop	r16
    1564:	08 95       	ret

00001566 <_Z12USB_TransmitPKch>:


void USB_Transmit(const char* buff, uint8_t length)
{
    1566:	0f 93       	push	r16
    1568:	1f 93       	push	r17
    156a:	cf 93       	push	r28
    156c:	df 93       	push	r29
	for(uint8_t i = 0; i < length; i++)
    156e:	66 23       	and	r22, r22
    1570:	79 f0       	breq	.+30     	; 0x1590 <_Z12USB_TransmitPKch+0x2a>
    1572:	ec 01       	movw	r28, r24
    1574:	61 50       	subi	r22, 0x01	; 1
    1576:	06 2f       	mov	r16, r22
    1578:	10 e0       	ldi	r17, 0x00	; 0
    157a:	0f 5f       	subi	r16, 0xFF	; 255
    157c:	1f 4f       	sbci	r17, 0xFF	; 255
    157e:	08 0f       	add	r16, r24
    1580:	19 1f       	adc	r17, r25
	USB_Transmit(buff[i]);
    1582:	89 91       	ld	r24, Y+

void USB_Transmit(const char data )
{
	//while(!udi_cdc_is_tx_ready())
	//{
	udi_cdc_putc(data);
    1584:	90 e0       	ldi	r25, 0x00	; 0
    1586:	0e 94 b3 1e 	call	0x3d66	; 0x3d66 <udi_cdc_putc>
}


void USB_Transmit(const char* buff, uint8_t length)
{
	for(uint8_t i = 0; i < length; i++)
    158a:	c0 17       	cp	r28, r16
    158c:	d1 07       	cpc	r29, r17
    158e:	c9 f7       	brne	.-14     	; 0x1582 <_Z12USB_TransmitPKch+0x1c>
	USB_Transmit(buff[i]);
}
    1590:	df 91       	pop	r29
    1592:	cf 91       	pop	r28
    1594:	1f 91       	pop	r17
    1596:	0f 91       	pop	r16
    1598:	08 95       	ret

0000159a <_Z16USB_Transmit_Hexc>:


void USB_Transmit_Hex(const char data )
{
    159a:	cf 93       	push	r28
    159c:	c8 2f       	mov	r28, r24
	USB_TransmitString("0x");
    159e:	86 e7       	ldi	r24, 0x76	; 118
    15a0:	91 e2       	ldi	r25, 0x21	; 33
    15a2:	0e 94 9c 0a 	call	0x1538	; 0x1538 <_Z18USB_TransmitStringPKc>
	USB_Transmit(HexToASCII(data>>4));
    15a6:	8c 2f       	mov	r24, r28
    15a8:	82 95       	swap	r24
    15aa:	8f 70       	andi	r24, 0x0F	; 15
    15ac:	0e 94 38 08 	call	0x1070	; 0x1070 <_Z10HexToASCIIh>

void USB_Transmit(const char data )
{
	//while(!udi_cdc_is_tx_ready())
	//{
	udi_cdc_putc(data);
    15b0:	90 e0       	ldi	r25, 0x00	; 0
    15b2:	0e 94 b3 1e 	call	0x3d66	; 0x3d66 <udi_cdc_putc>

void USB_Transmit_Hex(const char data )
{
	USB_TransmitString("0x");
	USB_Transmit(HexToASCII(data>>4));
	USB_Transmit(HexToASCII(data));
    15b6:	8c 2f       	mov	r24, r28
    15b8:	0e 94 38 08 	call	0x1070	; 0x1070 <_Z10HexToASCIIh>

void USB_Transmit(const char data )
{
	//while(!udi_cdc_is_tx_ready())
	//{
	udi_cdc_putc(data);
    15bc:	90 e0       	ldi	r25, 0x00	; 0
    15be:	0e 94 b3 1e 	call	0x3d66	; 0x3d66 <udi_cdc_putc>
void USB_Transmit_Hex(const char data )
{
	USB_TransmitString("0x");
	USB_Transmit(HexToASCII(data>>4));
	USB_Transmit(HexToASCII(data));
}
    15c2:	cf 91       	pop	r28
    15c4:	08 95       	ret

000015c6 <_Z19USB_Transmit_Numberi>:


void USB_Transmit_Number(int16_t num)
{
    15c6:	cf 93       	push	r28
    15c8:	df 93       	push	r29
    15ca:	ec 01       	movw	r28, r24
	if(num < 0)
    15cc:	99 23       	and	r25, r25
    15ce:	3c f4       	brge	.+14     	; 0x15de <_Z19USB_Transmit_Numberi+0x18>
	{
		num = -num;
    15d0:	d1 95       	neg	r29
    15d2:	c1 95       	neg	r28
    15d4:	d1 09       	sbc	r29, r1

void USB_Transmit(const char data )
{
	//while(!udi_cdc_is_tx_ready())
	//{
	udi_cdc_putc(data);
    15d6:	8d e2       	ldi	r24, 0x2D	; 45
    15d8:	90 e0       	ldi	r25, 0x00	; 0
    15da:	0e 94 b3 1e 	call	0x3d66	; 0x3d66 <udi_cdc_putc>
		num = -num;
		USB_Transmit('-');
	}

	bool started = false;
	uint8_t ten_thousands	= (num/10000);
    15de:	ce 01       	movw	r24, r28
    15e0:	60 e1       	ldi	r22, 0x10	; 16
    15e2:	77 e2       	ldi	r23, 0x27	; 39
    15e4:	0e 94 8a 30 	call	0x6114	; 0x6114 <__divmodhi4>
	if(ten_thousands > 0)
    15e8:	66 23       	and	r22, r22
    15ea:	39 f0       	breq	.+14     	; 0x15fa <_Z19USB_Transmit_Numberi+0x34>

void USB_Transmit(const char data )
{
	//while(!udi_cdc_is_tx_ready())
	//{
	udi_cdc_putc(data);
    15ec:	80 e3       	ldi	r24, 0x30	; 48
    15ee:	86 0f       	add	r24, r22
    15f0:	90 e0       	ldi	r25, 0x00	; 0
    15f2:	0e 94 b3 1e 	call	0x3d66	; 0x3d66 <udi_cdc_putc>
	bool started = false;
	uint8_t ten_thousands	= (num/10000);
	if(ten_thousands > 0)
	{
		USB_Transmit('0'+ten_thousands);
		started = true;
    15f6:	21 e0       	ldi	r18, 0x01	; 1
    15f8:	01 c0       	rjmp	.+2      	; 0x15fc <_Z19USB_Transmit_Numberi+0x36>
	{
		num = -num;
		USB_Transmit('-');
	}

	bool started = false;
    15fa:	20 e0       	ldi	r18, 0x00	; 0
	{
		USB_Transmit('0'+ten_thousands);
		started = true;
	}

	uint8_t thousands	= (num/1000)%10;
    15fc:	ce 01       	movw	r24, r28
    15fe:	68 ee       	ldi	r22, 0xE8	; 232
    1600:	73 e0       	ldi	r23, 0x03	; 3
    1602:	0e 94 8a 30 	call	0x6114	; 0x6114 <__divmodhi4>
    1606:	cb 01       	movw	r24, r22
    1608:	6a e0       	ldi	r22, 0x0A	; 10
    160a:	70 e0       	ldi	r23, 0x00	; 0
    160c:	0e 94 8a 30 	call	0x6114	; 0x6114 <__divmodhi4>
	if(thousands > 0)
    1610:	88 23       	and	r24, r24
    1612:	79 f0       	breq	.+30     	; 0x1632 <_Z19USB_Transmit_Numberi+0x6c>

void USB_Transmit(const char data )
{
	//while(!udi_cdc_is_tx_ready())
	//{
	udi_cdc_putc(data);
    1614:	80 5d       	subi	r24, 0xD0	; 208
    1616:	90 e0       	ldi	r25, 0x00	; 0
    1618:	0e 94 b3 1e 	call	0x3d66	; 0x3d66 <udi_cdc_putc>
	{
		USB_Transmit('0'+thousands);
		started = true;
	}

	uint8_t hundreds	= (num/100)%10;
    161c:	ce 01       	movw	r24, r28
    161e:	64 e6       	ldi	r22, 0x64	; 100
    1620:	70 e0       	ldi	r23, 0x00	; 0
    1622:	0e 94 8a 30 	call	0x6114	; 0x6114 <__divmodhi4>
    1626:	cb 01       	movw	r24, r22
    1628:	6a e0       	ldi	r22, 0x0A	; 10
    162a:	70 e0       	ldi	r23, 0x00	; 0
    162c:	0e 94 8a 30 	call	0x6114	; 0x6114 <__divmodhi4>
    1630:	0e c0       	rjmp	.+28     	; 0x164e <_Z19USB_Transmit_Numberi+0x88>
    1632:	ce 01       	movw	r24, r28
    1634:	64 e6       	ldi	r22, 0x64	; 100
    1636:	70 e0       	ldi	r23, 0x00	; 0
    1638:	0e 94 8a 30 	call	0x6114	; 0x6114 <__divmodhi4>
    163c:	cb 01       	movw	r24, r22
    163e:	6a e0       	ldi	r22, 0x0A	; 10
    1640:	70 e0       	ldi	r23, 0x00	; 0
    1642:	0e 94 8a 30 	call	0x6114	; 0x6114 <__divmodhi4>
	if(hundreds > 0 || started)
    1646:	81 11       	cpse	r24, r1
    1648:	02 c0       	rjmp	.+4      	; 0x164e <_Z19USB_Transmit_Numberi+0x88>
    164a:	22 23       	and	r18, r18
    164c:	e1 f0       	breq	.+56     	; 0x1686 <_Z19USB_Transmit_Numberi+0xc0>

void USB_Transmit(const char data )
{
	//while(!udi_cdc_is_tx_ready())
	//{
	udi_cdc_putc(data);
    164e:	80 5d       	subi	r24, 0xD0	; 208
    1650:	90 e0       	ldi	r25, 0x00	; 0
    1652:	0e 94 b3 1e 	call	0x3d66	; 0x3d66 <udi_cdc_putc>
	{
		USB_Transmit('0'+hundreds);
		started = true;
	}

	uint8_t tens		= (num/10)%10;
    1656:	2a e0       	ldi	r18, 0x0A	; 10
    1658:	30 e0       	ldi	r19, 0x00	; 0
    165a:	ce 01       	movw	r24, r28
    165c:	b9 01       	movw	r22, r18
    165e:	0e 94 8a 30 	call	0x6114	; 0x6114 <__divmodhi4>
    1662:	cb 01       	movw	r24, r22
    1664:	b9 01       	movw	r22, r18
    1666:	0e 94 8a 30 	call	0x6114	; 0x6114 <__divmodhi4>

void USB_Transmit(const char data )
{
	//while(!udi_cdc_is_tx_ready())
	//{
	udi_cdc_putc(data);
    166a:	80 5d       	subi	r24, 0xD0	; 208
    166c:	90 e0       	ldi	r25, 0x00	; 0
    166e:	0e 94 b3 1e 	call	0x3d66	; 0x3d66 <udi_cdc_putc>
    1672:	ce 01       	movw	r24, r28
    1674:	6a e0       	ldi	r22, 0x0A	; 10
    1676:	70 e0       	ldi	r23, 0x00	; 0
    1678:	0e 94 8a 30 	call	0x6114	; 0x6114 <__divmodhi4>
    167c:	80 5d       	subi	r24, 0xD0	; 208
    167e:	90 e0       	ldi	r25, 0x00	; 0
    1680:	0e 94 b3 1e 	call	0x3d66	; 0x3d66 <udi_cdc_putc>
		USB_Transmit('0'+tens);
		started = true;
	}
	
	USB_Transmit('0' + (num%10));
}
    1684:	0d c0       	rjmp	.+26     	; 0x16a0 <_Z19USB_Transmit_Numberi+0xda>
	{
		USB_Transmit('0'+hundreds);
		started = true;
	}

	uint8_t tens		= (num/10)%10;
    1686:	2a e0       	ldi	r18, 0x0A	; 10
    1688:	30 e0       	ldi	r19, 0x00	; 0
    168a:	ce 01       	movw	r24, r28
    168c:	b9 01       	movw	r22, r18
    168e:	0e 94 8a 30 	call	0x6114	; 0x6114 <__divmodhi4>
    1692:	cb 01       	movw	r24, r22
    1694:	b9 01       	movw	r22, r18
    1696:	0e 94 8a 30 	call	0x6114	; 0x6114 <__divmodhi4>
	if(tens > 0 || started)
    169a:	88 23       	and	r24, r24
    169c:	51 f3       	breq	.-44     	; 0x1672 <_Z19USB_Transmit_Numberi+0xac>
    169e:	e5 cf       	rjmp	.-54     	; 0x166a <_Z19USB_Transmit_Numberi+0xa4>
		USB_Transmit('0'+tens);
		started = true;
	}
	
	USB_Transmit('0' + (num%10));
}
    16a0:	df 91       	pop	r29
    16a2:	cf 91       	pop	r28
    16a4:	08 95       	ret

000016a6 <StopElevator>:
	}
}


/* blockly functie */
void StopElevator() {
    16a6:	0f 93       	push	r16
    16a8:	1f 93       	push	r17
    16aa:	cf 93       	push	r28
    16ac:	df 93       	push	r29
    16ae:	1f 92       	push	r1
    16b0:	cd b7       	in	r28, 0x3d	; 61
    16b2:	de b7       	in	r29, 0x3e	; 62
	DEBUG_OUT("-----STOPPING ELEVATOR------ \n\r");
    16b4:	69 e7       	ldi	r22, 0x79	; 121
    16b6:	71 e2       	ldi	r23, 0x21	; 33
    16b8:	80 ea       	ldi	r24, 0xA0	; 160
    16ba:	99 e0       	ldi	r25, 0x09	; 9
    16bc:	0e 94 94 09 	call	0x1328	; 0x1328 <_Z20USART_TransmitStringR12USART_structPKc>
	uint16_t motor_id = ELEVATOR_MOTOR_ID;
	char data[] = { MOTOR_OFF };
    16c0:	19 82       	std	Y+1, r1	; 0x01
	stepperWriteRegister(MOTOR_ENABLE_REG, data, sizeof(data) / sizeof(*data), motor_id, USARTE1); // Stopt lift motor
    16c2:	00 eb       	ldi	r16, 0xB0	; 176
    16c4:	1a e0       	ldi	r17, 0x0A	; 10
    16c6:	28 e0       	ldi	r18, 0x08	; 8
    16c8:	41 e0       	ldi	r20, 0x01	; 1
    16ca:	be 01       	movw	r22, r28
    16cc:	6f 5f       	subi	r22, 0xFF	; 255
    16ce:	7f 4f       	sbci	r23, 0xFF	; 255
    16d0:	8c e4       	ldi	r24, 0x4C	; 76
    16d2:	0e 94 bf 12 	call	0x257e	; 0x257e <_Z20stepperWriteRegisterhPKchhR12USART_struct>
}
    16d6:	0f 90       	pop	r0
    16d8:	df 91       	pop	r29
    16da:	cf 91       	pop	r28
    16dc:	1f 91       	pop	r17
    16de:	0f 91       	pop	r16
    16e0:	08 95       	ret

000016e2 <ElevatorIsReady>:


/* blockly functie */
bool ElevatorIsReady() {
    16e2:	cf 93       	push	r28
	
	if ((elevatorDirection == 1) && (elevatorIsUp == true)) {
    16e4:	80 91 b1 23 	lds	r24, 0x23B1	; 0x8023b1 <elevatorDirection>
    16e8:	88 23       	and	r24, r24
    16ea:	29 f0       	breq	.+10     	; 0x16f6 <ElevatorIsReady+0x14>
    16ec:	c0 91 b0 23 	lds	r28, 0x23B0	; 0x8023b0 <elevatorIsUp>
    16f0:	c1 11       	cpse	r28, r1
    16f2:	06 c0       	rjmp	.+12     	; 0x1700 <ElevatorIsReady+0x1e>
    16f4:	0a c0       	rjmp	.+20     	; 0x170a <ElevatorIsReady+0x28>
		StopElevator();
		return 1; // Lift is boven aangekomen
	}
	else if ((elevatorDirection == 0) && (elevatorIsDown == true)) {
    16f6:	c0 91 af 23 	lds	r28, 0x23AF	; 0x8023af <elevatorIsDown>
    16fa:	c1 11       	cpse	r28, r1
    16fc:	04 c0       	rjmp	.+8      	; 0x1706 <ElevatorIsReady+0x24>
    16fe:	05 c0       	rjmp	.+10     	; 0x170a <ElevatorIsReady+0x28>

/* blockly functie */
bool ElevatorIsReady() {
	
	if ((elevatorDirection == 1) && (elevatorIsUp == true)) {
		StopElevator();
    1700:	0e 94 53 0b 	call	0x16a6	; 0x16a6 <StopElevator>
		return 1; // Lift is boven aangekomen
    1704:	02 c0       	rjmp	.+4      	; 0x170a <ElevatorIsReady+0x28>
	}
	else if ((elevatorDirection == 0) && (elevatorIsDown == true)) {
		StopElevator();
    1706:	0e 94 53 0b 	call	0x16a6	; 0x16a6 <StopElevator>
		return 1; // Lift is beneden aangekomen
	}
	else {
		return 0; // Lift is nog bezig
	}
}
    170a:	8c 2f       	mov	r24, r28
    170c:	cf 91       	pop	r28
    170e:	08 95       	ret

00001710 <ElevatorButtonInISR>:
}


// ISR, switch is ingedrukt
void ElevatorButtonInISR(bool ElevatorIsUp) {
	if (ElevatorIsUp == elevatorDirection){ //Elevator stops moving if it reaches switch opposite to moving direction
    1710:	90 91 b1 23 	lds	r25, 0x23B1	; 0x8023b1 <elevatorDirection>
    1714:	98 13       	cpse	r25, r24
    1716:	0f c0       	rjmp	.+30     	; 0x1736 <ElevatorButtonInISR+0x26>
		if(elevatorDirection == true){ //(ev_richting 1 = up, 0 = down)
    1718:	99 23       	and	r25, r25
    171a:	31 f0       	breq	.+12     	; 0x1728 <ElevatorButtonInISR+0x18>
			elevatorIsUp = true;
    171c:	81 e0       	ldi	r24, 0x01	; 1
    171e:	80 93 b0 23 	sts	0x23B0, r24	; 0x8023b0 <elevatorIsUp>
			elevatorIsDown = false;
    1722:	10 92 af 23 	sts	0x23AF, r1	; 0x8023af <elevatorIsDown>
    1726:	05 c0       	rjmp	.+10     	; 0x1732 <ElevatorButtonInISR+0x22>
		}else { //(ev_richting 1 = up, 0 = down)
			elevatorIsUp = false;
    1728:	10 92 b0 23 	sts	0x23B0, r1	; 0x8023b0 <elevatorIsUp>
			elevatorIsDown = true;
    172c:	81 e0       	ldi	r24, 0x01	; 1
    172e:	80 93 af 23 	sts	0x23AF, r24	; 0x8023af <elevatorIsDown>
		}
		StopElevator();
    1732:	0e 94 53 0b 	call	0x16a6	; 0x16a6 <StopElevator>
    1736:	08 95       	ret

00001738 <ElevatorInit>:
	}
}

// Inputs voor de lift worden op Input-Pullup gezet
void ElevatorInit() {
    1738:	cf 93       	push	r28
    173a:	df 93       	push	r29
	PORTK_DIR &= ~(EV_SWITCH_PIN_UP); // Set pin as input
    173c:	e0 e2       	ldi	r30, 0x20	; 32
    173e:	f7 e0       	ldi	r31, 0x07	; 7
    1740:	80 81       	ld	r24, Z
    1742:	8f 7e       	andi	r24, 0xEF	; 239
    1744:	80 83       	st	Z, r24
	PORTK_DIR &= ~(EV_SWITCH_PIN_DOWN);
    1746:	80 81       	ld	r24, Z
    1748:	8f 7d       	andi	r24, 0xDF	; 223
    174a:	80 83       	st	Z, r24
		case PIN0_bm: PORTK_PIN0CTRL = PORT_OPC_PULLUP_gc; PORTK_PIN0CTRL = PORT_ISC_FALLING_gc; USART_TransmitString(USARTD0, "Set PIN0CTRL for DOWN\n\r"); break;
		case PIN1_bm: PORTK_PIN1CTRL = PORT_OPC_PULLUP_gc; PORTK_PIN1CTRL = PORT_ISC_FALLING_gc; USART_TransmitString(USARTD0, "Set PIN1CTRL for DOWN\n\r"); break;
		case PIN2_bm: PORTK_PIN2CTRL = PORT_OPC_PULLUP_gc; PORTK_PIN2CTRL = PORT_ISC_FALLING_gc; USART_TransmitString(USARTD0, "Set PIN2CTRL for DOWN\n\r"); break;
		case PIN3_bm: PORTK_PIN3CTRL = PORT_OPC_PULLUP_gc; PORTK_PIN3CTRL = PORT_ISC_FALLING_gc; USART_TransmitString(USARTD0, "Set PIN3CTRL for DOWN\n\r"); break;
		case PIN4_bm: PORTK_PIN4CTRL = PORT_OPC_PULLUP_gc; PORTK_PIN4CTRL = PORT_ISC_FALLING_gc; USART_TransmitString(USARTD0, "Set PIN4CTRL for DOWN\n\r"); break;
		case PIN5_bm: PORTK_PIN5CTRL = PORT_OPC_PULLUP_gc; PORTK_PIN5CTRL = PORT_ISC_FALLING_gc; USART_TransmitString(USARTD0, "Set PIN5CTRL for DOWN\n\r"); break;
    174c:	e5 e3       	ldi	r30, 0x35	; 53
    174e:	f7 e0       	ldi	r31, 0x07	; 7
    1750:	d8 e1       	ldi	r29, 0x18	; 24
    1752:	d0 83       	st	Z, r29
    1754:	c2 e0       	ldi	r28, 0x02	; 2
    1756:	c0 83       	st	Z, r28
    1758:	69 e9       	ldi	r22, 0x99	; 153
    175a:	71 e2       	ldi	r23, 0x21	; 33
    175c:	80 ea       	ldi	r24, 0xA0	; 160
    175e:	99 e0       	ldi	r25, 0x09	; 9
    1760:	0e 94 94 09 	call	0x1328	; 0x1328 <_Z20USART_TransmitStringR12USART_structPKc>
	switch(EV_SWITCH_PIN_UP){
		case PIN0_bm: PORTK_PIN0CTRL = PORT_OPC_PULLUP_gc; PORTK_PIN0CTRL = PORT_ISC_FALLING_gc; USART_TransmitString(USARTD0, "Set PIN0CTRL for UP\n\r"); break;
		case PIN1_bm: PORTK_PIN1CTRL = PORT_OPC_PULLUP_gc; PORTK_PIN1CTRL = PORT_ISC_FALLING_gc; USART_TransmitString(USARTD0, "Set PIN1CTRL for UP\n\r"); break;
		case PIN2_bm: PORTK_PIN2CTRL = PORT_OPC_PULLUP_gc; PORTK_PIN2CTRL = PORT_ISC_FALLING_gc; USART_TransmitString(USARTD0, "Set PIN2CTRL for UP\n\r"); break;
		case PIN3_bm: PORTK_PIN3CTRL = PORT_OPC_PULLUP_gc; PORTK_PIN3CTRL = PORT_ISC_FALLING_gc; USART_TransmitString(USARTD0, "Set PIN3CTRL for UP\n\r"); break;
		case PIN4_bm: PORTK_PIN4CTRL = PORT_OPC_PULLUP_gc; PORTK_PIN4CTRL = PORT_ISC_FALLING_gc; USART_TransmitString(USARTD0, "Set PIN4CTRL for UP\n\r"); break;
    1764:	e4 e3       	ldi	r30, 0x34	; 52
    1766:	f7 e0       	ldi	r31, 0x07	; 7
    1768:	d0 83       	st	Z, r29
    176a:	c0 83       	st	Z, r28
    176c:	61 eb       	ldi	r22, 0xB1	; 177
    176e:	71 e2       	ldi	r23, 0x21	; 33
    1770:	80 ea       	ldi	r24, 0xA0	; 160
    1772:	99 e0       	ldi	r25, 0x09	; 9
    1774:	0e 94 94 09 	call	0x1328	; 0x1328 <_Z20USART_TransmitStringR12USART_structPKc>
		case PIN6_bm: PORTK_PIN6CTRL = PORT_OPC_PULLUP_gc; PORTK_PIN6CTRL = PORT_ISC_FALLING_gc; USART_TransmitString(USARTD0, "Set PIN6CTRL for UP\n\r"); break;
		case PIN7_bm: PORTK_PIN7CTRL = PORT_OPC_PULLUP_gc; PORTK_PIN7CTRL = PORT_ISC_FALLING_gc; USART_TransmitString(USARTD0, "Set PIN7CTRL for UP\n\r"); break;
		default: break;
	}

	PORTK_INT0MASK |= EV_SWITCH_PIN_UP; // Stel pin in interrupt opwekkende pin, in het K register
    1778:	ea e2       	ldi	r30, 0x2A	; 42
    177a:	f7 e0       	ldi	r31, 0x07	; 7
    177c:	80 81       	ld	r24, Z
    177e:	80 61       	ori	r24, 0x10	; 16
    1780:	80 83       	st	Z, r24
	PORTK_INT0MASK |= EV_SWITCH_PIN_DOWN;
    1782:	80 81       	ld	r24, Z
    1784:	80 62       	ori	r24, 0x20	; 32
    1786:	80 83       	st	Z, r24


	PORTK_INTCTRL |= PORT_INT0LVL0_bm; // Enable PORTK INT0 as a Low-Level interrupt
    1788:	e9 e2       	ldi	r30, 0x29	; 41
    178a:	f7 e0       	ldi	r31, 0x07	; 7
    178c:	80 81       	ld	r24, Z
    178e:	81 60       	ori	r24, 0x01	; 1
    1790:	80 83       	st	Z, r24
}
    1792:	df 91       	pop	r29
    1794:	cf 91       	pop	r28
    1796:	08 95       	ret

00001798 <ElevatorInterruptSetup>:


// Deprecated. Functionality moved to ElevatorInit()
void ElevatorInterruptSetup() {
	PORTK_INT0MASK |= EV_SWITCH_PIN_UP; // Stel pin in interreupt opwekkende pin, in het K register
    1798:	ea e2       	ldi	r30, 0x2A	; 42
    179a:	f7 e0       	ldi	r31, 0x07	; 7
    179c:	80 81       	ld	r24, Z
    179e:	80 61       	ori	r24, 0x10	; 16
    17a0:	80 83       	st	Z, r24
	PORTK_INT0MASK |= EV_SWITCH_PIN_DOWN;
    17a2:	80 81       	ld	r24, Z
    17a4:	80 62       	ori	r24, 0x20	; 32
    17a6:	80 83       	st	Z, r24

	PORTK_PIN4CTRL |= PORT_ISC_FALLING_gc; // Interupts op beide flanken
    17a8:	e4 e3       	ldi	r30, 0x34	; 52
    17aa:	f7 e0       	ldi	r31, 0x07	; 7
    17ac:	80 81       	ld	r24, Z
    17ae:	82 60       	ori	r24, 0x02	; 2
    17b0:	80 83       	st	Z, r24
	PORTK_PIN5CTRL |= PORT_ISC_FALLING_gc;
    17b2:	e5 e3       	ldi	r30, 0x35	; 53
    17b4:	f7 e0       	ldi	r31, 0x07	; 7
    17b6:	80 81       	ld	r24, Z
    17b8:	82 60       	ori	r24, 0x02	; 2
    17ba:	80 83       	st	Z, r24
	// 31-03-2021, Falling edges om gedrag daarvan te bestuderen


	PORTK_INTCTRL |= PORT_INT0LVL0_bm; // Enable PORTK INT0 as a Low-Level interrupt
    17bc:	e9 e2       	ldi	r30, 0x29	; 41
    17be:	f7 e0       	ldi	r31, 0x07	; 7
    17c0:	80 81       	ld	r24, Z
    17c2:	81 60       	ori	r24, 0x01	; 1
    17c4:	80 83       	st	Z, r24
    17c6:	08 95       	ret

000017c8 <ConfigElevator>:

bool ConfigElevator(bool direction) {

	bool start = 0;

	if (!(PORTK_IN & EV_SWITCH_PIN_UP) && (direction == 1)) {
    17c8:	90 91 28 07 	lds	r25, 0x0728	; 0x800728 <__TEXT_REGION_LENGTH__+0x700728>
    17cc:	94 fd       	sbrc	r25, 4
    17ce:	19 c0       	rjmp	.+50     	; 0x1802 <ConfigElevator+0x3a>
    17d0:	81 11       	cpse	r24, r1
    17d2:	1c c0       	rjmp	.+56     	; 0x180c <ConfigElevator+0x44>
    17d4:	48 c0       	rjmp	.+144    	; 0x1866 <ConfigElevator+0x9e>
		elevatorIsUp = true;
		start = 0; // Lift mag niet starten, want wil naar boven en is al boven
	}
	else if (!(PORTK_IN & EV_SWITCH_PIN_DOWN) && (direction == 0)) {
    17d6:	81 11       	cpse	r24, r1
    17d8:	21 c0       	rjmp	.+66     	; 0x181c <ConfigElevator+0x54>
    17da:	1c c0       	rjmp	.+56     	; 0x1814 <ConfigElevator+0x4c>
		elevatorIsDown = true;
		start = 0; // Lift mag niet starten, want wil naar beneden en is al beneden
	}
	else if ((elevatorIsUp == true) && (elevatorIsDown == true)) {
    17dc:	90 91 af 23 	lds	r25, 0x23AF	; 0x8023af <elevatorIsDown>
    17e0:	91 11       	cpse	r25, r1
    17e2:	0d c0       	rjmp	.+26     	; 0x17fe <ConfigElevator+0x36>
    17e4:	1f c0       	rjmp	.+62     	; 0x1824 <ConfigElevator+0x5c>
		start = 0; // Lift mag niet starten, want is boven en beneden, ERROR!!!
	}
	else if (!(PORTK_IN & EV_SWITCH_PIN_UP) && (direction == 0)) {
    17e6:	81 11       	cpse	r24, r1
    17e8:	43 c0       	rjmp	.+134    	; 0x1870 <ConfigElevator+0xa8>
    17ea:	25 c0       	rjmp	.+74     	; 0x1836 <ConfigElevator+0x6e>
		elevatorIsUp = true;
		start = 1; // Lift mag starten, want is boven en wil naar beneden
	}
	else if (!(PORTK_IN & EV_SWITCH_PIN_DOWN) && (direction == 1)) {
    17ec:	88 23       	and	r24, r24
    17ee:	59 f1       	breq	.+86     	; 0x1846 <ConfigElevator+0x7e>
    17f0:	26 c0       	rjmp	.+76     	; 0x183e <ConfigElevator+0x76>
		elevatorIsDown = true;
		start = 1; // Lift mag starten, want wil naar boven en is beneden
	}
	else if ((PORTK_IN & EV_SWITCH_PIN_UP) && (PORTK_IN & EV_SWITCH_PIN_DOWN)) {
    17f2:	80 91 28 07 	lds	r24, 0x0728	; 0x800728 <__TEXT_REGION_LENGTH__+0x700728>
    17f6:	85 fd       	sbrc	r24, 5
    17f8:	2c c0       	rjmp	.+88     	; 0x1852 <ConfigElevator+0x8a>
	if (start == 1) {
		ElevatorInterruptSetup(); // Pinnen worden ingesteld om interrupts te kunnen genereren 
		return 1; // Lift mag starten
	}
	else {
		return 0; // Lift mag niet starten
    17fa:	80 e0       	ldi	r24, 0x00	; 0
    17fc:	08 95       	ret
    17fe:	80 e0       	ldi	r24, 0x00	; 0
    1800:	08 95       	ret

	if (!(PORTK_IN & EV_SWITCH_PIN_UP) && (direction == 1)) {
		elevatorIsUp = true;
		start = 0; // Lift mag niet starten, want wil naar boven en is al boven
	}
	else if (!(PORTK_IN & EV_SWITCH_PIN_DOWN) && (direction == 0)) {
    1802:	90 91 28 07 	lds	r25, 0x0728	; 0x800728 <__TEXT_REGION_LENGTH__+0x700728>
    1806:	95 ff       	sbrs	r25, 5
    1808:	e6 cf       	rjmp	.-52     	; 0x17d6 <ConfigElevator+0xe>
    180a:	08 c0       	rjmp	.+16     	; 0x181c <ConfigElevator+0x54>
bool ConfigElevator(bool direction) {

	bool start = 0;

	if (!(PORTK_IN & EV_SWITCH_PIN_UP) && (direction == 1)) {
		elevatorIsUp = true;
    180c:	81 e0       	ldi	r24, 0x01	; 1
    180e:	80 93 b0 23 	sts	0x23B0, r24	; 0x8023b0 <elevatorIsUp>
    1812:	27 c0       	rjmp	.+78     	; 0x1862 <ConfigElevator+0x9a>
		start = 0; // Lift mag niet starten, want wil naar boven en is al boven
	}
	else if (!(PORTK_IN & EV_SWITCH_PIN_DOWN) && (direction == 0)) {
		elevatorIsDown = true;
    1814:	81 e0       	ldi	r24, 0x01	; 1
    1816:	80 93 af 23 	sts	0x23AF, r24	; 0x8023af <elevatorIsDown>
    181a:	23 c0       	rjmp	.+70     	; 0x1862 <ConfigElevator+0x9a>
		start = 0; // Lift mag niet starten, want wil naar beneden en is al beneden
	}
	else if ((elevatorIsUp == true) && (elevatorIsDown == true)) {
    181c:	90 91 b0 23 	lds	r25, 0x23B0	; 0x8023b0 <elevatorIsUp>
    1820:	91 11       	cpse	r25, r1
    1822:	dc cf       	rjmp	.-72     	; 0x17dc <ConfigElevator+0x14>
		start = 0; // Lift mag niet starten, want is boven en beneden, ERROR!!!
	}
	else if (!(PORTK_IN & EV_SWITCH_PIN_UP) && (direction == 0)) {
    1824:	90 91 28 07 	lds	r25, 0x0728	; 0x800728 <__TEXT_REGION_LENGTH__+0x700728>
    1828:	94 ff       	sbrs	r25, 4
    182a:	dd cf       	rjmp	.-70     	; 0x17e6 <ConfigElevator+0x1e>
		elevatorIsUp = true;
		start = 1; // Lift mag starten, want is boven en wil naar beneden
	}
	else if (!(PORTK_IN & EV_SWITCH_PIN_DOWN) && (direction == 1)) {
    182c:	90 91 28 07 	lds	r25, 0x0728	; 0x800728 <__TEXT_REGION_LENGTH__+0x700728>
    1830:	95 ff       	sbrs	r25, 5
    1832:	dc cf       	rjmp	.-72     	; 0x17ec <ConfigElevator+0x24>
    1834:	08 c0       	rjmp	.+16     	; 0x1846 <ConfigElevator+0x7e>
	}
	else if ((elevatorIsUp == true) && (elevatorIsDown == true)) {
		start = 0; // Lift mag niet starten, want is boven en beneden, ERROR!!!
	}
	else if (!(PORTK_IN & EV_SWITCH_PIN_UP) && (direction == 0)) {
		elevatorIsUp = true;
    1836:	81 e0       	ldi	r24, 0x01	; 1
    1838:	80 93 b0 23 	sts	0x23B0, r24	; 0x8023b0 <elevatorIsUp>
    183c:	0e c0       	rjmp	.+28     	; 0x185a <ConfigElevator+0x92>
		start = 1; // Lift mag starten, want is boven en wil naar beneden
	}
	else if (!(PORTK_IN & EV_SWITCH_PIN_DOWN) && (direction == 1)) {
		elevatorIsDown = true;
    183e:	81 e0       	ldi	r24, 0x01	; 1
    1840:	80 93 af 23 	sts	0x23AF, r24	; 0x8023af <elevatorIsDown>
    1844:	0a c0       	rjmp	.+20     	; 0x185a <ConfigElevator+0x92>
		start = 1; // Lift mag starten, want wil naar boven en is beneden
	}
	else if ((PORTK_IN & EV_SWITCH_PIN_UP) && (PORTK_IN & EV_SWITCH_PIN_DOWN)) {
    1846:	80 91 28 07 	lds	r24, 0x0728	; 0x800728 <__TEXT_REGION_LENGTH__+0x700728>
    184a:	84 fd       	sbrc	r24, 4
    184c:	d2 cf       	rjmp	.-92     	; 0x17f2 <ConfigElevator+0x2a>
	if (start == 1) {
		ElevatorInterruptSetup(); // Pinnen worden ingesteld om interrupts te kunnen genereren 
		return 1; // Lift mag starten
	}
	else {
		return 0; // Lift mag niet starten
    184e:	80 e0       	ldi	r24, 0x00	; 0
    1850:	08 95       	ret
	else if (!(PORTK_IN & EV_SWITCH_PIN_DOWN) && (direction == 1)) {
		elevatorIsDown = true;
		start = 1; // Lift mag starten, want wil naar boven en is beneden
	}
	else if ((PORTK_IN & EV_SWITCH_PIN_UP) && (PORTK_IN & EV_SWITCH_PIN_DOWN)) {
		elevatorIsUp = false;
    1852:	10 92 b0 23 	sts	0x23B0, r1	; 0x8023b0 <elevatorIsUp>
		elevatorIsDown = false;
    1856:	10 92 af 23 	sts	0x23AF, r1	; 0x8023af <elevatorIsDown>
	}

	

	if (start == 1) {
		ElevatorInterruptSetup(); // Pinnen worden ingesteld om interrupts te kunnen genereren 
    185a:	0e 94 cc 0b 	call	0x1798	; 0x1798 <ElevatorInterruptSetup>
		return 1; // Lift mag starten
    185e:	81 e0       	ldi	r24, 0x01	; 1
    1860:	08 95       	ret
	}
	else {
		return 0; // Lift mag niet starten
    1862:	80 e0       	ldi	r24, 0x00	; 0
    1864:	08 95       	ret

	if (!(PORTK_IN & EV_SWITCH_PIN_UP) && (direction == 1)) {
		elevatorIsUp = true;
		start = 0; // Lift mag niet starten, want wil naar boven en is al boven
	}
	else if (!(PORTK_IN & EV_SWITCH_PIN_DOWN) && (direction == 0)) {
    1866:	90 91 28 07 	lds	r25, 0x0728	; 0x800728 <__TEXT_REGION_LENGTH__+0x700728>
    186a:	95 ff       	sbrs	r25, 5
    186c:	d3 cf       	rjmp	.-90     	; 0x1814 <ConfigElevator+0x4c>
    186e:	d6 cf       	rjmp	.-84     	; 0x181c <ConfigElevator+0x54>
	}
	else if (!(PORTK_IN & EV_SWITCH_PIN_UP) && (direction == 0)) {
		elevatorIsUp = true;
		start = 1; // Lift mag starten, want is boven en wil naar beneden
	}
	else if (!(PORTK_IN & EV_SWITCH_PIN_DOWN) && (direction == 1)) {
    1870:	80 91 28 07 	lds	r24, 0x0728	; 0x800728 <__TEXT_REGION_LENGTH__+0x700728>
    1874:	85 ff       	sbrs	r24, 5
    1876:	e3 cf       	rjmp	.-58     	; 0x183e <ConfigElevator+0x76>
    1878:	e6 cf       	rjmp	.-52     	; 0x1846 <ConfigElevator+0x7e>

0000187a <MoveElevator>:

bool elevatorDirection;							// Richting van de lift
volatile bool elevatorIsUp, elevatorIsDown;	// Boleans om de stand van de lift bij te houden

/* blockly functie */
void MoveElevator(bool direction) {
    187a:	ff 92       	push	r15
    187c:	0f 93       	push	r16
    187e:	1f 93       	push	r17
    1880:	cf 93       	push	r28
    1882:	df 93       	push	r29
    1884:	cd b7       	in	r28, 0x3d	; 61
    1886:	de b7       	in	r29, 0x3e	; 62
    1888:	28 97       	sbiw	r28, 0x08	; 8
    188a:	cd bf       	out	0x3d, r28	; 61
    188c:	de bf       	out	0x3e, r29	; 62
    188e:	f8 2e       	mov	r15, r24
	elevatorDirection = !direction;//if up is called the elevator moves down, this is fixed using the !
    1890:	81 e0       	ldi	r24, 0x01	; 1
    1892:	8f 25       	eor	r24, r15
    1894:	80 93 b1 23 	sts	0x23B1, r24	; 0x8023b1 <elevatorDirection>
	if (ConfigElevator(!direction)) {
    1898:	0e 94 e4 0b 	call	0x17c8	; 0x17c8 <ConfigElevator>
    189c:	88 23       	and	r24, r24
    189e:	49 f1       	breq	.+82     	; 0x18f2 <MoveElevator+0x78>
		DEBUG_OUT("-----MOVING ELEVATOR------ \n\r");
    18a0:	67 ec       	ldi	r22, 0xC7	; 199
    18a2:	71 e2       	ldi	r23, 0x21	; 33
    18a4:	80 ea       	ldi	r24, 0xA0	; 160
    18a6:	99 e0       	ldi	r25, 0x09	; 9
    18a8:	0e 94 94 09 	call	0x1328	; 0x1328 <_Z20USART_TransmitStringR12USART_structPKc>
		
		uint16_t motor_id = ELEVATOR_MOTOR_ID; // Motor ID van lift
		bool Direction = direction;

		char directiondata[] = { Direction };
    18ac:	f8 86       	std	Y+8, r15	; 0x08
		stepperWriteRegister(DIRECTION_REG, directiondata, sizeof(directiondata) / sizeof(*directiondata), motor_id, USARTE1);
    18ae:	00 eb       	ldi	r16, 0xB0	; 176
    18b0:	1a e0       	ldi	r17, 0x0A	; 10
    18b2:	28 e0       	ldi	r18, 0x08	; 8
    18b4:	41 e0       	ldi	r20, 0x01	; 1
    18b6:	be 01       	movw	r22, r28
    18b8:	68 5f       	subi	r22, 0xF8	; 248
    18ba:	7f 4f       	sbci	r23, 0xFF	; 255
    18bc:	8a e4       	ldi	r24, 0x4A	; 74
    18be:	0e 94 bf 12 	call	0x257e	; 0x257e <_Z20stepperWriteRegisterhPKchhR12USART_struct>
		char data[] = { 0x03,0x66,0xFF,0xFF,Direction,MOTOR_STEP_HALF,MOTOR_ON };
    18c2:	be 01       	movw	r22, r28
    18c4:	6f 5f       	subi	r22, 0xFF	; 255
    18c6:	7f 4f       	sbci	r23, 0xFF	; 255
    18c8:	87 e0       	ldi	r24, 0x07	; 7
    18ca:	fb 01       	movw	r30, r22
    18cc:	11 92       	st	Z+, r1
    18ce:	8a 95       	dec	r24
    18d0:	e9 f7       	brne	.-6      	; 0x18cc <MoveElevator+0x52>
    18d2:	83 e0       	ldi	r24, 0x03	; 3
    18d4:	89 83       	std	Y+1, r24	; 0x01
    18d6:	86 e6       	ldi	r24, 0x66	; 102
    18d8:	8a 83       	std	Y+2, r24	; 0x02
    18da:	8f ef       	ldi	r24, 0xFF	; 255
    18dc:	8b 83       	std	Y+3, r24	; 0x03
    18de:	8c 83       	std	Y+4, r24	; 0x04
    18e0:	81 e0       	ldi	r24, 0x01	; 1
    18e2:	8e 83       	std	Y+6, r24	; 0x06
    18e4:	8f 83       	std	Y+7, r24	; 0x07
    18e6:	fd 82       	std	Y+5, r15	; 0x05
		stepperWriteRegister(STEPS_PS_HREG, data, sizeof(data) / sizeof(*data), motor_id, USARTE1);
    18e8:	28 e0       	ldi	r18, 0x08	; 8
    18ea:	47 e0       	ldi	r20, 0x07	; 7
    18ec:	86 e4       	ldi	r24, 0x46	; 70
    18ee:	0e 94 bf 12 	call	0x257e	; 0x257e <_Z20stepperWriteRegisterhPKchhR12USART_struct>
	}
}
    18f2:	28 96       	adiw	r28, 0x08	; 8
    18f4:	cd bf       	out	0x3d, r28	; 61
    18f6:	de bf       	out	0x3e, r29	; 62
    18f8:	df 91       	pop	r29
    18fa:	cf 91       	pop	r28
    18fc:	1f 91       	pop	r17
    18fe:	0f 91       	pop	r16
    1900:	ff 90       	pop	r15
    1902:	08 95       	ret

00001904 <_Z11gpioSetModeh9gpioModes>:


void gpioSetMode(uint8_t pin, gpioModes_t mode)
{
	//Set the PORTK Direction register using the DIRSET and DIRCLR register
	if(mode == GPIO_MODE_INPUT){
    1904:	61 11       	cpse	r22, r1
    1906:	03 c0       	rjmp	.+6      	; 0x190e <_Z11gpioSetModeh9gpioModes+0xa>
		//Write PORTK_DIR bit 'pin' to 0
		PORTK_DIRCLR = pin;
    1908:	80 93 22 07 	sts	0x0722, r24	; 0x800722 <__TEXT_REGION_LENGTH__+0x700722>
    190c:	08 95       	ret
	}
	else if(mode == GPIO_MODE_OUTPUT){
    190e:	61 30       	cpi	r22, 0x01	; 1
    1910:	11 f4       	brne	.+4      	; 0x1916 <_Z11gpioSetModeh9gpioModes+0x12>
		PORTK_DIRSET = pin;
    1912:	80 93 21 07 	sts	0x0721, r24	; 0x800721 <__TEXT_REGION_LENGTH__+0x700721>
    1916:	08 95       	ret

00001918 <_Z12gpioSetLevelhb>:
}

void gpioSetLevel(uint8_t pin, bool level)
{
	//Set the output level of PORTK using the OUTSET and OUTCLR register
	if(level){
    1918:	66 23       	and	r22, r22
    191a:	19 f0       	breq	.+6      	; 0x1922 <_Z12gpioSetLevelhb+0xa>
		PORTK_OUTSET = pin;
    191c:	80 93 25 07 	sts	0x0725, r24	; 0x800725 <__TEXT_REGION_LENGTH__+0x700725>
    1920:	08 95       	ret
	}
	else{
		PORTK_OUTCLR = pin;
    1922:	80 93 26 07 	sts	0x0726, r24	; 0x800726 <__TEXT_REGION_LENGTH__+0x700726>
    1926:	08 95       	ret

00001928 <_Z12gpioGetLevelh>:
}

bool gpioGetLevel(uint8_t pin)
{
	
	return ((PORTK_IN & pin) ? 1 : 0);
    1928:	90 91 28 07 	lds	r25, 0x0728	; 0x800728 <__TEXT_REGION_LENGTH__+0x700728>
    192c:	98 23       	and	r25, r24
    192e:	81 e0       	ldi	r24, 0x01	; 1
    1930:	09 f4       	brne	.+2      	; 0x1934 <_Z12gpioGetLevelh+0xc>
    1932:	80 e0       	ldi	r24, 0x00	; 0
}
    1934:	08 95       	ret

00001936 <IO_ReadWrite>:

#ifndef DIGITALIO_H_
#define DIGITALIO_H_

bool IO_ReadWrite(bool value, uint8_t io_port)
{
    1936:	28 2f       	mov	r18, r24
	switch(io_port)
    1938:	86 2f       	mov	r24, r22
    193a:	90 e0       	ldi	r25, 0x00	; 0
    193c:	fc 01       	movw	r30, r24
    193e:	31 97       	sbiw	r30, 0x01	; 1
    1940:	ec 30       	cpi	r30, 0x0C	; 12
    1942:	f1 05       	cpc	r31, r1
    1944:	08 f0       	brcs	.+2      	; 0x1948 <IO_ReadWrite+0x12>
    1946:	b6 c0       	rjmp	.+364    	; 0x1ab4 <IO_ReadWrite+0x17e>
    1948:	88 27       	eor	r24, r24
    194a:	e2 50       	subi	r30, 0x02	; 2
    194c:	ff 4f       	sbci	r31, 0xFF	; 255
    194e:	8f 4f       	sbci	r24, 0xFF	; 255
    1950:	0c 94 df 30 	jmp	0x61be	; 0x61be <__tablejump2__>
	{
		case 1:
		if (value == true)
    1954:	22 23       	and	r18, r18
    1956:	21 f0       	breq	.+8      	; 0x1960 <IO_ReadWrite+0x2a>
		{
			PORTK_OUTSET = (1<<PIN7_bp);
    1958:	80 e8       	ldi	r24, 0x80	; 128
    195a:	80 93 25 07 	sts	0x0725, r24	; 0x800725 <__TEXT_REGION_LENGTH__+0x700725>
    195e:	03 c0       	rjmp	.+6      	; 0x1966 <IO_ReadWrite+0x30>
		}
		else
		{
			PORTK_OUTCLR = (1<<PIN7_bp);
    1960:	80 e8       	ldi	r24, 0x80	; 128
    1962:	80 93 26 07 	sts	0x0726, r24	; 0x800726 <__TEXT_REGION_LENGTH__+0x700726>
		}
		return (PORTK_IN &(1<<PIN7_bp));
    1966:	80 91 28 07 	lds	r24, 0x0728	; 0x800728 <__TEXT_REGION_LENGTH__+0x700728>
    196a:	88 1f       	adc	r24, r24
    196c:	88 27       	eor	r24, r24
    196e:	88 1f       	adc	r24, r24
    1970:	08 95       	ret
		break;
		
		case 2:
		if (value == true)
    1972:	22 23       	and	r18, r18
    1974:	21 f0       	breq	.+8      	; 0x197e <IO_ReadWrite+0x48>
		{
			PORTK_OUTSET = (1<<PIN6_bp);
    1976:	80 e4       	ldi	r24, 0x40	; 64
    1978:	80 93 25 07 	sts	0x0725, r24	; 0x800725 <__TEXT_REGION_LENGTH__+0x700725>
    197c:	03 c0       	rjmp	.+6      	; 0x1984 <IO_ReadWrite+0x4e>
		}
		else
		{
			PORTK_OUTCLR = (1<<PIN6_bp);
    197e:	80 e4       	ldi	r24, 0x40	; 64
    1980:	80 93 26 07 	sts	0x0726, r24	; 0x800726 <__TEXT_REGION_LENGTH__+0x700726>
		}
		return (PORTK_IN &(1<<PIN6_bp));
    1984:	80 91 28 07 	lds	r24, 0x0728	; 0x800728 <__TEXT_REGION_LENGTH__+0x700728>
    1988:	86 fb       	bst	r24, 6
    198a:	88 27       	eor	r24, r24
    198c:	80 f9       	bld	r24, 0
    198e:	08 95       	ret
		break;
		
		case 3:
		if (value == true)
    1990:	22 23       	and	r18, r18
    1992:	21 f0       	breq	.+8      	; 0x199c <IO_ReadWrite+0x66>
		{
			PORTK_OUTSET = (1<<PIN5_bp);
    1994:	80 e2       	ldi	r24, 0x20	; 32
    1996:	80 93 25 07 	sts	0x0725, r24	; 0x800725 <__TEXT_REGION_LENGTH__+0x700725>
    199a:	03 c0       	rjmp	.+6      	; 0x19a2 <IO_ReadWrite+0x6c>
		}
		else
		{
			PORTK_OUTCLR = (1<<PIN5_bp);
    199c:	80 e2       	ldi	r24, 0x20	; 32
    199e:	80 93 26 07 	sts	0x0726, r24	; 0x800726 <__TEXT_REGION_LENGTH__+0x700726>
		}
		return (PORTK_IN &(1<<PIN5_bp));
    19a2:	80 91 28 07 	lds	r24, 0x0728	; 0x800728 <__TEXT_REGION_LENGTH__+0x700728>
    19a6:	85 fb       	bst	r24, 5
    19a8:	88 27       	eor	r24, r24
    19aa:	80 f9       	bld	r24, 0
    19ac:	08 95       	ret
		break;
		
		case 4: //Lift limit switches
		if (value == true)
    19ae:	22 23       	and	r18, r18
    19b0:	21 f0       	breq	.+8      	; 0x19ba <IO_ReadWrite+0x84>
		{
			PORTK_OUTSET = (1<<PIN4_bp);
    19b2:	80 e1       	ldi	r24, 0x10	; 16
    19b4:	80 93 25 07 	sts	0x0725, r24	; 0x800725 <__TEXT_REGION_LENGTH__+0x700725>
    19b8:	03 c0       	rjmp	.+6      	; 0x19c0 <IO_ReadWrite+0x8a>
		}
		else
		{
			PORTK_OUTCLR = (1<<PIN4_bp);
    19ba:	80 e1       	ldi	r24, 0x10	; 16
    19bc:	80 93 26 07 	sts	0x0726, r24	; 0x800726 <__TEXT_REGION_LENGTH__+0x700726>
		}
		return (PORTK_IN &(1<<PIN4_bp));
    19c0:	80 91 28 07 	lds	r24, 0x0728	; 0x800728 <__TEXT_REGION_LENGTH__+0x700728>
    19c4:	82 95       	swap	r24
    19c6:	81 70       	andi	r24, 0x01	; 1
    19c8:	08 95       	ret
		break;
		
		case 5:
		if (value == true)
    19ca:	22 23       	and	r18, r18
    19cc:	21 f0       	breq	.+8      	; 0x19d6 <IO_ReadWrite+0xa0>
		{
			PORTK_OUTSET = (1<<PIN3_bp);
    19ce:	88 e0       	ldi	r24, 0x08	; 8
    19d0:	80 93 25 07 	sts	0x0725, r24	; 0x800725 <__TEXT_REGION_LENGTH__+0x700725>
    19d4:	03 c0       	rjmp	.+6      	; 0x19dc <IO_ReadWrite+0xa6>
		}
		else
		{
			PORTK_OUTCLR = (1<<PIN3_bp);
    19d6:	88 e0       	ldi	r24, 0x08	; 8
    19d8:	80 93 26 07 	sts	0x0726, r24	; 0x800726 <__TEXT_REGION_LENGTH__+0x700726>
		}
		return (PORTK_IN &(1<<PIN3_bp));
    19dc:	80 91 28 07 	lds	r24, 0x0728	; 0x800728 <__TEXT_REGION_LENGTH__+0x700728>
    19e0:	83 fb       	bst	r24, 3
    19e2:	88 27       	eor	r24, r24
    19e4:	80 f9       	bld	r24, 0
    19e6:	08 95       	ret
		break;
		
		case 6:
		if (value == true)
    19e8:	22 23       	and	r18, r18
    19ea:	21 f0       	breq	.+8      	; 0x19f4 <IO_ReadWrite+0xbe>
		{
			PORTK_OUTSET = (1<<PIN2_bp);
    19ec:	84 e0       	ldi	r24, 0x04	; 4
    19ee:	80 93 25 07 	sts	0x0725, r24	; 0x800725 <__TEXT_REGION_LENGTH__+0x700725>
    19f2:	03 c0       	rjmp	.+6      	; 0x19fa <IO_ReadWrite+0xc4>
		}
		else
		{
			PORTK_OUTCLR = (1<<PIN2_bp);
    19f4:	84 e0       	ldi	r24, 0x04	; 4
    19f6:	80 93 26 07 	sts	0x0726, r24	; 0x800726 <__TEXT_REGION_LENGTH__+0x700726>
		}
		return (PORTK_IN &(1<<PIN2_bp));
    19fa:	80 91 28 07 	lds	r24, 0x0728	; 0x800728 <__TEXT_REGION_LENGTH__+0x700728>
    19fe:	82 fb       	bst	r24, 2
    1a00:	88 27       	eor	r24, r24
    1a02:	80 f9       	bld	r24, 0
    1a04:	08 95       	ret
		break;
		
		case 7:
		if (value == true)
    1a06:	22 23       	and	r18, r18
    1a08:	21 f0       	breq	.+8      	; 0x1a12 <IO_ReadWrite+0xdc>
		{
			PORTK_OUTSET = (1<<PIN1_bp);
    1a0a:	82 e0       	ldi	r24, 0x02	; 2
    1a0c:	80 93 25 07 	sts	0x0725, r24	; 0x800725 <__TEXT_REGION_LENGTH__+0x700725>
    1a10:	03 c0       	rjmp	.+6      	; 0x1a18 <IO_ReadWrite+0xe2>
		}
		else
		{
			PORTK_OUTCLR = (1<<PIN1_bp);
    1a12:	82 e0       	ldi	r24, 0x02	; 2
    1a14:	80 93 26 07 	sts	0x0726, r24	; 0x800726 <__TEXT_REGION_LENGTH__+0x700726>
		}
		return (PORTK_IN &(1<<PIN1_bp));
    1a18:	80 91 28 07 	lds	r24, 0x0728	; 0x800728 <__TEXT_REGION_LENGTH__+0x700728>
    1a1c:	86 95       	lsr	r24
    1a1e:	81 70       	andi	r24, 0x01	; 1
    1a20:	08 95       	ret
		break;
		
		case 8:
		if (value == true)
    1a22:	22 23       	and	r18, r18
    1a24:	21 f0       	breq	.+8      	; 0x1a2e <IO_ReadWrite+0xf8>
		{
			PORTK_OUTSET = (1<<PIN0_bp);
    1a26:	81 e0       	ldi	r24, 0x01	; 1
    1a28:	80 93 25 07 	sts	0x0725, r24	; 0x800725 <__TEXT_REGION_LENGTH__+0x700725>
    1a2c:	03 c0       	rjmp	.+6      	; 0x1a34 <IO_ReadWrite+0xfe>
		}
		else
		{
			PORTK_OUTCLR = (1<<PIN0_bp);
    1a2e:	81 e0       	ldi	r24, 0x01	; 1
    1a30:	80 93 26 07 	sts	0x0726, r24	; 0x800726 <__TEXT_REGION_LENGTH__+0x700726>
		}
		return (PORTK_IN &(1<<PIN0_bp));
    1a34:	80 91 28 07 	lds	r24, 0x0728	; 0x800728 <__TEXT_REGION_LENGTH__+0x700728>
    1a38:	81 70       	andi	r24, 0x01	; 1
    1a3a:	08 95       	ret
		break;
		
		case 9:
		if (value == true)
    1a3c:	22 23       	and	r18, r18
    1a3e:	21 f0       	breq	.+8      	; 0x1a48 <IO_ReadWrite+0x112>
		{
			PORTJ_OUTSET = (1<<PIN7_bp);
    1a40:	80 e8       	ldi	r24, 0x80	; 128
    1a42:	80 93 05 07 	sts	0x0705, r24	; 0x800705 <__TEXT_REGION_LENGTH__+0x700705>
    1a46:	03 c0       	rjmp	.+6      	; 0x1a4e <IO_ReadWrite+0x118>
		}
		else
		{
			PORTJ_OUTCLR = (1<<PIN7_bp);
    1a48:	80 e8       	ldi	r24, 0x80	; 128
    1a4a:	80 93 06 07 	sts	0x0706, r24	; 0x800706 <__TEXT_REGION_LENGTH__+0x700706>
		}
		return (PORTJ_IN &(1<<PIN7_bp));
    1a4e:	80 91 08 07 	lds	r24, 0x0708	; 0x800708 <__TEXT_REGION_LENGTH__+0x700708>
    1a52:	88 1f       	adc	r24, r24
    1a54:	88 27       	eor	r24, r24
    1a56:	88 1f       	adc	r24, r24
    1a58:	08 95       	ret
		break;
		
		case 10:
		if (value == true)
    1a5a:	22 23       	and	r18, r18
    1a5c:	21 f0       	breq	.+8      	; 0x1a66 <IO_ReadWrite+0x130>
		{
			PORTJ_OUTSET = (1<<PIN6_bp);
    1a5e:	80 e4       	ldi	r24, 0x40	; 64
    1a60:	80 93 05 07 	sts	0x0705, r24	; 0x800705 <__TEXT_REGION_LENGTH__+0x700705>
    1a64:	03 c0       	rjmp	.+6      	; 0x1a6c <IO_ReadWrite+0x136>
		}
		else
		{
			PORTJ_OUTCLR = (1<<PIN6_bp);
    1a66:	80 e4       	ldi	r24, 0x40	; 64
    1a68:	80 93 06 07 	sts	0x0706, r24	; 0x800706 <__TEXT_REGION_LENGTH__+0x700706>
		}
		return (PORTJ_IN &(1<<PIN6_bp));
    1a6c:	80 91 08 07 	lds	r24, 0x0708	; 0x800708 <__TEXT_REGION_LENGTH__+0x700708>
    1a70:	86 fb       	bst	r24, 6
    1a72:	88 27       	eor	r24, r24
    1a74:	80 f9       	bld	r24, 0
    1a76:	08 95       	ret
		break;
		
		case 11:
		if (value == true)
    1a78:	22 23       	and	r18, r18
    1a7a:	21 f0       	breq	.+8      	; 0x1a84 <IO_ReadWrite+0x14e>
		{
			PORTH_OUTSET = (1<<PIN7_bp);
    1a7c:	80 e8       	ldi	r24, 0x80	; 128
    1a7e:	80 93 e5 06 	sts	0x06E5, r24	; 0x8006e5 <__TEXT_REGION_LENGTH__+0x7006e5>
    1a82:	03 c0       	rjmp	.+6      	; 0x1a8a <IO_ReadWrite+0x154>
		}
		else
		{
			PORTH_OUTCLR = (1<<PIN7_bp);
    1a84:	80 e8       	ldi	r24, 0x80	; 128
    1a86:	80 93 e6 06 	sts	0x06E6, r24	; 0x8006e6 <__TEXT_REGION_LENGTH__+0x7006e6>
		}
		return (PORTH_IN &(1<<PIN7_bp));
    1a8a:	80 91 e8 06 	lds	r24, 0x06E8	; 0x8006e8 <__TEXT_REGION_LENGTH__+0x7006e8>
    1a8e:	88 1f       	adc	r24, r24
    1a90:	88 27       	eor	r24, r24
    1a92:	88 1f       	adc	r24, r24
    1a94:	08 95       	ret
		break;
		
		case 12:
		if (value == true)
    1a96:	22 23       	and	r18, r18
    1a98:	21 f0       	breq	.+8      	; 0x1aa2 <IO_ReadWrite+0x16c>
		{
			PORTH_OUTSET = (1<<PIN6_bp);
    1a9a:	80 e4       	ldi	r24, 0x40	; 64
    1a9c:	80 93 e5 06 	sts	0x06E5, r24	; 0x8006e5 <__TEXT_REGION_LENGTH__+0x7006e5>
    1aa0:	03 c0       	rjmp	.+6      	; 0x1aa8 <IO_ReadWrite+0x172>
		}
		else
		{
			PORTH_OUTCLR = (1<<PIN6_bp);
    1aa2:	80 e4       	ldi	r24, 0x40	; 64
    1aa4:	80 93 e6 06 	sts	0x06E6, r24	; 0x8006e6 <__TEXT_REGION_LENGTH__+0x7006e6>
		}
		return (PORTH_IN &(1<<PIN6_bp));
    1aa8:	80 91 e8 06 	lds	r24, 0x06E8	; 0x8006e8 <__TEXT_REGION_LENGTH__+0x7006e8>
    1aac:	86 fb       	bst	r24, 6
    1aae:	88 27       	eor	r24, r24
    1ab0:	80 f9       	bld	r24, 0
    1ab2:	08 95       	ret
		break;
		
	}
	return 0;
    1ab4:	80 e0       	ldi	r24, 0x00	; 0
}
    1ab6:	08 95       	ret

00001ab8 <SelectColour>:
bool colorIsRed;
bool colorIsGreen;
bool colorIsBlue;

/* blockly functie - functie ter vervanging van werking met char* omdat blockly problemen met kleuren => assembly heeft */
uint16_t SelectColour(uint16_t i) { return i; }
    1ab8:	08 95       	ret

00001aba <CompareColours>:


/* blockly functie */
#ifdef COLOUR_AS_INDEX
bool CompareColours(uint16_t c1, uint16_t c2) {
	return (c1 == c2);
    1aba:	21 e0       	ldi	r18, 0x01	; 1
    1abc:	86 17       	cp	r24, r22
    1abe:	97 07       	cpc	r25, r23
    1ac0:	09 f0       	breq	.+2      	; 0x1ac4 <CompareColours+0xa>
    1ac2:	20 e0       	ldi	r18, 0x00	; 0
#else
bool CompareColours(char *c1, char *c2) {
	return CompareStrings(c1,c2,7); //"#rrggbb"
#endif
}
    1ac4:	82 2f       	mov	r24, r18
    1ac6:	08 95       	ret

00001ac8 <ReadOneColour>:
	#endif
}


/* stel de kleursensor in en lees 1x een kleur */
uint16_t ReadOneColour(uint8_t colour) {
    1ac8:	0f 93       	push	r16
    1aca:	1f 93       	push	r17
	PORTJ_DIR &= ~(PIN6_bm);	//set pin as input
    1acc:	e0 e0       	ldi	r30, 0x00	; 0
    1ace:	f7 e0       	ldi	r31, 0x07	; 7
    1ad0:	90 81       	ld	r25, Z
    1ad2:	9f 7b       	andi	r25, 0xBF	; 191
    1ad4:	90 83       	st	Z, r25
	PORTH_DIR |= PIN6_bm | PIN7_bm;	//set pins as output	
    1ad6:	e0 ee       	ldi	r30, 0xE0	; 224
    1ad8:	f6 e0       	ldi	r31, 0x06	; 6
    1ada:	90 81       	ld	r25, Z
    1adc:	90 6c       	ori	r25, 0xC0	; 192
    1ade:	90 83       	st	Z, r25
	switch (colour) {
    1ae0:	81 30       	cpi	r24, 0x01	; 1
    1ae2:	59 f0       	breq	.+22     	; 0x1afa <ReadOneColour+0x32>
    1ae4:	18 f0       	brcs	.+6      	; 0x1aec <ReadOneColour+0x24>
    1ae6:	82 30       	cpi	r24, 0x02	; 2
    1ae8:	79 f0       	breq	.+30     	; 0x1b08 <ReadOneColour+0x40>
    1aea:	14 c0       	rjmp	.+40     	; 0x1b14 <ReadOneColour+0x4c>
		case 0: //red
		PORTH_OUTCLR = (1<<PIN7_bp); //S2, pin 11, schrijf LOW
    1aec:	e6 ee       	ldi	r30, 0xE6	; 230
    1aee:	f6 e0       	ldi	r31, 0x06	; 6
    1af0:	80 e8       	ldi	r24, 0x80	; 128
    1af2:	80 83       	st	Z, r24
		PORTH_OUTCLR = (1<<PIN6_bp); //S3, pin 12, schrijf LOW
    1af4:	80 e4       	ldi	r24, 0x40	; 64
    1af6:	80 83       	st	Z, r24
		break;
    1af8:	0d c0       	rjmp	.+26     	; 0x1b14 <ReadOneColour+0x4c>
		
		case 1: //green
		PORTH_OUTSET = (1<<PIN7_bp); //S2, pin 11, schrijf HIGH
    1afa:	e5 ee       	ldi	r30, 0xE5	; 229
    1afc:	f6 e0       	ldi	r31, 0x06	; 6
    1afe:	80 e8       	ldi	r24, 0x80	; 128
    1b00:	80 83       	st	Z, r24
		PORTH_OUTSET = (1<<PIN6_bp); //S3, pin 12, schrijf HIGH
    1b02:	80 e4       	ldi	r24, 0x40	; 64
    1b04:	80 83       	st	Z, r24
		break;
    1b06:	06 c0       	rjmp	.+12     	; 0x1b14 <ReadOneColour+0x4c>
		
		case 2: //blue
		PORTH_OUTCLR = (1<<PIN7_bp); //S2, pin 11, schrijf LOW
    1b08:	80 e8       	ldi	r24, 0x80	; 128
    1b0a:	80 93 e6 06 	sts	0x06E6, r24	; 0x8006e6 <__TEXT_REGION_LENGTH__+0x7006e6>
		PORTH_OUTSET = (1<<PIN6_bp); //S3, pin 12, schrijf HIGH
    1b0e:	80 e4       	ldi	r24, 0x40	; 64
    1b10:	80 93 e5 06 	sts	0x06E5, r24	; 0x8006e5 <__TEXT_REGION_LENGTH__+0x7006e5>
		break;
	}
	
	return (uint16_t) pulseIn(&PORTJ, PIN6_bm, 0, 10000); //pin 10
    1b14:	00 e1       	ldi	r16, 0x10	; 16
    1b16:	17 e2       	ldi	r17, 0x27	; 39
    1b18:	20 e0       	ldi	r18, 0x00	; 0
    1b1a:	30 e0       	ldi	r19, 0x00	; 0
    1b1c:	40 e0       	ldi	r20, 0x00	; 0
    1b1e:	60 e4       	ldi	r22, 0x40	; 64
    1b20:	80 e0       	ldi	r24, 0x00	; 0
    1b22:	97 e0       	ldi	r25, 0x07	; 7
    1b24:	0e 94 a5 0f 	call	0x1f4a	; 0x1f4a <pulseIn>
}
    1b28:	cb 01       	movw	r24, r22
    1b2a:	1f 91       	pop	r17
    1b2c:	0f 91       	pop	r16
    1b2e:	08 95       	ret

00001b30 <ValToColour>:
	return (uint8_t) hex2int(i);
}


/* van integers naar \#rrggbb string */
char* ValToColour(uint8_t r, uint8_t g, uint8_t b) {
    1b30:	ff 92       	push	r15
    1b32:	0f 93       	push	r16
    1b34:	1f 93       	push	r17
    1b36:	cf 93       	push	r28
    1b38:	df 93       	push	r29
    1b3a:	f8 2e       	mov	r15, r24
    1b3c:	06 2f       	mov	r16, r22
    1b3e:	14 2f       	mov	r17, r20
	colour[1] = HexToASCII(r>>4);
    1b40:	82 95       	swap	r24
    1b42:	8f 70       	andi	r24, 0x0F	; 15
    1b44:	0e 94 38 08 	call	0x1070	; 0x1070 <_Z10HexToASCIIh>
    1b48:	c3 e0       	ldi	r28, 0x03	; 3
    1b4a:	d0 e2       	ldi	r29, 0x20	; 32
    1b4c:	89 83       	std	Y+1, r24	; 0x01
	colour[2] = HexToASCII(r);
    1b4e:	8f 2d       	mov	r24, r15
    1b50:	0e 94 38 08 	call	0x1070	; 0x1070 <_Z10HexToASCIIh>
    1b54:	8a 83       	std	Y+2, r24	; 0x02
	colour[3] = HexToASCII(g>>4);
    1b56:	80 2f       	mov	r24, r16
    1b58:	82 95       	swap	r24
    1b5a:	8f 70       	andi	r24, 0x0F	; 15
    1b5c:	0e 94 38 08 	call	0x1070	; 0x1070 <_Z10HexToASCIIh>
    1b60:	8b 83       	std	Y+3, r24	; 0x03
	colour[4] = HexToASCII(g);
    1b62:	80 2f       	mov	r24, r16
    1b64:	0e 94 38 08 	call	0x1070	; 0x1070 <_Z10HexToASCIIh>
    1b68:	8c 83       	std	Y+4, r24	; 0x04
	colour[5] = HexToASCII(b>>4);
    1b6a:	81 2f       	mov	r24, r17
    1b6c:	82 95       	swap	r24
    1b6e:	8f 70       	andi	r24, 0x0F	; 15
    1b70:	0e 94 38 08 	call	0x1070	; 0x1070 <_Z10HexToASCIIh>
    1b74:	8d 83       	std	Y+5, r24	; 0x05
	colour[6] = HexToASCII(b);
    1b76:	81 2f       	mov	r24, r17
    1b78:	0e 94 38 08 	call	0x1070	; 0x1070 <_Z10HexToASCIIh>
    1b7c:	8e 83       	std	Y+6, r24	; 0x06
	#else
		//round up by default
		__ticks_dc = (uint32_t)(ceil(fabs(__tmp)));
	#endif

	__builtin_avr_delay_cycles(__ticks_dc);
    1b7e:	8f e2       	ldi	r24, 0x2F	; 47
    1b80:	95 e7       	ldi	r25, 0x75	; 117
    1b82:	01 97       	sbiw	r24, 0x01	; 1
    1b84:	f1 f7       	brne	.-4      	; 0x1b82 <ValToColour+0x52>
    1b86:	00 c0       	rjmp	.+0      	; 0x1b88 <ValToColour+0x58>
    1b88:	00 00       	nop
	_delay_ms(5); //zodat i[6] goed wordt opgeslagen
	char *i_ptr = colour;
	return i_ptr; //var mag na het vergelijken meteen overschreven worden
}
    1b8a:	ce 01       	movw	r24, r28
    1b8c:	df 91       	pop	r29
    1b8e:	cf 91       	pop	r28
    1b90:	1f 91       	pop	r17
    1b92:	0f 91       	pop	r16
    1b94:	ff 90       	pop	r15
    1b96:	08 95       	ret

00001b98 <RoundColourVal>:


/* convert RGB value 0...255 to 0, 128 or 255 (colours from blockly) */
uint8_t RoundColourVal(uint8_t val) {
	switch (val) {
    1b98:	80 38       	cpi	r24, 0x80	; 128
    1b9a:	10 f0       	brcs	.+4      	; 0x1ba0 <RoundColourVal+0x8>
		case 0 ... 84:		return 0;
		case 85 ... 169:	return 128;
		case 170 ... 255:	return 255;
		#else
		case 0 ... 127:		return 0;
		case 128 ... 255:	return 255;
    1b9c:	8f ef       	ldi	r24, 0xFF	; 255
    1b9e:	08 95       	ret
		#if defined ALLOW_COLOURV_128 && !defined COLOUR_AS_INDEX
		case 0 ... 84:		return 0;
		case 85 ... 169:	return 128;
		case 170 ... 255:	return 255;
		#else
		case 0 ... 127:		return 0;
    1ba0:	80 e0       	ldi	r24, 0x00	; 0
			return 255;
		} else {
			return 0;
		}
	}
}
    1ba2:	08 95       	ret

00001ba4 <FrequencyToColourVal>:


/* map the frequency from sensor to RGB value 0...255 */
void FrequencyToColourVal(uint16_t freq, uint8_t colour) {
    1ba4:	cf 93       	push	r28
    1ba6:	df 93       	push	r29
    1ba8:	ec 01       	movw	r28, r24
	//if (0 == freq) { return 0; } //slechte frequentie read niet als 255 returnen
	//long val = 0;
	switch (colour) {
    1baa:	61 30       	cpi	r22, 0x01	; 1
    1bac:	11 f1       	breq	.+68     	; 0x1bf2 <FrequencyToColourVal+0x4e>
    1bae:	18 f0       	brcs	.+6      	; 0x1bb6 <FrequencyToColourVal+0x12>
    1bb0:	62 30       	cpi	r22, 0x02	; 2
    1bb2:	f1 f1       	breq	.+124    	; 0x1c30 <FrequencyToColourVal+0x8c>
    1bb4:	5c c0       	rjmp	.+184    	; 0x1c6e <FrequencyToColourVal+0xca>
		case 0: //red
		//val = map(freq, MINREDFREQ, MAXREDFREQ, 0, 255);
		colorIsRed = (bool) map(freq, MINREDFREQ, MAXREDFREQ, 1, 0);
    1bb6:	a0 e0       	ldi	r26, 0x00	; 0
    1bb8:	b0 e0       	ldi	r27, 0x00	; 0
    1bba:	81 58       	subi	r24, 0x81	; 129
    1bbc:	91 09       	sbc	r25, r1
    1bbe:	a1 09       	sbc	r26, r1
    1bc0:	b1 09       	sbc	r27, r1
    1bc2:	9c 01       	movw	r18, r24
    1bc4:	ad 01       	movw	r20, r26
    1bc6:	66 27       	eor	r22, r22
    1bc8:	77 27       	eor	r23, r23
    1bca:	cb 01       	movw	r24, r22
    1bcc:	62 1b       	sub	r22, r18
    1bce:	73 0b       	sbc	r23, r19
    1bd0:	84 0b       	sbc	r24, r20
    1bd2:	95 0b       	sbc	r25, r21
    1bd4:	22 e9       	ldi	r18, 0x92	; 146
    1bd6:	3f ef       	ldi	r19, 0xFF	; 255
    1bd8:	4f ef       	ldi	r20, 0xFF	; 255
    1bda:	5f ef       	ldi	r21, 0xFF	; 255
    1bdc:	0e 94 c0 30 	call	0x6180	; 0x6180 <__divmodsi4>
    1be0:	81 e0       	ldi	r24, 0x01	; 1
    1be2:	2f 3f       	cpi	r18, 0xFF	; 255
    1be4:	3f 4f       	sbci	r19, 0xFF	; 255
    1be6:	4f 4f       	sbci	r20, 0xFF	; 255
    1be8:	5f 4f       	sbci	r21, 0xFF	; 255
    1bea:	09 f4       	brne	.+2      	; 0x1bee <FrequencyToColourVal+0x4a>
    1bec:	80 e0       	ldi	r24, 0x00	; 0
    1bee:	80 93 b4 23 	sts	0x23B4, r24	; 0x8023b4 <colorIsRed>
		case 1: //green
		//val = map(freq, MINGREENFREQ, MAXGREENFREQ, 0, 255);
		colorIsGreen = (bool) map(freq, MINGREENFREQ, MAXGREENFREQ, 1, 0);
    1bf2:	ce 01       	movw	r24, r28
    1bf4:	a0 e0       	ldi	r26, 0x00	; 0
    1bf6:	b0 e0       	ldi	r27, 0x00	; 0
    1bf8:	80 5a       	subi	r24, 0xA0	; 160
    1bfa:	91 09       	sbc	r25, r1
    1bfc:	a1 09       	sbc	r26, r1
    1bfe:	b1 09       	sbc	r27, r1
    1c00:	9c 01       	movw	r18, r24
    1c02:	ad 01       	movw	r20, r26
    1c04:	66 27       	eor	r22, r22
    1c06:	77 27       	eor	r23, r23
    1c08:	cb 01       	movw	r24, r22
    1c0a:	62 1b       	sub	r22, r18
    1c0c:	73 0b       	sbc	r23, r19
    1c0e:	84 0b       	sbc	r24, r20
    1c10:	95 0b       	sbc	r25, r21
    1c12:	2c e9       	ldi	r18, 0x9C	; 156
    1c14:	3f ef       	ldi	r19, 0xFF	; 255
    1c16:	4f ef       	ldi	r20, 0xFF	; 255
    1c18:	5f ef       	ldi	r21, 0xFF	; 255
    1c1a:	0e 94 c0 30 	call	0x6180	; 0x6180 <__divmodsi4>
    1c1e:	81 e0       	ldi	r24, 0x01	; 1
    1c20:	2f 3f       	cpi	r18, 0xFF	; 255
    1c22:	3f 4f       	sbci	r19, 0xFF	; 255
    1c24:	4f 4f       	sbci	r20, 0xFF	; 255
    1c26:	5f 4f       	sbci	r21, 0xFF	; 255
    1c28:	09 f4       	brne	.+2      	; 0x1c2c <FrequencyToColourVal+0x88>
    1c2a:	80 e0       	ldi	r24, 0x00	; 0
    1c2c:	80 93 b3 23 	sts	0x23B3, r24	; 0x8023b3 <colorIsGreen>
		case 2: //blue
		//val = map(freq, MINBLUEFREQ, MAXBLUEFREQ, 0, 255);
		colorIsBlue = (bool) map(freq, MINBLUEFREQ, MAXBLUEFREQ, 1, 0);
    1c30:	ce 01       	movw	r24, r28
    1c32:	a0 e0       	ldi	r26, 0x00	; 0
    1c34:	b0 e0       	ldi	r27, 0x00	; 0
    1c36:	8c 57       	subi	r24, 0x7C	; 124
    1c38:	91 09       	sbc	r25, r1
    1c3a:	a1 09       	sbc	r26, r1
    1c3c:	b1 09       	sbc	r27, r1
    1c3e:	9c 01       	movw	r18, r24
    1c40:	ad 01       	movw	r20, r26
    1c42:	66 27       	eor	r22, r22
    1c44:	77 27       	eor	r23, r23
    1c46:	cb 01       	movw	r24, r22
    1c48:	62 1b       	sub	r22, r18
    1c4a:	73 0b       	sbc	r23, r19
    1c4c:	84 0b       	sbc	r24, r20
    1c4e:	95 0b       	sbc	r25, r21
    1c50:	22 e9       	ldi	r18, 0x92	; 146
    1c52:	3f ef       	ldi	r19, 0xFF	; 255
    1c54:	4f ef       	ldi	r20, 0xFF	; 255
    1c56:	5f ef       	ldi	r21, 0xFF	; 255
    1c58:	0e 94 c0 30 	call	0x6180	; 0x6180 <__divmodsi4>
    1c5c:	81 e0       	ldi	r24, 0x01	; 1
    1c5e:	2f 3f       	cpi	r18, 0xFF	; 255
    1c60:	3f 4f       	sbci	r19, 0xFF	; 255
    1c62:	4f 4f       	sbci	r20, 0xFF	; 255
    1c64:	5f 4f       	sbci	r21, 0xFF	; 255
    1c66:	09 f4       	brne	.+2      	; 0x1c6a <FrequencyToColourVal+0xc6>
    1c68:	80 e0       	ldi	r24, 0x00	; 0
    1c6a:	80 93 b2 23 	sts	0x23B2, r24	; 0x8023b2 <colorIsBlue>
	}
	//if (val<0) { val = 0; }
	//if (val>255) { val = 255; }
	//return (uint8_t) val;
}
    1c6e:	df 91       	pop	r29
    1c70:	cf 91       	pop	r28
    1c72:	08 95       	ret

00001c74 <ArrAvg>:


/* calculate average value in array */
uint16_t ArrAvg(uint16_t *a, uint8_t size) {
    1c74:	0f 93       	push	r16
    1c76:	1f 93       	push	r17
    1c78:	06 2f       	mov	r16, r22
	unsigned long sum = 0;
	for (uint8_t i=0; i<size; i++) {
    1c7a:	66 23       	and	r22, r22
    1c7c:	81 f0       	breq	.+32     	; 0x1c9e <ArrAvg+0x2a>
    1c7e:	e8 2f       	mov	r30, r24
    1c80:	f9 2f       	mov	r31, r25
    1c82:	80 e0       	ldi	r24, 0x00	; 0
    1c84:	40 e0       	ldi	r20, 0x00	; 0
    1c86:	50 e0       	ldi	r21, 0x00	; 0
    1c88:	ba 01       	movw	r22, r20
		sum += a[i];
    1c8a:	a1 91       	ld	r26, Z+
    1c8c:	b1 91       	ld	r27, Z+
    1c8e:	4a 0f       	add	r20, r26
    1c90:	5b 1f       	adc	r21, r27
    1c92:	61 1d       	adc	r22, r1
    1c94:	71 1d       	adc	r23, r1


/* calculate average value in array */
uint16_t ArrAvg(uint16_t *a, uint8_t size) {
	unsigned long sum = 0;
	for (uint8_t i=0; i<size; i++) {
    1c96:	8f 5f       	subi	r24, 0xFF	; 255
    1c98:	08 13       	cpse	r16, r24
    1c9a:	f7 cf       	rjmp	.-18     	; 0x1c8a <ArrAvg+0x16>
    1c9c:	03 c0       	rjmp	.+6      	; 0x1ca4 <ArrAvg+0x30>
}


/* calculate average value in array */
uint16_t ArrAvg(uint16_t *a, uint8_t size) {
	unsigned long sum = 0;
    1c9e:	40 e0       	ldi	r20, 0x00	; 0
    1ca0:	50 e0       	ldi	r21, 0x00	; 0
    1ca2:	ba 01       	movw	r22, r20
	for (uint8_t i=0; i<size; i++) {
		sum += a[i];
	}
	sum /= size;
	return sum;
    1ca4:	10 e0       	ldi	r17, 0x00	; 0
    1ca6:	20 e0       	ldi	r18, 0x00	; 0
    1ca8:	30 e0       	ldi	r19, 0x00	; 0
    1caa:	cb 01       	movw	r24, r22
    1cac:	ba 01       	movw	r22, r20
    1cae:	a9 01       	movw	r20, r18
    1cb0:	98 01       	movw	r18, r16
    1cb2:	0e 94 9e 30 	call	0x613c	; 0x613c <__udivmodsi4>
}
    1cb6:	c9 01       	movw	r24, r18
    1cb8:	1f 91       	pop	r17
    1cba:	0f 91       	pop	r16
    1cbc:	08 95       	ret

00001cbe <CompareStrings>:


bool CompareStrings(char *c1, char *c2, uint8_t length) {
	for (uint8_t i=0; i<length; i++) {
    1cbe:	44 23       	and	r20, r20
    1cc0:	49 f0       	breq	.+18     	; 0x1cd4 <CompareStrings+0x16>
		if (c1+i != c2+i) {
    1cc2:	86 17       	cp	r24, r22
    1cc4:	97 07       	cpc	r25, r23
    1cc6:	41 f4       	brne	.+16     	; 0x1cd8 <CompareStrings+0x1a>
    1cc8:	80 e0       	ldi	r24, 0x00	; 0
	return sum;
}


bool CompareStrings(char *c1, char *c2, uint8_t length) {
	for (uint8_t i=0; i<length; i++) {
    1cca:	8f 5f       	subi	r24, 0xFF	; 255
    1ccc:	48 13       	cpse	r20, r24
    1cce:	fd cf       	rjmp	.-6      	; 0x1cca <CompareStrings+0xc>
		if (c1+i != c2+i) {
			return 0;
		}
	}
	return 1;
    1cd0:	81 e0       	ldi	r24, 0x01	; 1
    1cd2:	08 95       	ret
    1cd4:	81 e0       	ldi	r24, 0x01	; 1
    1cd6:	08 95       	ret


bool CompareStrings(char *c1, char *c2, uint8_t length) {
	for (uint8_t i=0; i<length; i++) {
		if (c1+i != c2+i) {
			return 0;
    1cd8:	80 e0       	ldi	r24, 0x00	; 0
		}
	}
	return 1;
}
    1cda:	08 95       	ret

00001cdc <hex2int>:
/*
 * https://stackoverflow.com/questions/10156409/convert-hex-string-char-to-int 
 */
uint32_t hex2int(char *hex) {
    uint32_t val = 0;
    while (*hex) {
    1cdc:	fc 01       	movw	r30, r24
    1cde:	30 81       	ld	r19, Z
    1ce0:	33 23       	and	r19, r19
    1ce2:	89 f1       	breq	.+98     	; 0x1d46 <hex2int+0x6a>
    1ce4:	31 96       	adiw	r30, 0x01	; 1
    1ce6:	60 e0       	ldi	r22, 0x00	; 0
    1ce8:	70 e0       	ldi	r23, 0x00	; 0
    1cea:	cb 01       	movw	r24, r22
        // get current character then increment
        uint8_t byte = *hex++; 
        // transform hex character to the 4bit equivalent number, using the ascii table indexes
        if (byte >= '0' && byte <= '9') byte = byte - '0';
    1cec:	20 ed       	ldi	r18, 0xD0	; 208
    1cee:	23 0f       	add	r18, r19
    1cf0:	2a 30       	cpi	r18, 0x0A	; 10
    1cf2:	78 f0       	brcs	.+30     	; 0x1d12 <hex2int+0x36>
        else if (byte >= 'a' && byte <='f') byte = byte - 'a' + 10;
    1cf4:	2f e9       	ldi	r18, 0x9F	; 159
    1cf6:	23 0f       	add	r18, r19
    1cf8:	26 30       	cpi	r18, 0x06	; 6
    1cfa:	18 f4       	brcc	.+6      	; 0x1d02 <hex2int+0x26>
    1cfc:	29 ea       	ldi	r18, 0xA9	; 169
    1cfe:	23 0f       	add	r18, r19
    1d00:	08 c0       	rjmp	.+16     	; 0x1d12 <hex2int+0x36>
        else if (byte >= 'A' && byte <='F') byte = byte - 'A' + 10;    
    1d02:	2f eb       	ldi	r18, 0xBF	; 191
    1d04:	23 0f       	add	r18, r19
    1d06:	26 30       	cpi	r18, 0x06	; 6
    1d08:	18 f4       	brcc	.+6      	; 0x1d10 <hex2int+0x34>
    1d0a:	29 ec       	ldi	r18, 0xC9	; 201
    1d0c:	23 0f       	add	r18, r19
    1d0e:	01 c0       	rjmp	.+2      	; 0x1d12 <hex2int+0x36>
    1d10:	23 2f       	mov	r18, r19
        // shift 4 to make space for new digit, and add the 4 bits of the new digit 
        val = (val << 4) | (byte & 0xF);
    1d12:	dc 01       	movw	r26, r24
    1d14:	cb 01       	movw	r24, r22
    1d16:	88 0f       	add	r24, r24
    1d18:	99 1f       	adc	r25, r25
    1d1a:	aa 1f       	adc	r26, r26
    1d1c:	bb 1f       	adc	r27, r27
    1d1e:	88 0f       	add	r24, r24
    1d20:	99 1f       	adc	r25, r25
    1d22:	aa 1f       	adc	r26, r26
    1d24:	bb 1f       	adc	r27, r27
    1d26:	88 0f       	add	r24, r24
    1d28:	99 1f       	adc	r25, r25
    1d2a:	aa 1f       	adc	r26, r26
    1d2c:	bb 1f       	adc	r27, r27
    1d2e:	88 0f       	add	r24, r24
    1d30:	99 1f       	adc	r25, r25
    1d32:	aa 1f       	adc	r26, r26
    1d34:	bb 1f       	adc	r27, r27
    1d36:	2f 70       	andi	r18, 0x0F	; 15
    1d38:	bc 01       	movw	r22, r24
    1d3a:	cd 01       	movw	r24, r26
    1d3c:	62 2b       	or	r22, r18
/*
 * https://stackoverflow.com/questions/10156409/convert-hex-string-char-to-int 
 */
uint32_t hex2int(char *hex) {
    uint32_t val = 0;
    while (*hex) {
    1d3e:	31 91       	ld	r19, Z+
    1d40:	31 11       	cpse	r19, r1
    1d42:	d4 cf       	rjmp	.-88     	; 0x1cec <hex2int+0x10>
    1d44:	08 95       	ret

/*
 * https://stackoverflow.com/questions/10156409/convert-hex-string-char-to-int 
 */
uint32_t hex2int(char *hex) {
    uint32_t val = 0;
    1d46:	60 e0       	ldi	r22, 0x00	; 0
    1d48:	70 e0       	ldi	r23, 0x00	; 0
    1d4a:	cb 01       	movw	r24, r22
        else if (byte >= 'A' && byte <='F') byte = byte - 'A' + 10;    
        // shift 4 to make space for new digit, and add the 4 bits of the new digit 
        val = (val << 4) | (byte & 0xF);
    }
    return val;
}
    1d4c:	08 95       	ret

00001d4e <ColourToRed>:
	return val;
}


/* van \#rrggbb string naar int */
uint8_t ColourToRed(char *colour) {
    1d4e:	cf 93       	push	r28
    1d50:	df 93       	push	r29
    1d52:	00 d0       	rcall	.+0      	; 0x1d54 <ColourToRed+0x6>
    1d54:	cd b7       	in	r28, 0x3d	; 61
    1d56:	de b7       	in	r29, 0x3e	; 62
	char i[] = "00";
    1d58:	1b 82       	std	Y+3, r1	; 0x03
	memcpy(i, colour + 1, 2);
    1d5a:	fc 01       	movw	r30, r24
    1d5c:	81 81       	ldd	r24, Z+1	; 0x01
    1d5e:	92 81       	ldd	r25, Z+2	; 0x02
    1d60:	89 83       	std	Y+1, r24	; 0x01
    1d62:	9a 83       	std	Y+2, r25	; 0x02
	return (uint8_t) hex2int(i);
    1d64:	ce 01       	movw	r24, r28
    1d66:	01 96       	adiw	r24, 0x01	; 1
    1d68:	0e 94 6e 0e 	call	0x1cdc	; 0x1cdc <hex2int>
    1d6c:	86 2f       	mov	r24, r22
}
    1d6e:	23 96       	adiw	r28, 0x03	; 3
    1d70:	cd bf       	out	0x3d, r28	; 61
    1d72:	de bf       	out	0x3e, r29	; 62
    1d74:	df 91       	pop	r29
    1d76:	cf 91       	pop	r28
    1d78:	08 95       	ret

00001d7a <ColourToGreen>:


/* van \#rrggbb string naar int */
uint8_t ColourToGreen(char *colour) {
    1d7a:	cf 93       	push	r28
    1d7c:	df 93       	push	r29
    1d7e:	00 d0       	rcall	.+0      	; 0x1d80 <ColourToGreen+0x6>
    1d80:	cd b7       	in	r28, 0x3d	; 61
    1d82:	de b7       	in	r29, 0x3e	; 62
	char i[] = "00";
    1d84:	1b 82       	std	Y+3, r1	; 0x03
	memcpy(i, colour + 3, 2);
    1d86:	fc 01       	movw	r30, r24
    1d88:	83 81       	ldd	r24, Z+3	; 0x03
    1d8a:	94 81       	ldd	r25, Z+4	; 0x04
    1d8c:	89 83       	std	Y+1, r24	; 0x01
    1d8e:	9a 83       	std	Y+2, r25	; 0x02
	return (uint8_t) hex2int(i);
    1d90:	ce 01       	movw	r24, r28
    1d92:	01 96       	adiw	r24, 0x01	; 1
    1d94:	0e 94 6e 0e 	call	0x1cdc	; 0x1cdc <hex2int>
    1d98:	86 2f       	mov	r24, r22
}
    1d9a:	23 96       	adiw	r28, 0x03	; 3
    1d9c:	cd bf       	out	0x3d, r28	; 61
    1d9e:	de bf       	out	0x3e, r29	; 62
    1da0:	df 91       	pop	r29
    1da2:	cf 91       	pop	r28
    1da4:	08 95       	ret

00001da6 <ColourToBlue>:


/* van \#rrggbb string naar int */
uint8_t ColourToBlue(char *colour) {
    1da6:	cf 93       	push	r28
    1da8:	df 93       	push	r29
    1daa:	00 d0       	rcall	.+0      	; 0x1dac <ColourToBlue+0x6>
    1dac:	cd b7       	in	r28, 0x3d	; 61
    1dae:	de b7       	in	r29, 0x3e	; 62
	char i[] = "00";
    1db0:	1b 82       	std	Y+3, r1	; 0x03
	memcpy(i, colour + 5, 2);
    1db2:	fc 01       	movw	r30, r24
    1db4:	85 81       	ldd	r24, Z+5	; 0x05
    1db6:	96 81       	ldd	r25, Z+6	; 0x06
    1db8:	89 83       	std	Y+1, r24	; 0x01
    1dba:	9a 83       	std	Y+2, r25	; 0x02
	return (uint8_t) hex2int(i);
    1dbc:	ce 01       	movw	r24, r28
    1dbe:	01 96       	adiw	r24, 0x01	; 1
    1dc0:	0e 94 6e 0e 	call	0x1cdc	; 0x1cdc <hex2int>
    1dc4:	86 2f       	mov	r24, r22
}
    1dc6:	23 96       	adiw	r28, 0x03	; 3
    1dc8:	cd bf       	out	0x3d, r28	; 61
    1dca:	de bf       	out	0x3e, r29	; 62
    1dcc:	df 91       	pop	r29
    1dce:	cf 91       	pop	r28
    1dd0:	08 95       	ret

00001dd2 <ColourToIndex>:

/*
 * functie ter vervanging van werking met char* omdat blockly problemen met kleuren => assembly heeft, 
 * uiteindelijk moet ReadColourSensor() een char* teruggeven die met CompareStrings wordt vergeleken. 
 */
uint8_t ColourToIndex(char *colour) {
    1dd2:	0f 93       	push	r16
    1dd4:	1f 93       	push	r17
    1dd6:	cf 93       	push	r28
    1dd8:	8c 01       	movw	r16, r24
	//'#000000' = 0, '#0000ff' = 1, '#00ff00' = 2, '#00ffff' = 3, etc. 
	uint8_t val = 0;
	
	if (ColourToRed(colour) > 0) {
    1dda:	0e 94 a7 0e 	call	0x1d4e	; 0x1d4e <ColourToRed>
    1dde:	88 23       	and	r24, r24
    1de0:	11 f0       	breq	.+4      	; 0x1de6 <ColourToIndex+0x14>
		val |= (1<<2);
    1de2:	c4 e0       	ldi	r28, 0x04	; 4
    1de4:	01 c0       	rjmp	.+2      	; 0x1de8 <ColourToIndex+0x16>
 * functie ter vervanging van werking met char* omdat blockly problemen met kleuren => assembly heeft, 
 * uiteindelijk moet ReadColourSensor() een char* teruggeven die met CompareStrings wordt vergeleken. 
 */
uint8_t ColourToIndex(char *colour) {
	//'#000000' = 0, '#0000ff' = 1, '#00ff00' = 2, '#00ffff' = 3, etc. 
	uint8_t val = 0;
    1de6:	c0 e0       	ldi	r28, 0x00	; 0
	
	if (ColourToRed(colour) > 0) {
		val |= (1<<2);
	}
	if (ColourToGreen(colour) > 0) {
    1de8:	c8 01       	movw	r24, r16
    1dea:	0e 94 bd 0e 	call	0x1d7a	; 0x1d7a <ColourToGreen>
    1dee:	81 11       	cpse	r24, r1
		val |= (1<<1);
    1df0:	c2 60       	ori	r28, 0x02	; 2
	}
	if (ColourToBlue(colour) > 0) {
    1df2:	c8 01       	movw	r24, r16
    1df4:	0e 94 d3 0e 	call	0x1da6	; 0x1da6 <ColourToBlue>
    1df8:	81 11       	cpse	r24, r1
		val |= (1<<0);
    1dfa:	c1 60       	ori	r28, 0x01	; 1
	}
	return val;
}
    1dfc:	8c 2f       	mov	r24, r28
    1dfe:	cf 91       	pop	r28
    1e00:	1f 91       	pop	r17
    1e02:	0f 91       	pop	r16
    1e04:	08 95       	ret

00001e06 <ReadColourSensor>:


/* blockly functie - ga R G & B een aantal keer langs en lees kleur */
#define READVALTIMES 5
#ifdef COLOUR_AS_INDEX
uint16_t ReadColourSensor() {
    1e06:	cf 92       	push	r12
    1e08:	df 92       	push	r13
    1e0a:	ff 92       	push	r15
    1e0c:	0f 93       	push	r16
    1e0e:	1f 93       	push	r17
    1e10:	cf 93       	push	r28
    1e12:	df 93       	push	r29
    1e14:	cd b7       	in	r28, 0x3d	; 61
    1e16:	de b7       	in	r29, 0x3e	; 62
    1e18:	2a 97       	sbiw	r28, 0x0a	; 10
    1e1a:	cd bf       	out	0x3d, r28	; 61
    1e1c:	de bf       	out	0x3e, r29	; 62
#endif
	uint16_t buf[READVALTIMES];
	uint8_t colourVal[3];
	
	//elke kleur READVALTIMES keer lezen en gemiddelde opslaan
	for (uint8_t j=0; j<3; j++) {
    1e1e:	f1 2c       	mov	r15, r1
    1e20:	6e 01       	movw	r12, r28
    1e22:	8b e0       	ldi	r24, 0x0B	; 11
    1e24:	c8 0e       	add	r12, r24
    1e26:	d1 1c       	adc	r13, r1
    1e28:	8e 01       	movw	r16, r28
    1e2a:	0f 5f       	subi	r16, 0xFF	; 255
    1e2c:	1f 4f       	sbci	r17, 0xFF	; 255
		for (uint8_t i=0; i<READVALTIMES; i++) {
			buf[i] = ReadOneColour(j);
    1e2e:	8f 2d       	mov	r24, r15
    1e30:	0e 94 64 0d 	call	0x1ac8	; 0x1ac8 <ReadOneColour>
    1e34:	f8 01       	movw	r30, r16
    1e36:	81 93       	st	Z+, r24
    1e38:	91 93       	st	Z+, r25
    1e3a:	8f 01       	movw	r16, r30
	uint16_t buf[READVALTIMES];
	uint8_t colourVal[3];
	
	//elke kleur READVALTIMES keer lezen en gemiddelde opslaan
	for (uint8_t j=0; j<3; j++) {
		for (uint8_t i=0; i<READVALTIMES; i++) {
    1e3c:	ec 15       	cp	r30, r12
    1e3e:	fd 05       	cpc	r31, r13
    1e40:	b1 f7       	brne	.-20     	; 0x1e2e <ReadColourSensor+0x28>
			buf[i] = ReadOneColour(j);
		}
		//frequency mappen naar RGB value defined in blockly
//		colourVal[j] = RoundColourVal(FrequencyToColourVal(ArrAvg(buf, READVALTIMES), j));
		//colourVal[j] = FrequencyToColourVal(ArrAvg(buf, READVALTIMES), j);
		FrequencyToColourVal(ArrAvg(buf, READVALTIMES), j);
    1e42:	65 e0       	ldi	r22, 0x05	; 5
    1e44:	ce 01       	movw	r24, r28
    1e46:	01 96       	adiw	r24, 0x01	; 1
    1e48:	0e 94 3a 0e 	call	0x1c74	; 0x1c74 <ArrAvg>
    1e4c:	6f 2d       	mov	r22, r15
    1e4e:	0e 94 d2 0d 	call	0x1ba4	; 0x1ba4 <FrequencyToColourVal>
#endif
	uint16_t buf[READVALTIMES];
	uint8_t colourVal[3];
	
	//elke kleur READVALTIMES keer lezen en gemiddelde opslaan
	for (uint8_t j=0; j<3; j++) {
    1e52:	f3 94       	inc	r15
    1e54:	f3 e0       	ldi	r31, 0x03	; 3
    1e56:	ff 12       	cpse	r15, r31
    1e58:	e7 cf       	rjmp	.-50     	; 0x1e28 <ReadColourSensor+0x22>
		//frequency mappen naar RGB value defined in blockly
//		colourVal[j] = RoundColourVal(FrequencyToColourVal(ArrAvg(buf, READVALTIMES), j));
		//colourVal[j] = FrequencyToColourVal(ArrAvg(buf, READVALTIMES), j);
		FrequencyToColourVal(ArrAvg(buf, READVALTIMES), j);
	}
		if(colorIsRed)
    1e5a:	80 91 b4 23 	lds	r24, 0x23B4	; 0x8023b4 <colorIsRed>
    1e5e:	88 23       	and	r24, r24
    1e60:	31 f0       	breq	.+12     	; 0x1e6e <ReadColourSensor+0x68>
		{
			DEBUG_OUT("red\n\r");
    1e62:	65 ee       	ldi	r22, 0xE5	; 229
    1e64:	71 e2       	ldi	r23, 0x21	; 33
    1e66:	80 ea       	ldi	r24, 0xA0	; 160
    1e68:	99 e0       	ldi	r25, 0x09	; 9
    1e6a:	0e 94 94 09 	call	0x1328	; 0x1328 <_Z20USART_TransmitStringR12USART_structPKc>
		}
		if(colorIsGreen)
    1e6e:	80 91 b3 23 	lds	r24, 0x23B3	; 0x8023b3 <colorIsGreen>
    1e72:	88 23       	and	r24, r24
    1e74:	31 f0       	breq	.+12     	; 0x1e82 <ReadColourSensor+0x7c>
		{
			DEBUG_OUT("green\n\r");
    1e76:	6b ee       	ldi	r22, 0xEB	; 235
    1e78:	71 e2       	ldi	r23, 0x21	; 33
    1e7a:	80 ea       	ldi	r24, 0xA0	; 160
    1e7c:	99 e0       	ldi	r25, 0x09	; 9
    1e7e:	0e 94 94 09 	call	0x1328	; 0x1328 <_Z20USART_TransmitStringR12USART_structPKc>
		}
		if(colorIsBlue)
    1e82:	80 91 b2 23 	lds	r24, 0x23B2	; 0x8023b2 <colorIsBlue>
    1e86:	88 23       	and	r24, r24
    1e88:	31 f0       	breq	.+12     	; 0x1e96 <ReadColourSensor+0x90>
		{
			DEBUG_OUT("blue\n\r");
    1e8a:	63 ef       	ldi	r22, 0xF3	; 243
    1e8c:	71 e2       	ldi	r23, 0x21	; 33
    1e8e:	80 ea       	ldi	r24, 0xA0	; 160
    1e90:	99 e0       	ldi	r25, 0x09	; 9
    1e92:	0e 94 94 09 	call	0x1328	; 0x1328 <_Z20USART_TransmitStringR12USART_structPKc>
		}
		colorIsBlue = false;
    1e96:	10 92 b2 23 	sts	0x23B2, r1	; 0x8023b2 <colorIsBlue>
		colorIsGreen = false;
    1e9a:	10 92 b3 23 	sts	0x23B3, r1	; 0x8023b3 <colorIsGreen>
		colorIsRed = false;
    1e9e:	10 92 b4 23 	sts	0x23B4, r1	; 0x8023b4 <colorIsRed>
	
	#ifdef COLOUR_AS_INDEX
	//DEBUG_OUT("Color: ");
	//DEBUG_OUT(ValToColour(colourVal[0], colourVal[1], colourVal[2]));
	//DEBUG_OUT("\n\r");
	return (uint16_t) ColourToIndex(ValToColour(colourVal[0], colourVal[1], colourVal[2]));
    1ea2:	40 e0       	ldi	r20, 0x00	; 0
    1ea4:	60 e0       	ldi	r22, 0x00	; 0
    1ea6:	80 e0       	ldi	r24, 0x00	; 0
    1ea8:	0e 94 98 0d 	call	0x1b30	; 0x1b30 <ValToColour>
    1eac:	0e 94 e9 0e 	call	0x1dd2	; 0x1dd2 <ColourToIndex>
	DEBUG_OUT("Color: ");
	DEBUG_OUT(ValToColour(colourVal[0], colourVal[1], colourVal[2]));
	DEBUG_OUT("\n\r");
	return ValToColour(colourVal[0], colourVal[1], colourVal[2]);
	#endif
}
    1eb0:	90 e0       	ldi	r25, 0x00	; 0
    1eb2:	2a 96       	adiw	r28, 0x0a	; 10
    1eb4:	cd bf       	out	0x3d, r28	; 61
    1eb6:	de bf       	out	0x3e, r29	; 62
    1eb8:	df 91       	pop	r29
    1eba:	cf 91       	pop	r28
    1ebc:	1f 91       	pop	r17
    1ebe:	0f 91       	pop	r16
    1ec0:	ff 90       	pop	r15
    1ec2:	df 90       	pop	r13
    1ec4:	cf 90       	pop	r12
    1ec6:	08 95       	ret

00001ec8 <map>:


/*
 * https://www.arduino.cc/reference/en/language/functions/math/map/ 
 */
long map(long x, long in_min, long in_max, long out_min, long out_max) {
    1ec8:	4f 92       	push	r4
    1eca:	5f 92       	push	r5
    1ecc:	6f 92       	push	r6
    1ece:	7f 92       	push	r7
    1ed0:	af 92       	push	r10
    1ed2:	bf 92       	push	r11
    1ed4:	cf 92       	push	r12
    1ed6:	df 92       	push	r13
    1ed8:	ef 92       	push	r14
    1eda:	ff 92       	push	r15
    1edc:	0f 93       	push	r16
    1ede:	1f 93       	push	r17
    1ee0:	cf 93       	push	r28
    1ee2:	df 93       	push	r29
    1ee4:	cd b7       	in	r28, 0x3d	; 61
    1ee6:	de b7       	in	r29, 0x3e	; 62
    1ee8:	29 01       	movw	r4, r18
    1eea:	3a 01       	movw	r6, r20
	return (x - in_min) * (out_max - out_min) / (in_max - in_min) + out_min;
    1eec:	9b 01       	movw	r18, r22
    1eee:	ac 01       	movw	r20, r24
    1ef0:	24 19       	sub	r18, r4
    1ef2:	35 09       	sbc	r19, r5
    1ef4:	46 09       	sbc	r20, r6
    1ef6:	57 09       	sbc	r21, r7
    1ef8:	8a 89       	ldd	r24, Y+18	; 0x12
    1efa:	9b 89       	ldd	r25, Y+19	; 0x13
    1efc:	ac 89       	ldd	r26, Y+20	; 0x14
    1efe:	bd 89       	ldd	r27, Y+21	; 0x15
    1f00:	bc 01       	movw	r22, r24
    1f02:	cd 01       	movw	r24, r26
    1f04:	6a 19       	sub	r22, r10
    1f06:	7b 09       	sbc	r23, r11
    1f08:	8c 09       	sbc	r24, r12
    1f0a:	9d 09       	sbc	r25, r13
    1f0c:	0e 94 66 30 	call	0x60cc	; 0x60cc <__mulsi3>
    1f10:	a8 01       	movw	r20, r16
    1f12:	97 01       	movw	r18, r14
    1f14:	24 19       	sub	r18, r4
    1f16:	35 09       	sbc	r19, r5
    1f18:	46 09       	sbc	r20, r6
    1f1a:	57 09       	sbc	r21, r7
    1f1c:	0e 94 c0 30 	call	0x6180	; 0x6180 <__divmodsi4>
    1f20:	ca 01       	movw	r24, r20
    1f22:	b9 01       	movw	r22, r18
    1f24:	6a 0d       	add	r22, r10
    1f26:	7b 1d       	adc	r23, r11
    1f28:	8c 1d       	adc	r24, r12
    1f2a:	9d 1d       	adc	r25, r13
    1f2c:	df 91       	pop	r29
    1f2e:	cf 91       	pop	r28
    1f30:	1f 91       	pop	r17
    1f32:	0f 91       	pop	r16
    1f34:	ff 90       	pop	r15
    1f36:	ef 90       	pop	r14
    1f38:	df 90       	pop	r13
    1f3a:	cf 90       	pop	r12
    1f3c:	bf 90       	pop	r11
    1f3e:	af 90       	pop	r10
    1f40:	7f 90       	pop	r7
    1f42:	6f 90       	pop	r6
    1f44:	5f 90       	pop	r5
    1f46:	4f 90       	pop	r4
    1f48:	08 95       	ret

00001f4a <pulseIn>:

#include "pulseIn.h"


unsigned long pulseIn(PORT_struct *port, uint8_t pin_bm, uint8_t state, unsigned long timeout)
{
    1f4a:	8f 92       	push	r8
    1f4c:	9f 92       	push	r9
    1f4e:	af 92       	push	r10
    1f50:	bf 92       	push	r11
    1f52:	cf 92       	push	r12
    1f54:	df 92       	push	r13
    1f56:	ef 92       	push	r14
    1f58:	ff 92       	push	r15
    1f5a:	0f 93       	push	r16
    1f5c:	1f 93       	push	r17
    1f5e:	fc 01       	movw	r30, r24
    1f60:	86 2f       	mov	r24, r22
	uint8_t stateMask = (state ? pin_bm : 0); // The stateMask is a variable to check if the bit coresponds to the pin is 0 or 1. When the state is 0, it is set to 0 to measure the time of LOW state. If the state i not 0, it is set to bitmask of the pin. 
    1f62:	44 23       	and	r20, r20
    1f64:	11 f0       	breq	.+4      	; 0x1f6a <pulseIn+0x20>
    1f66:	a6 2f       	mov	r26, r22
    1f68:	01 c0       	rjmp	.+2      	; 0x1f6c <pulseIn+0x22>
    1f6a:	a0 e0       	ldi	r26, 0x00	; 0
	unsigned long width = 0; // keep initialization out of time critical area
	
	// convert the timeout from microseconds to a number of times through
	// the initial loop; it takes 16 clock cycles per iteration.
	unsigned long numloops = 0;
	unsigned long maxloops = microsecondsToClockCycles(timeout) / 16;
    1f6c:	b9 01       	movw	r22, r18
    1f6e:	a8 01       	movw	r20, r16
    1f70:	44 0f       	add	r20, r20
    1f72:	55 1f       	adc	r21, r21
    1f74:	66 1f       	adc	r22, r22
    1f76:	77 1f       	adc	r23, r23
    1f78:	04 0f       	add	r16, r20
    1f7a:	15 1f       	adc	r17, r21
    1f7c:	26 1f       	adc	r18, r22
    1f7e:	37 1f       	adc	r19, r23
    1f80:	36 95       	lsr	r19
    1f82:	27 95       	ror	r18
    1f84:	17 95       	ror	r17
    1f86:	07 95       	ror	r16
    1f88:	3f 70       	andi	r19, 0x0F	; 15
	uint8_t stateMask = (state ? pin_bm : 0); // The stateMask is a variable to check if the bit coresponds to the pin is 0 or 1. When the state is 0, it is set to 0 to measure the time of LOW state. If the state i not 0, it is set to bitmask of the pin. 
	unsigned long width = 0; // keep initialization out of time critical area
	
	// convert the timeout from microseconds to a number of times through
	// the initial loop; it takes 16 clock cycles per iteration.
	unsigned long numloops = 0;
    1f8a:	40 e0       	ldi	r20, 0x00	; 0
    1f8c:	50 e0       	ldi	r21, 0x00	; 0
    1f8e:	ba 01       	movw	r22, r20
	unsigned long maxloops = microsecondsToClockCycles(timeout) / 16;
	
	// wait for any previous pulse to end
	while ((port->IN & pin_bm) == stateMask) {
    1f90:	90 85       	ldd	r25, Z+8	; 0x08
    1f92:	98 23       	and	r25, r24
    1f94:	a9 13       	cpse	r26, r25
    1f96:	10 c0       	rjmp	.+32     	; 0x1fb8 <pulseIn+0x6e>
		if (numloops++ == maxloops) { return 0; }
    1f98:	6a 01       	movw	r12, r20
    1f9a:	7b 01       	movw	r14, r22
    1f9c:	9f ef       	ldi	r25, 0xFF	; 255
    1f9e:	c9 1a       	sub	r12, r25
    1fa0:	d9 0a       	sbc	r13, r25
    1fa2:	e9 0a       	sbc	r14, r25
    1fa4:	f9 0a       	sbc	r15, r25
    1fa6:	04 17       	cp	r16, r20
    1fa8:	15 07       	cpc	r17, r21
    1faa:	26 07       	cpc	r18, r22
    1fac:	37 07       	cpc	r19, r23
    1fae:	09 f4       	brne	.+2      	; 0x1fb2 <pulseIn+0x68>
    1fb0:	69 c0       	rjmp	.+210    	; 0x2084 <pulseIn+0x13a>
    1fb2:	b7 01       	movw	r22, r14
    1fb4:	a6 01       	movw	r20, r12
    1fb6:	ec cf       	rjmp	.-40     	; 0x1f90 <pulseIn+0x46>
	}
	
	// wait for the pulse to start
	while ((port->IN & pin_bm) != stateMask) {
    1fb8:	90 85       	ldd	r25, Z+8	; 0x08
    1fba:	98 23       	and	r25, r24
    1fbc:	a9 13       	cpse	r26, r25
    1fbe:	08 c0       	rjmp	.+16     	; 0x1fd0 <pulseIn+0x86>
		if (numloops++ == maxloops) { return 0; }
	}
	
	// wait for the pulse to stop
	while ((port->IN & pin_bm) == stateMask) {
    1fc0:	90 85       	ldd	r25, Z+8	; 0x08
    1fc2:	98 23       	and	r25, r24
    1fc4:	a9 17       	cp	r26, r25
    1fc6:	a1 f0       	breq	.+40     	; 0x1ff0 <pulseIn+0xa6>
    1fc8:	c1 2c       	mov	r12, r1
    1fca:	d1 2c       	mov	r13, r1
    1fcc:	76 01       	movw	r14, r12
    1fce:	2f c0       	rjmp	.+94     	; 0x202e <pulseIn+0xe4>
		if (numloops++ == maxloops) { return 0; }
	}
	
	// wait for the pulse to start
	while ((port->IN & pin_bm) != stateMask) {
		if (numloops++ == maxloops) { return 0; }
    1fd0:	6a 01       	movw	r12, r20
    1fd2:	7b 01       	movw	r14, r22
    1fd4:	9f ef       	ldi	r25, 0xFF	; 255
    1fd6:	c9 1a       	sub	r12, r25
    1fd8:	d9 0a       	sbc	r13, r25
    1fda:	e9 0a       	sbc	r14, r25
    1fdc:	f9 0a       	sbc	r15, r25
    1fde:	04 17       	cp	r16, r20
    1fe0:	15 07       	cpc	r17, r21
    1fe2:	26 07       	cpc	r18, r22
    1fe4:	37 07       	cpc	r19, r23
    1fe6:	09 f4       	brne	.+2      	; 0x1fea <pulseIn+0xa0>
    1fe8:	51 c0       	rjmp	.+162    	; 0x208c <pulseIn+0x142>
    1fea:	b7 01       	movw	r22, r14
    1fec:	a6 01       	movw	r20, r12
    1fee:	e4 cf       	rjmp	.-56     	; 0x1fb8 <pulseIn+0x6e>
	}
	
	// wait for the pulse to stop
	while ((port->IN & pin_bm) == stateMask) {
		if (numloops++ == maxloops) { return 0; }
    1ff0:	40 17       	cp	r20, r16
    1ff2:	51 07       	cpc	r21, r17
    1ff4:	62 07       	cpc	r22, r18
    1ff6:	73 07       	cpc	r23, r19
    1ff8:	09 f4       	brne	.+2      	; 0x1ffc <pulseIn+0xb2>
    1ffa:	4c c0       	rjmp	.+152    	; 0x2094 <pulseIn+0x14a>
    1ffc:	c1 2c       	mov	r12, r1
    1ffe:	d1 2c       	mov	r13, r1
    2000:	76 01       	movw	r14, r12
    2002:	0c c0       	rjmp	.+24     	; 0x201c <pulseIn+0xd2>
    2004:	4a 01       	movw	r8, r20
    2006:	5b 01       	movw	r10, r22
    2008:	8c 0c       	add	r8, r12
    200a:	9d 1c       	adc	r9, r13
    200c:	ae 1c       	adc	r10, r14
    200e:	bf 1c       	adc	r11, r15
    2010:	08 15       	cp	r16, r8
    2012:	19 05       	cpc	r17, r9
    2014:	2a 05       	cpc	r18, r10
    2016:	3b 05       	cpc	r19, r11
    2018:	09 f4       	brne	.+2      	; 0x201c <pulseIn+0xd2>
    201a:	40 c0       	rjmp	.+128    	; 0x209c <pulseIn+0x152>
		width++;
    201c:	9f ef       	ldi	r25, 0xFF	; 255
    201e:	c9 1a       	sub	r12, r25
    2020:	d9 0a       	sbc	r13, r25
    2022:	e9 0a       	sbc	r14, r25
    2024:	f9 0a       	sbc	r15, r25
	while ((port->IN & pin_bm) != stateMask) {
		if (numloops++ == maxloops) { return 0; }
	}
	
	// wait for the pulse to stop
	while ((port->IN & pin_bm) == stateMask) {
    2026:	90 85       	ldd	r25, Z+8	; 0x08
    2028:	98 23       	and	r25, r24
    202a:	a9 17       	cp	r26, r25
    202c:	59 f3       	breq	.-42     	; 0x2004 <pulseIn+0xba>

	// convert the reading to microseconds. The loop has been determined
	// to be 20 clock cycles long and have about 16 clocks between the edge
	// and the start of the loop. There will be some error introduced by
	// the interrupt handlers.
	return clockCyclesToMicroseconds(width * 21 + 16);
    202e:	b7 01       	movw	r22, r14
    2030:	a6 01       	movw	r20, r12
    2032:	44 0f       	add	r20, r20
    2034:	55 1f       	adc	r21, r21
    2036:	66 1f       	adc	r22, r22
    2038:	77 1f       	adc	r23, r23
    203a:	44 0f       	add	r20, r20
    203c:	55 1f       	adc	r21, r21
    203e:	66 1f       	adc	r22, r22
    2040:	77 1f       	adc	r23, r23
    2042:	db 01       	movw	r26, r22
    2044:	ca 01       	movw	r24, r20
    2046:	88 0f       	add	r24, r24
    2048:	99 1f       	adc	r25, r25
    204a:	aa 1f       	adc	r26, r26
    204c:	bb 1f       	adc	r27, r27
    204e:	88 0f       	add	r24, r24
    2050:	99 1f       	adc	r25, r25
    2052:	aa 1f       	adc	r26, r26
    2054:	bb 1f       	adc	r27, r27
    2056:	84 0f       	add	r24, r20
    2058:	95 1f       	adc	r25, r21
    205a:	a6 1f       	adc	r26, r22
    205c:	b7 1f       	adc	r27, r23
    205e:	8c 0d       	add	r24, r12
    2060:	9d 1d       	adc	r25, r13
    2062:	ae 1d       	adc	r26, r14
    2064:	bf 1d       	adc	r27, r15
    2066:	bc 01       	movw	r22, r24
    2068:	cd 01       	movw	r24, r26
    206a:	60 5f       	subi	r22, 0xF0	; 240
    206c:	7f 4f       	sbci	r23, 0xFF	; 255
    206e:	8f 4f       	sbci	r24, 0xFF	; 255
    2070:	9f 4f       	sbci	r25, 0xFF	; 255
    2072:	28 e1       	ldi	r18, 0x18	; 24
    2074:	30 e0       	ldi	r19, 0x00	; 0
    2076:	40 e0       	ldi	r20, 0x00	; 0
    2078:	50 e0       	ldi	r21, 0x00	; 0
    207a:	0e 94 9e 30 	call	0x613c	; 0x613c <__udivmodsi4>
    207e:	ca 01       	movw	r24, r20
    2080:	b9 01       	movw	r22, r18
    2082:	0f c0       	rjmp	.+30     	; 0x20a2 <pulseIn+0x158>
	unsigned long numloops = 0;
	unsigned long maxloops = microsecondsToClockCycles(timeout) / 16;
	
	// wait for any previous pulse to end
	while ((port->IN & pin_bm) == stateMask) {
		if (numloops++ == maxloops) { return 0; }
    2084:	60 e0       	ldi	r22, 0x00	; 0
    2086:	70 e0       	ldi	r23, 0x00	; 0
    2088:	cb 01       	movw	r24, r22
    208a:	0b c0       	rjmp	.+22     	; 0x20a2 <pulseIn+0x158>
	}
	
	// wait for the pulse to start
	while ((port->IN & pin_bm) != stateMask) {
		if (numloops++ == maxloops) { return 0; }
    208c:	60 e0       	ldi	r22, 0x00	; 0
    208e:	70 e0       	ldi	r23, 0x00	; 0
    2090:	cb 01       	movw	r24, r22
    2092:	07 c0       	rjmp	.+14     	; 0x20a2 <pulseIn+0x158>
	}
	
	// wait for the pulse to stop
	while ((port->IN & pin_bm) == stateMask) {
		if (numloops++ == maxloops) { return 0; }
    2094:	60 e0       	ldi	r22, 0x00	; 0
    2096:	70 e0       	ldi	r23, 0x00	; 0
    2098:	cb 01       	movw	r24, r22
    209a:	03 c0       	rjmp	.+6      	; 0x20a2 <pulseIn+0x158>
    209c:	60 e0       	ldi	r22, 0x00	; 0
    209e:	70 e0       	ldi	r23, 0x00	; 0
    20a0:	cb 01       	movw	r24, r22
	// convert the reading to microseconds. The loop has been determined
	// to be 20 clock cycles long and have about 16 clocks between the edge
	// and the start of the loop. There will be some error introduced by
	// the interrupt handlers.
	return clockCyclesToMicroseconds(width * 21 + 16);
    20a2:	1f 91       	pop	r17
    20a4:	0f 91       	pop	r16
    20a6:	ff 90       	pop	r15
    20a8:	ef 90       	pop	r14
    20aa:	df 90       	pop	r13
    20ac:	cf 90       	pop	r12
    20ae:	bf 90       	pop	r11
    20b0:	af 90       	pop	r10
    20b2:	9f 90       	pop	r9
    20b4:	8f 90       	pop	r8
    20b6:	08 95       	ret

000020b8 <SorterarmIsFinnished>:
}

//TO DO!!!!!!!!!!!!!!!!!!!!!!!!!!!!!!!!!!!!!!!
bool SorterarmIsFinnished(){
	return 0;
}
    20b8:	80 e0       	ldi	r24, 0x00	; 0
    20ba:	08 95       	ret

000020bc <StopSorterArm>:
	}
}

/* stop stepper */
void StopSorterArm()
{
    20bc:	0f 93       	push	r16
    20be:	1f 93       	push	r17
    20c0:	cf 93       	push	r28
    20c2:	df 93       	push	r29
    20c4:	1f 92       	push	r1
    20c6:	cd b7       	in	r28, 0x3d	; 61
    20c8:	de b7       	in	r29, 0x3e	; 62
	char data[] = { MOTOR_OFF };
    20ca:	19 82       	std	Y+1, r1	; 0x01
	uint16_t motor_id = SORTER_MOTOR_ID;
	stepperWriteRegister(MOTOR_ENABLE_REG, data, sizeof(data) / sizeof(*data), motor_id, USARTE1);
    20cc:	00 eb       	ldi	r16, 0xB0	; 176
    20ce:	1a e0       	ldi	r17, 0x0A	; 10
    20d0:	27 e0       	ldi	r18, 0x07	; 7
    20d2:	41 e0       	ldi	r20, 0x01	; 1
    20d4:	be 01       	movw	r22, r28
    20d6:	6f 5f       	subi	r22, 0xFF	; 255
    20d8:	7f 4f       	sbci	r23, 0xFF	; 255
    20da:	8c e4       	ldi	r24, 0x4C	; 76
    20dc:	0e 94 bf 12 	call	0x257e	; 0x257e <_Z20stepperWriteRegisterhPKchhR12USART_struct>
}
    20e0:	0f 90       	pop	r0
    20e2:	df 91       	pop	r29
    20e4:	cf 91       	pop	r28
    20e6:	1f 91       	pop	r17
    20e8:	0f 91       	pop	r16
    20ea:	08 95       	ret

000020ec <SorterArmISR>:
bool saDirection; // Richting die de arm op moet gaan, links of rechts
volatile bool saIsLeft, saIsRight; // Sorterarm is links of rechts van zijn uiterste rijkweidte

// Interrupt ISR
void SorterArmISR(){
	if (!(PORTK_IN & sa1.switch_pin_left)){
    20ec:	80 91 28 07 	lds	r24, 0x0728	; 0x800728 <__TEXT_REGION_LENGTH__+0x700728>
    20f0:	86 fd       	sbrc	r24, 6
    20f2:	0e c0       	rjmp	.+28     	; 0x2110 <SorterArmISR+0x24>
		DEBUG_OUT("----------------Stop sorter arm----------------\n");
    20f4:	6a ef       	ldi	r22, 0xFA	; 250
    20f6:	71 e2       	ldi	r23, 0x21	; 33
    20f8:	80 ea       	ldi	r24, 0xA0	; 160
    20fa:	99 e0       	ldi	r25, 0x09	; 9
    20fc:	0e 94 94 09 	call	0x1328	; 0x1328 <_Z20USART_TransmitStringR12USART_structPKc>
		StopSorterArm();
    2100:	0e 94 5e 10 	call	0x20bc	; 0x20bc <StopSorterArm>
		saIsLeft = true;
    2104:	81 e0       	ldi	r24, 0x01	; 1
    2106:	80 93 b6 23 	sts	0x23B6, r24	; 0x8023b6 <saIsLeft>
		saIsRight = false;
    210a:	10 92 b5 23 	sts	0x23B5, r1	; 0x8023b5 <saIsRight>
    210e:	08 95       	ret
	}
	else if (!(PORTK_IN & sa1.switch_pin_right)){
    2110:	80 91 28 07 	lds	r24, 0x0728	; 0x800728 <__TEXT_REGION_LENGTH__+0x700728>
    2114:	88 23       	and	r24, r24
    2116:	74 f0       	brlt	.+28     	; 0x2134 <SorterArmISR+0x48>
		DEBUG_OUT("----------------Stop sorter arm----------------\n");
    2118:	6a ef       	ldi	r22, 0xFA	; 250
    211a:	71 e2       	ldi	r23, 0x21	; 33
    211c:	80 ea       	ldi	r24, 0xA0	; 160
    211e:	99 e0       	ldi	r25, 0x09	; 9
    2120:	0e 94 94 09 	call	0x1328	; 0x1328 <_Z20USART_TransmitStringR12USART_structPKc>
		StopSorterArm();
    2124:	0e 94 5e 10 	call	0x20bc	; 0x20bc <StopSorterArm>
		saIsLeft = false;
    2128:	10 92 b6 23 	sts	0x23B6, r1	; 0x8023b6 <saIsLeft>
		saIsRight = true;
    212c:	81 e0       	ldi	r24, 0x01	; 1
    212e:	80 93 b5 23 	sts	0x23B5, r24	; 0x8023b5 <saIsRight>
    2132:	08 95       	ret
	}
	else {
		DEBUG_OUT("----------------Don't stop sorter arm----------------\n");
    2134:	6b e2       	ldi	r22, 0x2B	; 43
    2136:	72 e2       	ldi	r23, 0x22	; 34
    2138:	80 ea       	ldi	r24, 0xA0	; 160
    213a:	99 e0       	ldi	r25, 0x09	; 9
    213c:	0e 94 94 09 	call	0x1328	; 0x1328 <_Z20USART_TransmitStringR12USART_structPKc>
		saIsLeft = false;
    2140:	10 92 b6 23 	sts	0x23B6, r1	; 0x8023b6 <saIsLeft>
		saIsRight = false;
    2144:	10 92 b5 23 	sts	0x23B5, r1	; 0x8023b5 <saIsRight>
    2148:	08 95       	ret

0000214a <_Z17SorterarmLinksISRv>:


}

void SorterarmLinksISR() {
	saIsLeft = true;
    214a:	81 e0       	ldi	r24, 0x01	; 1
    214c:	80 93 b6 23 	sts	0x23B6, r24	; 0x8023b6 <saIsLeft>
	saIsRight = false;
    2150:	10 92 b5 23 	sts	0x23B5, r1	; 0x8023b5 <saIsRight>
	StopSorterArm();
    2154:	0e 94 5e 10 	call	0x20bc	; 0x20bc <StopSorterArm>
    2158:	08 95       	ret

0000215a <_Z18SorterArmRechtsISRv>:
}

void SorterArmRechtsISR() {
	saIsLeft = false;
    215a:	10 92 b6 23 	sts	0x23B6, r1	; 0x8023b6 <saIsLeft>
	saIsRight = true;
    215e:	81 e0       	ldi	r24, 0x01	; 1
    2160:	80 93 b5 23 	sts	0x23B5, r24	; 0x8023b5 <saIsRight>
	StopSorterArm();
    2164:	0e 94 5e 10 	call	0x20bc	; 0x20bc <StopSorterArm>
    2168:	08 95       	ret

0000216a <SaSetInput>:


// Zet pinnen van de sorterarm als input-pullup
void SaSetInput(uint8_t switch_pin_left, uint8_t switch_pin_right)
{
	PORTK_DIR &= ~(switch_pin_left);		//pin set left as input
    216a:	e0 e2       	ldi	r30, 0x20	; 32
    216c:	f7 e0       	ldi	r31, 0x07	; 7
    216e:	90 81       	ld	r25, Z
    2170:	28 2f       	mov	r18, r24
    2172:	20 95       	com	r18
    2174:	92 23       	and	r25, r18
    2176:	90 83       	st	Z, r25
	PORTK_DIR &= ~(switch_pin_right);		//pin set right as input
    2178:	90 81       	ld	r25, Z
    217a:	26 2f       	mov	r18, r22
    217c:	20 95       	com	r18
    217e:	92 23       	and	r25, r18
    2180:	90 83       	st	Z, r25
	
	//Set the PINnCTRL of the left switch to PULLUP
	switch (switch_pin_left)				//pull-up
    2182:	88 30       	cpi	r24, 0x08	; 8
    2184:	29 f1       	breq	.+74     	; 0x21d0 <SaSetInput+0x66>
    2186:	38 f4       	brcc	.+14     	; 0x2196 <SaSetInput+0x2c>
    2188:	82 30       	cpi	r24, 0x02	; 2
    218a:	b1 f0       	breq	.+44     	; 0x21b8 <SaSetInput+0x4e>
    218c:	84 30       	cpi	r24, 0x04	; 4
    218e:	d1 f0       	breq	.+52     	; 0x21c4 <SaSetInput+0x5a>
    2190:	81 30       	cpi	r24, 0x01	; 1
    2192:	d9 f5       	brne	.+118    	; 0x220a <SaSetInput+0xa0>
    2194:	0b c0       	rjmp	.+22     	; 0x21ac <SaSetInput+0x42>
    2196:	80 32       	cpi	r24, 0x20	; 32
    2198:	39 f1       	breq	.+78     	; 0x21e8 <SaSetInput+0x7e>
    219a:	18 f4       	brcc	.+6      	; 0x21a2 <SaSetInput+0x38>
    219c:	80 31       	cpi	r24, 0x10	; 16
    219e:	f1 f0       	breq	.+60     	; 0x21dc <SaSetInput+0x72>
    21a0:	34 c0       	rjmp	.+104    	; 0x220a <SaSetInput+0xa0>
    21a2:	80 34       	cpi	r24, 0x40	; 64
    21a4:	39 f1       	breq	.+78     	; 0x21f4 <SaSetInput+0x8a>
    21a6:	80 38       	cpi	r24, 0x80	; 128
    21a8:	59 f1       	breq	.+86     	; 0x2200 <SaSetInput+0x96>
    21aa:	2f c0       	rjmp	.+94     	; 0x220a <SaSetInput+0xa0>
	{
		case PIN0_bm: PORTK_PIN0CTRL |= PORT_OPC_PULLUP_gc; break;
    21ac:	e0 e3       	ldi	r30, 0x30	; 48
    21ae:	f7 e0       	ldi	r31, 0x07	; 7
    21b0:	80 81       	ld	r24, Z
    21b2:	88 61       	ori	r24, 0x18	; 24
    21b4:	80 83       	st	Z, r24
    21b6:	29 c0       	rjmp	.+82     	; 0x220a <SaSetInput+0xa0>
		case PIN1_bm: PORTK_PIN1CTRL |= PORT_OPC_PULLUP_gc; break;
    21b8:	e1 e3       	ldi	r30, 0x31	; 49
    21ba:	f7 e0       	ldi	r31, 0x07	; 7
    21bc:	80 81       	ld	r24, Z
    21be:	88 61       	ori	r24, 0x18	; 24
    21c0:	80 83       	st	Z, r24
    21c2:	23 c0       	rjmp	.+70     	; 0x220a <SaSetInput+0xa0>
		case PIN2_bm: PORTK_PIN2CTRL |= PORT_OPC_PULLUP_gc; break;
    21c4:	e2 e3       	ldi	r30, 0x32	; 50
    21c6:	f7 e0       	ldi	r31, 0x07	; 7
    21c8:	80 81       	ld	r24, Z
    21ca:	88 61       	ori	r24, 0x18	; 24
    21cc:	80 83       	st	Z, r24
    21ce:	1d c0       	rjmp	.+58     	; 0x220a <SaSetInput+0xa0>
		case PIN3_bm: PORTK_PIN3CTRL |= PORT_OPC_PULLUP_gc; break;
    21d0:	e3 e3       	ldi	r30, 0x33	; 51
    21d2:	f7 e0       	ldi	r31, 0x07	; 7
    21d4:	80 81       	ld	r24, Z
    21d6:	88 61       	ori	r24, 0x18	; 24
    21d8:	80 83       	st	Z, r24
    21da:	17 c0       	rjmp	.+46     	; 0x220a <SaSetInput+0xa0>
		case PIN4_bm: PORTK_PIN4CTRL |= PORT_OPC_PULLUP_gc; break;
    21dc:	e4 e3       	ldi	r30, 0x34	; 52
    21de:	f7 e0       	ldi	r31, 0x07	; 7
    21e0:	80 81       	ld	r24, Z
    21e2:	88 61       	ori	r24, 0x18	; 24
    21e4:	80 83       	st	Z, r24
    21e6:	11 c0       	rjmp	.+34     	; 0x220a <SaSetInput+0xa0>
		case PIN5_bm: PORTK_PIN5CTRL |= PORT_OPC_PULLUP_gc; break;
    21e8:	e5 e3       	ldi	r30, 0x35	; 53
    21ea:	f7 e0       	ldi	r31, 0x07	; 7
    21ec:	80 81       	ld	r24, Z
    21ee:	88 61       	ori	r24, 0x18	; 24
    21f0:	80 83       	st	Z, r24
    21f2:	0b c0       	rjmp	.+22     	; 0x220a <SaSetInput+0xa0>
		case PIN6_bm: PORTK_PIN6CTRL |= PORT_OPC_PULLUP_gc; break;
    21f4:	e6 e3       	ldi	r30, 0x36	; 54
    21f6:	f7 e0       	ldi	r31, 0x07	; 7
    21f8:	80 81       	ld	r24, Z
    21fa:	88 61       	ori	r24, 0x18	; 24
    21fc:	80 83       	st	Z, r24
    21fe:	05 c0       	rjmp	.+10     	; 0x220a <SaSetInput+0xa0>
		case PIN7_bm: PORTK_PIN7CTRL |= PORT_OPC_PULLUP_gc; break;
    2200:	e7 e3       	ldi	r30, 0x37	; 55
    2202:	f7 e0       	ldi	r31, 0x07	; 7
    2204:	80 81       	ld	r24, Z
    2206:	88 61       	ori	r24, 0x18	; 24
    2208:	80 83       	st	Z, r24
		default: break;
	}

	//Set the PINnCTRL of the right switch to PULLUP
	switch(switch_pin_right){
    220a:	68 30       	cpi	r22, 0x08	; 8
    220c:	29 f1       	breq	.+74     	; 0x2258 <SaSetInput+0xee>
    220e:	38 f4       	brcc	.+14     	; 0x221e <SaSetInput+0xb4>
    2210:	62 30       	cpi	r22, 0x02	; 2
    2212:	b1 f0       	breq	.+44     	; 0x2240 <SaSetInput+0xd6>
    2214:	64 30       	cpi	r22, 0x04	; 4
    2216:	d1 f0       	breq	.+52     	; 0x224c <SaSetInput+0xe2>
    2218:	61 30       	cpi	r22, 0x01	; 1
    221a:	d9 f5       	brne	.+118    	; 0x2292 <SaSetInput+0x128>
    221c:	0b c0       	rjmp	.+22     	; 0x2234 <SaSetInput+0xca>
    221e:	60 32       	cpi	r22, 0x20	; 32
    2220:	39 f1       	breq	.+78     	; 0x2270 <SaSetInput+0x106>
    2222:	18 f4       	brcc	.+6      	; 0x222a <SaSetInput+0xc0>
    2224:	60 31       	cpi	r22, 0x10	; 16
    2226:	f1 f0       	breq	.+60     	; 0x2264 <SaSetInput+0xfa>
    2228:	08 95       	ret
    222a:	60 34       	cpi	r22, 0x40	; 64
    222c:	39 f1       	breq	.+78     	; 0x227c <SaSetInput+0x112>
    222e:	60 38       	cpi	r22, 0x80	; 128
    2230:	59 f1       	breq	.+86     	; 0x2288 <SaSetInput+0x11e>
    2232:	08 95       	ret
		case PIN0_bm: PORTK_PIN0CTRL |= PORT_OPC_PULLUP_gc; break;
    2234:	e0 e3       	ldi	r30, 0x30	; 48
    2236:	f7 e0       	ldi	r31, 0x07	; 7
    2238:	80 81       	ld	r24, Z
    223a:	88 61       	ori	r24, 0x18	; 24
    223c:	80 83       	st	Z, r24
    223e:	08 95       	ret
		case PIN1_bm: PORTK_PIN1CTRL |= PORT_OPC_PULLUP_gc; break;
    2240:	e1 e3       	ldi	r30, 0x31	; 49
    2242:	f7 e0       	ldi	r31, 0x07	; 7
    2244:	80 81       	ld	r24, Z
    2246:	88 61       	ori	r24, 0x18	; 24
    2248:	80 83       	st	Z, r24
    224a:	08 95       	ret
		case PIN2_bm: PORTK_PIN2CTRL |= PORT_OPC_PULLUP_gc; break;
    224c:	e2 e3       	ldi	r30, 0x32	; 50
    224e:	f7 e0       	ldi	r31, 0x07	; 7
    2250:	80 81       	ld	r24, Z
    2252:	88 61       	ori	r24, 0x18	; 24
    2254:	80 83       	st	Z, r24
    2256:	08 95       	ret
		case PIN3_bm: PORTK_PIN3CTRL |= PORT_OPC_PULLUP_gc; break;
    2258:	e3 e3       	ldi	r30, 0x33	; 51
    225a:	f7 e0       	ldi	r31, 0x07	; 7
    225c:	80 81       	ld	r24, Z
    225e:	88 61       	ori	r24, 0x18	; 24
    2260:	80 83       	st	Z, r24
    2262:	08 95       	ret
		case PIN4_bm: PORTK_PIN4CTRL |= PORT_OPC_PULLUP_gc; break;
    2264:	e4 e3       	ldi	r30, 0x34	; 52
    2266:	f7 e0       	ldi	r31, 0x07	; 7
    2268:	80 81       	ld	r24, Z
    226a:	88 61       	ori	r24, 0x18	; 24
    226c:	80 83       	st	Z, r24
    226e:	08 95       	ret
		case PIN5_bm: PORTK_PIN5CTRL |= PORT_OPC_PULLUP_gc; break;
    2270:	e5 e3       	ldi	r30, 0x35	; 53
    2272:	f7 e0       	ldi	r31, 0x07	; 7
    2274:	80 81       	ld	r24, Z
    2276:	88 61       	ori	r24, 0x18	; 24
    2278:	80 83       	st	Z, r24
    227a:	08 95       	ret
		case PIN6_bm: PORTK_PIN6CTRL |= PORT_OPC_PULLUP_gc; break;
    227c:	e6 e3       	ldi	r30, 0x36	; 54
    227e:	f7 e0       	ldi	r31, 0x07	; 7
    2280:	80 81       	ld	r24, Z
    2282:	88 61       	ori	r24, 0x18	; 24
    2284:	80 83       	st	Z, r24
    2286:	08 95       	ret
		case PIN7_bm: PORTK_PIN7CTRL |= PORT_OPC_PULLUP_gc; break;
    2288:	e7 e3       	ldi	r30, 0x37	; 55
    228a:	f7 e0       	ldi	r31, 0x07	; 7
    228c:	80 81       	ld	r24, Z
    228e:	88 61       	ori	r24, 0x18	; 24
    2290:	80 83       	st	Z, r24
    2292:	08 95       	ret

00002294 <SaSetInterrupt>:


// Zet interrupts aan op de sorterarm pinnen
void SaSetInterrupt(uint8_t switch_pin_left, uint8_t switch_pin_right)
{
	PORTK_INT1MASK |= switch_pin_left;		//pin listen interrupt left
    2294:	eb e2       	ldi	r30, 0x2B	; 43
    2296:	f7 e0       	ldi	r31, 0x07	; 7
    2298:	90 81       	ld	r25, Z
    229a:	98 2b       	or	r25, r24
    229c:	90 83       	st	Z, r25
	PORTK_INT1MASK |= switch_pin_right;		//pin listen interrupt right
    229e:	90 81       	ld	r25, Z
    22a0:	69 2b       	or	r22, r25
    22a2:	60 83       	st	Z, r22

	switch (switch_pin_left)					//sense both edges
    22a4:	84 30       	cpi	r24, 0x04	; 4
    22a6:	09 f1       	breq	.+66     	; 0x22ea <SaSetInterrupt+0x56>
    22a8:	28 f4       	brcc	.+10     	; 0x22b4 <SaSetInterrupt+0x20>
    22aa:	81 30       	cpi	r24, 0x01	; 1
    22ac:	41 f0       	breq	.+16     	; 0x22be <SaSetInterrupt+0x2a>
    22ae:	82 30       	cpi	r24, 0x02	; 2
    22b0:	89 f0       	breq	.+34     	; 0x22d4 <SaSetInterrupt+0x40>
    22b2:	3b c0       	rjmp	.+118    	; 0x232a <SaSetInterrupt+0x96>
    22b4:	88 30       	cpi	r24, 0x08	; 8
    22b6:	21 f1       	breq	.+72     	; 0x2300 <SaSetInterrupt+0x6c>
    22b8:	80 31       	cpi	r24, 0x10	; 16
    22ba:	69 f1       	breq	.+90     	; 0x2316 <SaSetInterrupt+0x82>
    22bc:	36 c0       	rjmp	.+108    	; 0x232a <SaSetInterrupt+0x96>
	{
	case PIN0_bm: PORTK_PIN0CTRL |= PORT_ISC_FALLING_gc, PORTK_PIN1CTRL |= PORT_ISC_FALLING_gc; break;
    22be:	e0 e3       	ldi	r30, 0x30	; 48
    22c0:	f7 e0       	ldi	r31, 0x07	; 7
    22c2:	80 81       	ld	r24, Z
    22c4:	82 60       	ori	r24, 0x02	; 2
    22c6:	80 83       	st	Z, r24
    22c8:	e1 e3       	ldi	r30, 0x31	; 49
    22ca:	f7 e0       	ldi	r31, 0x07	; 7
    22cc:	80 81       	ld	r24, Z
    22ce:	82 60       	ori	r24, 0x02	; 2
    22d0:	80 83       	st	Z, r24
    22d2:	2b c0       	rjmp	.+86     	; 0x232a <SaSetInterrupt+0x96>
	case PIN1_bm: PORTK_PIN1CTRL |= PORT_ISC_FALLING_gc, PORTK_PIN2CTRL |= PORT_ISC_FALLING_gc; break;
    22d4:	e1 e3       	ldi	r30, 0x31	; 49
    22d6:	f7 e0       	ldi	r31, 0x07	; 7
    22d8:	80 81       	ld	r24, Z
    22da:	82 60       	ori	r24, 0x02	; 2
    22dc:	80 83       	st	Z, r24
    22de:	e2 e3       	ldi	r30, 0x32	; 50
    22e0:	f7 e0       	ldi	r31, 0x07	; 7
    22e2:	80 81       	ld	r24, Z
    22e4:	82 60       	ori	r24, 0x02	; 2
    22e6:	80 83       	st	Z, r24
    22e8:	20 c0       	rjmp	.+64     	; 0x232a <SaSetInterrupt+0x96>
	case PIN2_bm: PORTK_PIN2CTRL |= PORT_ISC_FALLING_gc, PORTK_PIN3CTRL |= PORT_ISC_FALLING_gc; break;
    22ea:	e2 e3       	ldi	r30, 0x32	; 50
    22ec:	f7 e0       	ldi	r31, 0x07	; 7
    22ee:	80 81       	ld	r24, Z
    22f0:	82 60       	ori	r24, 0x02	; 2
    22f2:	80 83       	st	Z, r24
    22f4:	e3 e3       	ldi	r30, 0x33	; 51
    22f6:	f7 e0       	ldi	r31, 0x07	; 7
    22f8:	80 81       	ld	r24, Z
    22fa:	82 60       	ori	r24, 0x02	; 2
    22fc:	80 83       	st	Z, r24
    22fe:	15 c0       	rjmp	.+42     	; 0x232a <SaSetInterrupt+0x96>
	case PIN3_bm: PORTK_PIN2CTRL |= PORT_ISC_FALLING_gc, PORTK_PIN4CTRL |= PORT_ISC_FALLING_gc; break;
    2300:	e2 e3       	ldi	r30, 0x32	; 50
    2302:	f7 e0       	ldi	r31, 0x07	; 7
    2304:	80 81       	ld	r24, Z
    2306:	82 60       	ori	r24, 0x02	; 2
    2308:	80 83       	st	Z, r24
    230a:	e4 e3       	ldi	r30, 0x34	; 52
    230c:	f7 e0       	ldi	r31, 0x07	; 7
    230e:	80 81       	ld	r24, Z
    2310:	82 60       	ori	r24, 0x02	; 2
    2312:	80 83       	st	Z, r24
    2314:	0a c0       	rjmp	.+20     	; 0x232a <SaSetInterrupt+0x96>
	case PIN4_bm: PORTK_PIN2CTRL |= PORT_ISC_FALLING_gc, PORTK_PIN5CTRL |= PORT_ISC_FALLING_gc; break;
    2316:	e2 e3       	ldi	r30, 0x32	; 50
    2318:	f7 e0       	ldi	r31, 0x07	; 7
    231a:	80 81       	ld	r24, Z
    231c:	82 60       	ori	r24, 0x02	; 2
    231e:	80 83       	st	Z, r24
    2320:	e5 e3       	ldi	r30, 0x35	; 53
    2322:	f7 e0       	ldi	r31, 0x07	; 7
    2324:	80 81       	ld	r24, Z
    2326:	82 60       	ori	r24, 0x02	; 2
    2328:	80 83       	st	Z, r24
	}

	PORTK_INTCTRL |= PORT_INT1LVL0_bm;	//enable interrupt on PORTK
    232a:	e9 e2       	ldi	r30, 0x29	; 41
    232c:	f7 e0       	ldi	r31, 0x07	; 7
    232e:	80 81       	ld	r24, Z
    2330:	84 60       	ori	r24, 0x04	; 4
    2332:	80 83       	st	Z, r24
    2334:	08 95       	ret

00002336 <ConfigSorterArm>:
	return 0;
}
//TO DO!!!!!!!!!!!!!!!!!!!!!!!!!!!!!!!!!!!!!!!

bool ConfigSorterArm(){
	SaSetInput(sa1.switch_pin_left, sa1.switch_pin_right);
    2336:	60 e8       	ldi	r22, 0x80	; 128
    2338:	80 e4       	ldi	r24, 0x40	; 64
    233a:	0e 94 b5 10 	call	0x216a	; 0x216a <SaSetInput>
    233e:	2f e7       	ldi	r18, 0x7F	; 127
    2340:	82 e3       	ldi	r24, 0x32	; 50
    2342:	92 e0       	ldi	r25, 0x02	; 2
    2344:	21 50       	subi	r18, 0x01	; 1
    2346:	80 40       	sbci	r24, 0x00	; 0
    2348:	90 40       	sbci	r25, 0x00	; 0
    234a:	e1 f7       	brne	.-8      	; 0x2344 <ConfigSorterArm+0xe>
    234c:	00 c0       	rjmp	.+0      	; 0x234e <ConfigSorterArm+0x18>
    234e:	00 00       	nop
	_delay_ms(30); // Debounce tijd
	
	bool Start = 0; // Sorterarm mag starten of niet
	
	if (!(PORTK_IN & sa1.switch_pin_left) && (saDirection == 1)){ // Sorterarm is links en wil naar links, niet mogelijk
    2350:	80 91 28 07 	lds	r24, 0x0728	; 0x800728 <__TEXT_REGION_LENGTH__+0x700728>
    2354:	86 fd       	sbrc	r24, 6
    2356:	27 c0       	rjmp	.+78     	; 0x23a6 <ConfigSorterArm+0x70>
    2358:	80 91 b7 23 	lds	r24, 0x23B7	; 0x8023b7 <saDirection>
    235c:	81 11       	cpse	r24, r1
    235e:	28 c0       	rjmp	.+80     	; 0x23b0 <ConfigSorterArm+0x7a>
    2360:	22 c0       	rjmp	.+68     	; 0x23a6 <ConfigSorterArm+0x70>
		saIsLeft = true;
		Start = 0;
	}
	else if (!(PORTK_IN & sa1.switch_pin_left) && (saDirection == 0)){ // Sorterarm is links en wil naar rechts, mogelijk
    2362:	80 91 b7 23 	lds	r24, 0x23B7	; 0x8023b7 <saDirection>
    2366:	81 11       	cpse	r24, r1
    2368:	27 c0       	rjmp	.+78     	; 0x23b8 <ConfigSorterArm+0x82>
    236a:	15 c0       	rjmp	.+42     	; 0x2396 <ConfigSorterArm+0x60>
		Start = 1;
	}
	else if ((saIsLeft == true) && (saIsRight == true)){
    236c:	80 91 b5 23 	lds	r24, 0x23B5	; 0x8023b5 <saIsRight>
    2370:	81 11       	cpse	r24, r1
    2372:	17 c0       	rjmp	.+46     	; 0x23a2 <ConfigSorterArm+0x6c>
    2374:	25 c0       	rjmp	.+74     	; 0x23c0 <ConfigSorterArm+0x8a>
		Start = 0; // Bijde zijn waar, is niet mogelijk
	}
	else if (!(PORTK_IN & sa1.switch_pin_right) && (saDirection == 1)){ // Sorterarm is rechts en wil naar links, mogelijk
    2376:	80 91 b7 23 	lds	r24, 0x23B7	; 0x8023b7 <saDirection>
    237a:	81 11       	cpse	r24, r1
    237c:	0c c0       	rjmp	.+24     	; 0x2396 <ConfigSorterArm+0x60>
    237e:	3a c0       	rjmp	.+116    	; 0x23f4 <ConfigSorterArm+0xbe>
		Start = 1;
	}
	else if (!(PORTK_IN & sa1.switch_pin_right) && (saDirection == 0)){ // Sorterarm is rechts en wil naar rechts, niet mogelijk
    2380:	80 91 b7 23 	lds	r24, 0x23B7	; 0x8023b7 <saDirection>
    2384:	81 11       	cpse	r24, r1
    2386:	29 c0       	rjmp	.+82     	; 0x23da <ConfigSorterArm+0xa4>
    2388:	24 c0       	rjmp	.+72     	; 0x23d2 <ConfigSorterArm+0x9c>
		saIsRight = true;
		Start = 0;
	}
	else if ((PORTK_IN & sa1.switch_pin_left) && (PORTK_IN & sa1.switch_pin_right)){ // Sorterarm is niet links of rechts, mogelijk
    238a:	80 91 28 07 	lds	r24, 0x0728	; 0x800728 <__TEXT_REGION_LENGTH__+0x700728>
    238e:	88 23       	and	r24, r24
    2390:	54 f1       	brlt	.+84     	; 0x23e6 <ConfigSorterArm+0xb0>
	if (Start == 1){
		SaSetInterrupt(sa1.switch_pin_left, sa1.switch_pin_right); // Stel Sorterarm in om interrupts te genereren 
		return 1; // Sorteram mag starten
	}
	else {
		return 0; // Sorterarm mag niet starten
    2392:	80 e0       	ldi	r24, 0x00	; 0
    2394:	08 95       	ret
		saIsRight = false;
		Start = 1;
	}
		
	if (Start == 1){
		SaSetInterrupt(sa1.switch_pin_left, sa1.switch_pin_right); // Stel Sorterarm in om interrupts te genereren 
    2396:	60 e8       	ldi	r22, 0x80	; 128
    2398:	80 e4       	ldi	r24, 0x40	; 64
    239a:	0e 94 4a 11 	call	0x2294	; 0x2294 <SaSetInterrupt>
		return 1; // Sorteram mag starten
    239e:	81 e0       	ldi	r24, 0x01	; 1
    23a0:	08 95       	ret
	}
	else {
		return 0; // Sorterarm mag niet starten
    23a2:	80 e0       	ldi	r24, 0x00	; 0
    23a4:	08 95       	ret
	
	if (!(PORTK_IN & sa1.switch_pin_left) && (saDirection == 1)){ // Sorterarm is links en wil naar links, niet mogelijk
		saIsLeft = true;
		Start = 0;
	}
	else if (!(PORTK_IN & sa1.switch_pin_left) && (saDirection == 0)){ // Sorterarm is links en wil naar rechts, mogelijk
    23a6:	80 91 28 07 	lds	r24, 0x0728	; 0x800728 <__TEXT_REGION_LENGTH__+0x700728>
    23aa:	86 ff       	sbrs	r24, 6
    23ac:	da cf       	rjmp	.-76     	; 0x2362 <ConfigSorterArm+0x2c>
    23ae:	04 c0       	rjmp	.+8      	; 0x23b8 <ConfigSorterArm+0x82>
	_delay_ms(30); // Debounce tijd
	
	bool Start = 0; // Sorterarm mag starten of niet
	
	if (!(PORTK_IN & sa1.switch_pin_left) && (saDirection == 1)){ // Sorterarm is links en wil naar links, niet mogelijk
		saIsLeft = true;
    23b0:	81 e0       	ldi	r24, 0x01	; 1
    23b2:	80 93 b6 23 	sts	0x23B6, r24	; 0x8023b6 <saIsLeft>
    23b6:	1c c0       	rjmp	.+56     	; 0x23f0 <ConfigSorterArm+0xba>
		Start = 0;
	}
	else if (!(PORTK_IN & sa1.switch_pin_left) && (saDirection == 0)){ // Sorterarm is links en wil naar rechts, mogelijk
		Start = 1;
	}
	else if ((saIsLeft == true) && (saIsRight == true)){
    23b8:	80 91 b6 23 	lds	r24, 0x23B6	; 0x8023b6 <saIsLeft>
    23bc:	81 11       	cpse	r24, r1
    23be:	d6 cf       	rjmp	.-84     	; 0x236c <ConfigSorterArm+0x36>
		Start = 0; // Bijde zijn waar, is niet mogelijk
	}
	else if (!(PORTK_IN & sa1.switch_pin_right) && (saDirection == 1)){ // Sorterarm is rechts en wil naar links, mogelijk
    23c0:	80 91 28 07 	lds	r24, 0x0728	; 0x800728 <__TEXT_REGION_LENGTH__+0x700728>
    23c4:	88 23       	and	r24, r24
    23c6:	bc f6       	brge	.-82     	; 0x2376 <ConfigSorterArm+0x40>
		Start = 1;
	}
	else if (!(PORTK_IN & sa1.switch_pin_right) && (saDirection == 0)){ // Sorterarm is rechts en wil naar rechts, niet mogelijk
    23c8:	80 91 28 07 	lds	r24, 0x0728	; 0x800728 <__TEXT_REGION_LENGTH__+0x700728>
    23cc:	88 23       	and	r24, r24
    23ce:	c4 f6       	brge	.-80     	; 0x2380 <ConfigSorterArm+0x4a>
    23d0:	04 c0       	rjmp	.+8      	; 0x23da <ConfigSorterArm+0xa4>
		saIsRight = true;
    23d2:	81 e0       	ldi	r24, 0x01	; 1
    23d4:	80 93 b5 23 	sts	0x23B5, r24	; 0x8023b5 <saIsRight>
    23d8:	0b c0       	rjmp	.+22     	; 0x23f0 <ConfigSorterArm+0xba>
		Start = 0;
	}
	else if ((PORTK_IN & sa1.switch_pin_left) && (PORTK_IN & sa1.switch_pin_right)){ // Sorterarm is niet links of rechts, mogelijk
    23da:	80 91 28 07 	lds	r24, 0x0728	; 0x800728 <__TEXT_REGION_LENGTH__+0x700728>
    23de:	86 fd       	sbrc	r24, 6
    23e0:	d4 cf       	rjmp	.-88     	; 0x238a <ConfigSorterArm+0x54>
	if (Start == 1){
		SaSetInterrupt(sa1.switch_pin_left, sa1.switch_pin_right); // Stel Sorterarm in om interrupts te genereren 
		return 1; // Sorteram mag starten
	}
	else {
		return 0; // Sorterarm mag niet starten
    23e2:	80 e0       	ldi	r24, 0x00	; 0
    23e4:	08 95       	ret
	else if (!(PORTK_IN & sa1.switch_pin_right) && (saDirection == 0)){ // Sorterarm is rechts en wil naar rechts, niet mogelijk
		saIsRight = true;
		Start = 0;
	}
	else if ((PORTK_IN & sa1.switch_pin_left) && (PORTK_IN & sa1.switch_pin_right)){ // Sorterarm is niet links of rechts, mogelijk
		saIsLeft = false;
    23e6:	10 92 b6 23 	sts	0x23B6, r1	; 0x8023b6 <saIsLeft>
		saIsRight = false;
    23ea:	10 92 b5 23 	sts	0x23B5, r1	; 0x8023b5 <saIsRight>
    23ee:	d3 cf       	rjmp	.-90     	; 0x2396 <ConfigSorterArm+0x60>
	if (Start == 1){
		SaSetInterrupt(sa1.switch_pin_left, sa1.switch_pin_right); // Stel Sorterarm in om interrupts te genereren 
		return 1; // Sorteram mag starten
	}
	else {
		return 0; // Sorterarm mag niet starten
    23f0:	80 e0       	ldi	r24, 0x00	; 0
    23f2:	08 95       	ret
		Start = 0; // Bijde zijn waar, is niet mogelijk
	}
	else if (!(PORTK_IN & sa1.switch_pin_right) && (saDirection == 1)){ // Sorterarm is rechts en wil naar links, mogelijk
		Start = 1;
	}
	else if (!(PORTK_IN & sa1.switch_pin_right) && (saDirection == 0)){ // Sorterarm is rechts en wil naar rechts, niet mogelijk
    23f4:	80 91 28 07 	lds	r24, 0x0728	; 0x800728 <__TEXT_REGION_LENGTH__+0x700728>
    23f8:	88 23       	and	r24, r24
    23fa:	5c f7       	brge	.-42     	; 0x23d2 <ConfigSorterArm+0x9c>
    23fc:	ee cf       	rjmp	.-36     	; 0x23da <ConfigSorterArm+0xa4>

000023fe <MoveSorterArm>:
}


/* beweeg stepper oneindig */
void MoveSorterArm(bool direction)
{
    23fe:	ff 92       	push	r15
    2400:	0f 93       	push	r16
    2402:	1f 93       	push	r17
    2404:	cf 93       	push	r28
    2406:	df 93       	push	r29
    2408:	cd b7       	in	r28, 0x3d	; 61
    240a:	de b7       	in	r29, 0x3e	; 62
    240c:	28 97       	sbiw	r28, 0x08	; 8
    240e:	cd bf       	out	0x3d, r28	; 61
    2410:	de bf       	out	0x3e, r29	; 62
    2412:	f8 2e       	mov	r15, r24
	if (ConfigSorterArm() == 1){
    2414:	0e 94 9b 11 	call	0x2336	; 0x2336 <ConfigSorterArm>
    2418:	88 23       	and	r24, r24
    241a:	21 f1       	breq	.+72     	; 0x2464 <MoveSorterArm+0x66>
		saDirection = direction;
    241c:	f0 92 b7 23 	sts	0x23B7, r15	; 0x8023b7 <saDirection>
		uint16_t motor_id = SORTER_MOTOR_ID;
		uint16_t motor_speed = 300;
		uint16_t steps = 5000;

		char directiondata[] = { direction };
    2420:	f8 86       	std	Y+8, r15	; 0x08
		stepperWriteRegister(DIRECTION_REG, directiondata, sizeof(directiondata) / sizeof(*directiondata), motor_id, USARTE1);
    2422:	00 eb       	ldi	r16, 0xB0	; 176
    2424:	1a e0       	ldi	r17, 0x0A	; 10
    2426:	27 e0       	ldi	r18, 0x07	; 7
    2428:	41 e0       	ldi	r20, 0x01	; 1
    242a:	be 01       	movw	r22, r28
    242c:	68 5f       	subi	r22, 0xF8	; 248
    242e:	7f 4f       	sbci	r23, 0xFF	; 255
    2430:	8a e4       	ldi	r24, 0x4A	; 74
    2432:	0e 94 bf 12 	call	0x257e	; 0x257e <_Z20stepperWriteRegisterhPKchhR12USART_struct>
		char data[] = { (uint8_t)(motor_speed >> 8),(uint8_t)motor_speed,(uint8_t)(steps >> 8),(uint8_t)steps,direction,MOTOR_STEP_FULL,MOTOR_ON };
    2436:	be 01       	movw	r22, r28
    2438:	6f 5f       	subi	r22, 0xFF	; 255
    243a:	7f 4f       	sbci	r23, 0xFF	; 255
    243c:	87 e0       	ldi	r24, 0x07	; 7
    243e:	fb 01       	movw	r30, r22
    2440:	11 92       	st	Z+, r1
    2442:	8a 95       	dec	r24
    2444:	e9 f7       	brne	.-6      	; 0x2440 <MoveSorterArm+0x42>
    2446:	81 e0       	ldi	r24, 0x01	; 1
    2448:	8f 83       	std	Y+7, r24	; 0x07
    244a:	89 83       	std	Y+1, r24	; 0x01
    244c:	8c e2       	ldi	r24, 0x2C	; 44
    244e:	8a 83       	std	Y+2, r24	; 0x02
    2450:	83 e1       	ldi	r24, 0x13	; 19
    2452:	8b 83       	std	Y+3, r24	; 0x03
    2454:	88 e8       	ldi	r24, 0x88	; 136
    2456:	8c 83       	std	Y+4, r24	; 0x04
    2458:	fd 82       	std	Y+5, r15	; 0x05
		stepperWriteRegister(STEPS_PS_HREG, data, sizeof(data) / sizeof(*data), motor_id, USARTE1);
    245a:	27 e0       	ldi	r18, 0x07	; 7
    245c:	47 e0       	ldi	r20, 0x07	; 7
    245e:	86 e4       	ldi	r24, 0x46	; 70
    2460:	0e 94 bf 12 	call	0x257e	; 0x257e <_Z20stepperWriteRegisterhPKchhR12USART_struct>
		}

	/* https://stackoverflow.com/questions/11193800/c-bit-operations-copy-one-bit-from-one-byte-to-another-byte */
	// sa_direction = (sa_direction & ~(sa->switch_pin)) | (((uint8_t)direction << __builtin_ctz(sa->switch_pin)) & sa->switch_pin);
}
    2464:	28 96       	adiw	r28, 0x08	; 8
    2466:	cd bf       	out	0x3d, r28	; 61
    2468:	de bf       	out	0x3e, r29	; 62
    246a:	df 91       	pop	r29
    246c:	cf 91       	pop	r28
    246e:	1f 91       	pop	r17
    2470:	0f 91       	pop	r16
    2472:	ff 90       	pop	r15
    2474:	08 95       	ret

00002476 <HomeSorterArm>:
}


void HomeSorterArm()
{
	while (saIsLeft == false) {
    2476:	80 91 b6 23 	lds	r24, 0x23B6	; 0x8023b6 <saIsLeft>
    247a:	88 23       	and	r24, r24
    247c:	29 f0       	breq	.+10     	; 0x2488 <HomeSorterArm+0x12>
		MoveSorterArm(0);
	}
	


	while (saIsRight == false) {
    247e:	80 91 b5 23 	lds	r24, 0x23B5	; 0x8023b5 <saIsRight>
    2482:	88 23       	and	r24, r24
    2484:	49 f0       	breq	.+18     	; 0x2498 <HomeSorterArm+0x22>
    2486:	08 95       	ret


void HomeSorterArm()
{
	while (saIsLeft == false) {
		MoveSorterArm(0);
    2488:	80 e0       	ldi	r24, 0x00	; 0
    248a:	0e 94 ff 11 	call	0x23fe	; 0x23fe <MoveSorterArm>
}


void HomeSorterArm()
{
	while (saIsLeft == false) {
    248e:	80 91 b6 23 	lds	r24, 0x23B6	; 0x8023b6 <saIsLeft>
    2492:	88 23       	and	r24, r24
    2494:	c9 f3       	breq	.-14     	; 0x2488 <HomeSorterArm+0x12>
    2496:	f3 cf       	rjmp	.-26     	; 0x247e <HomeSorterArm+0x8>
	}
	


	while (saIsRight == false) {
		MoveSorterArm(1);
    2498:	81 e0       	ldi	r24, 0x01	; 1
    249a:	0e 94 ff 11 	call	0x23fe	; 0x23fe <MoveSorterArm>
		MoveSorterArm(0);
	}
	


	while (saIsRight == false) {
    249e:	80 91 b5 23 	lds	r24, 0x23B5	; 0x8023b5 <saIsRight>
    24a2:	88 23       	and	r24, r24
    24a4:	c9 f3       	breq	.-14     	; 0x2498 <HomeSorterArm+0x22>
    24a6:	08 95       	ret

000024a8 <MoveSorterArmDistance>:
			sorterarmPosition = toPosition;
		}
	}
}

void MoveSorterArmDistance(bool direction, uint16_t steps){
    24a8:	df 92       	push	r13
    24aa:	ef 92       	push	r14
    24ac:	ff 92       	push	r15
    24ae:	0f 93       	push	r16
    24b0:	1f 93       	push	r17
    24b2:	cf 93       	push	r28
    24b4:	df 93       	push	r29
    24b6:	cd b7       	in	r28, 0x3d	; 61
    24b8:	de b7       	in	r29, 0x3e	; 62
    24ba:	28 97       	sbiw	r28, 0x08	; 8
    24bc:	cd bf       	out	0x3d, r28	; 61
    24be:	de bf       	out	0x3e, r29	; 62
    24c0:	f8 2e       	mov	r15, r24
    24c2:	e6 2e       	mov	r14, r22
    24c4:	d7 2e       	mov	r13, r23
	
	if (ConfigSorterArm() == 1){
    24c6:	0e 94 9b 11 	call	0x2336	; 0x2336 <ConfigSorterArm>
    24ca:	88 23       	and	r24, r24
    24cc:	01 f1       	breq	.+64     	; 0x250e <MoveSorterArmDistance+0x66>
	uint16_t motor_id = SORTER_MOTOR_ID;
	uint16_t motor_speed = 300;

	char directiondata[] = { direction };
    24ce:	f8 86       	std	Y+8, r15	; 0x08
	stepperWriteRegister(DIRECTION_REG, directiondata, sizeof(directiondata) / sizeof(*directiondata), motor_id, USARTE1);
    24d0:	00 eb       	ldi	r16, 0xB0	; 176
    24d2:	1a e0       	ldi	r17, 0x0A	; 10
    24d4:	27 e0       	ldi	r18, 0x07	; 7
    24d6:	41 e0       	ldi	r20, 0x01	; 1
    24d8:	be 01       	movw	r22, r28
    24da:	68 5f       	subi	r22, 0xF8	; 248
    24dc:	7f 4f       	sbci	r23, 0xFF	; 255
    24de:	8a e4       	ldi	r24, 0x4A	; 74
    24e0:	0e 94 bf 12 	call	0x257e	; 0x257e <_Z20stepperWriteRegisterhPKchhR12USART_struct>
	char data[] = { (uint8_t)(motor_speed >> 8),(uint8_t)motor_speed,(uint8_t)(steps >> 8),(uint8_t)steps,direction,MOTOR_STEP_FULL,MOTOR_ON };
    24e4:	be 01       	movw	r22, r28
    24e6:	6f 5f       	subi	r22, 0xFF	; 255
    24e8:	7f 4f       	sbci	r23, 0xFF	; 255
    24ea:	87 e0       	ldi	r24, 0x07	; 7
    24ec:	fb 01       	movw	r30, r22
    24ee:	11 92       	st	Z+, r1
    24f0:	8a 95       	dec	r24
    24f2:	e9 f7       	brne	.-6      	; 0x24ee <MoveSorterArmDistance+0x46>
    24f4:	81 e0       	ldi	r24, 0x01	; 1
    24f6:	8f 83       	std	Y+7, r24	; 0x07
    24f8:	89 83       	std	Y+1, r24	; 0x01
    24fa:	8c e2       	ldi	r24, 0x2C	; 44
    24fc:	8a 83       	std	Y+2, r24	; 0x02
    24fe:	db 82       	std	Y+3, r13	; 0x03
    2500:	ec 82       	std	Y+4, r14	; 0x04
    2502:	fd 82       	std	Y+5, r15	; 0x05
	stepperWriteRegister(STEPS_PS_HREG, data, sizeof(data) / sizeof(*data), motor_id, USARTE1);
    2504:	27 e0       	ldi	r18, 0x07	; 7
    2506:	47 e0       	ldi	r20, 0x07	; 7
    2508:	86 e4       	ldi	r24, 0x46	; 70
    250a:	0e 94 bf 12 	call	0x257e	; 0x257e <_Z20stepperWriteRegisterhPKchhR12USART_struct>
	}
}
    250e:	28 96       	adiw	r28, 0x08	; 8
    2510:	cd bf       	out	0x3d, r28	; 61
    2512:	de bf       	out	0x3e, r29	; 62
    2514:	df 91       	pop	r29
    2516:	cf 91       	pop	r28
    2518:	1f 91       	pop	r17
    251a:	0f 91       	pop	r16
    251c:	ff 90       	pop	r15
    251e:	ef 90       	pop	r14
    2520:	df 90       	pop	r13
    2522:	08 95       	ret

00002524 <MoveSorterArmTo>:

	/* https://stackoverflow.com/questions/11193800/c-bit-operations-copy-one-bit-from-one-byte-to-another-byte */
	// sa_direction = (sa_direction & ~(sa->switch_pin)) | (((uint8_t)direction << __builtin_ctz(sa->switch_pin)) & sa->switch_pin);
}

void MoveSorterArmTo(uint16_t toPosition){
    2524:	cf 93       	push	r28
    2526:	df 93       	push	r29
    2528:	ec 01       	movw	r28, r24
	bool direction = 0;
	uint16_t steps = 0;
		
	if (ConfigSorterArm() == 1){
    252a:	0e 94 9b 11 	call	0x2336	; 0x2336 <ConfigSorterArm>
    252e:	88 23       	and	r24, r24
    2530:	19 f1       	breq	.+70     	; 0x2578 <MoveSorterArmTo+0x54>
		if(toPosition >= sa1.minpos || toPosition <= sa1.maxpos){
			if (toPosition < sorterarmPosition){
    2532:	80 91 b8 23 	lds	r24, 0x23B8	; 0x8023b8 <sorterarmPosition>
    2536:	90 91 b9 23 	lds	r25, 0x23B9	; 0x8023b9 <sorterarmPosition+0x1>
    253a:	c8 17       	cp	r28, r24
    253c:	d9 07       	cpc	r29, r25
    253e:	40 f4       	brcc	.+16     	; 0x2550 <MoveSorterArmTo+0x2c>
				direction = 1;
				steps = toPosition * 200;
    2540:	88 ec       	ldi	r24, 0xC8	; 200
    2542:	8c 9f       	mul	r24, r28
    2544:	b0 01       	movw	r22, r0
    2546:	8d 9f       	mul	r24, r29
    2548:	70 0d       	add	r23, r0
    254a:	11 24       	eor	r1, r1
	uint16_t steps = 0;
		
	if (ConfigSorterArm() == 1){
		if(toPosition >= sa1.minpos || toPosition <= sa1.maxpos){
			if (toPosition < sorterarmPosition){
				direction = 1;
    254c:	81 e0       	ldi	r24, 0x01	; 1
    254e:	0e c0       	rjmp	.+28     	; 0x256c <MoveSorterArmTo+0x48>
				steps = toPosition * 200;
				//steps = toPosition - sa1.position;
			}
			else if (toPosition > sorterarmPosition){
    2550:	8c 17       	cp	r24, r28
    2552:	9d 07       	cpc	r25, r29
    2554:	40 f4       	brcc	.+16     	; 0x2566 <MoveSorterArmTo+0x42>
				direction = 0;
				steps = toPosition * 200;
    2556:	88 ec       	ldi	r24, 0xC8	; 200
    2558:	8c 9f       	mul	r24, r28
    255a:	b0 01       	movw	r22, r0
    255c:	8d 9f       	mul	r24, r29
    255e:	70 0d       	add	r23, r0
    2560:	11 24       	eor	r1, r1
				direction = 1;
				steps = toPosition * 200;
				//steps = toPosition - sa1.position;
			}
			else if (toPosition > sorterarmPosition){
				direction = 0;
    2562:	80 e0       	ldi	r24, 0x00	; 0
    2564:	03 c0       	rjmp	.+6      	; 0x256c <MoveSorterArmTo+0x48>
				steps = toPosition * 200;
				//steps = sa1.position - toPosition;
			}else{
				steps = 0;
    2566:	60 e0       	ldi	r22, 0x00	; 0
    2568:	70 e0       	ldi	r23, 0x00	; 0
	/* https://stackoverflow.com/questions/11193800/c-bit-operations-copy-one-bit-from-one-byte-to-another-byte */
	// sa_direction = (sa_direction & ~(sa->switch_pin)) | (((uint8_t)direction << __builtin_ctz(sa->switch_pin)) & sa->switch_pin);
}

void MoveSorterArmTo(uint16_t toPosition){
	bool direction = 0;
    256a:	80 e0       	ldi	r24, 0x00	; 0
				//steps = sa1.position - toPosition;
			}else{
				steps = 0;
			}
		
			MoveSorterArmDistance(direction, steps);
    256c:	0e 94 54 12 	call	0x24a8	; 0x24a8 <MoveSorterArmDistance>
			sorterarmPosition = toPosition;
    2570:	c0 93 b8 23 	sts	0x23B8, r28	; 0x8023b8 <sorterarmPosition>
    2574:	d0 93 b9 23 	sts	0x23B9, r29	; 0x8023b9 <sorterarmPosition+0x1>
		}
	}
}
    2578:	df 91       	pop	r29
    257a:	cf 91       	pop	r28
    257c:	08 95       	ret

0000257e <_Z20stepperWriteRegisterhPKchhR12USART_struct>:
#include "Stepperdriver.h"



void stepperWriteRegister(uint8_t address, const char* data, uint8_t length, uint8_t motorID, USART_struct &USART)
{
    257e:	cf 92       	push	r12
    2580:	df 92       	push	r13
    2582:	ef 92       	push	r14
    2584:	ff 92       	push	r15
    2586:	0f 93       	push	r16
    2588:	1f 93       	push	r17
    258a:	cf 93       	push	r28
    258c:	df 93       	push	r29
    258e:	d8 2e       	mov	r13, r24
    2590:	7b 01       	movw	r14, r22
    2592:	d4 2f       	mov	r29, r20
    2594:	c2 2e       	mov	r12, r18
	cli(); //global interrupt disable, this function is not re-entrant and should not be interrupted
    2596:	f8 94       	cli
	uint8_t checksum = 0xFF-motorID-(length+3)-address;
    2598:	cc ef       	ldi	r28, 0xFC	; 252
    259a:	c8 1b       	sub	r28, r24
    259c:	c4 1b       	sub	r28, r20
    259e:	c2 1b       	sub	r28, r18
	for(uint8_t i = 0; i < length; i++)
    25a0:	44 23       	and	r20, r20
    25a2:	69 f0       	breq	.+26     	; 0x25be <_Z20stepperWriteRegisterhPKchhR12USART_struct+0x40>
    25a4:	fb 01       	movw	r30, r22
    25a6:	2f ef       	ldi	r18, 0xFF	; 255
    25a8:	24 0f       	add	r18, r20
    25aa:	30 e0       	ldi	r19, 0x00	; 0
    25ac:	2f 5f       	subi	r18, 0xFF	; 255
    25ae:	3f 4f       	sbci	r19, 0xFF	; 255
    25b0:	26 0f       	add	r18, r22
    25b2:	37 1f       	adc	r19, r23
	{
		checksum = checksum - data[i];
    25b4:	81 91       	ld	r24, Z+
    25b6:	c8 1b       	sub	r28, r24

void stepperWriteRegister(uint8_t address, const char* data, uint8_t length, uint8_t motorID, USART_struct &USART)
{
	cli(); //global interrupt disable, this function is not re-entrant and should not be interrupted
	uint8_t checksum = 0xFF-motorID-(length+3)-address;
	for(uint8_t i = 0; i < length; i++)
    25b8:	e2 17       	cp	r30, r18
    25ba:	f3 07       	cpc	r31, r19
    25bc:	d9 f7       	brne	.-10     	; 0x25b4 <_Z20stepperWriteRegisterhPKchhR12USART_struct+0x36>
	{
		checksum = checksum - data[i];
	}
	
	USART_Transmit(USART, 0xFF); //send 0xFFFF
    25be:	6f ef       	ldi	r22, 0xFF	; 255
    25c0:	c8 01       	movw	r24, r16
    25c2:	0e 94 66 09 	call	0x12cc	; 0x12cc <_Z14USART_TransmitR12USART_structc>
	USART_Transmit(USART, 0xFF);
    25c6:	6f ef       	ldi	r22, 0xFF	; 255
    25c8:	c8 01       	movw	r24, r16
    25ca:	0e 94 66 09 	call	0x12cc	; 0x12cc <_Z14USART_TransmitR12USART_structc>
	USART_Transmit(USART, motorID); //send motorID
    25ce:	6c 2d       	mov	r22, r12
    25d0:	c8 01       	movw	r24, r16
    25d2:	0e 94 66 09 	call	0x12cc	; 0x12cc <_Z14USART_TransmitR12USART_structc>
	USART_Transmit(USART, length+3); //transmit message length (register instruction+address+data+checksum)
    25d6:	63 e0       	ldi	r22, 0x03	; 3
    25d8:	6d 0f       	add	r22, r29
    25da:	c8 01       	movw	r24, r16
    25dc:	0e 94 66 09 	call	0x12cc	; 0x12cc <_Z14USART_TransmitR12USART_structc>
	USART_Transmit(USART, 0x00); // instruction (not yet implemented)
    25e0:	60 e0       	ldi	r22, 0x00	; 0
    25e2:	c8 01       	movw	r24, r16
    25e4:	0e 94 66 09 	call	0x12cc	; 0x12cc <_Z14USART_TransmitR12USART_structc>
	USART_Transmit(USART, address); // send address to start writing
    25e8:	6d 2d       	mov	r22, r13
    25ea:	c8 01       	movw	r24, r16
    25ec:	0e 94 66 09 	call	0x12cc	; 0x12cc <_Z14USART_TransmitR12USART_structc>
	USART_Transmit(USART, data, length); //send data to write to registers
    25f0:	4d 2f       	mov	r20, r29
    25f2:	b7 01       	movw	r22, r14
    25f4:	c8 01       	movw	r24, r16
    25f6:	0e 94 b0 09 	call	0x1360	; 0x1360 <_Z14USART_TransmitR12USART_structPKch>
	USART_Transmit(USART, checksum);
    25fa:	6c 2f       	mov	r22, r28
    25fc:	c8 01       	movw	r24, r16
    25fe:	0e 94 66 09 	call	0x12cc	; 0x12cc <_Z14USART_TransmitR12USART_structc>
    2602:	2f e7       	ldi	r18, 0x7F	; 127
    2604:	82 e3       	ldi	r24, 0x32	; 50
    2606:	92 e0       	ldi	r25, 0x02	; 2
    2608:	21 50       	subi	r18, 0x01	; 1
    260a:	80 40       	sbci	r24, 0x00	; 0
    260c:	90 40       	sbci	r25, 0x00	; 0
    260e:	e1 f7       	brne	.-8      	; 0x2608 <_Z20stepperWriteRegisterhPKchhR12USART_struct+0x8a>
    2610:	00 c0       	rjmp	.+0      	; 0x2612 <_Z20stepperWriteRegisterhPKchhR12USART_struct+0x94>
    2612:	00 00       	nop

	_delay_ms(30);
	sei(); //global interrupt enable
    2614:	78 94       	sei
}
    2616:	df 91       	pop	r29
    2618:	cf 91       	pop	r28
    261a:	1f 91       	pop	r17
    261c:	0f 91       	pop	r16
    261e:	ff 90       	pop	r15
    2620:	ef 90       	pop	r14
    2622:	df 90       	pop	r13
    2624:	cf 90       	pop	r12
    2626:	08 95       	ret

00002628 <_Z22ChangeDirectionStepperbh>:


void ChangeDirectionStepper(bool direction, uint8_t motor_id)
{
    2628:	0f 93       	push	r16
    262a:	1f 93       	push	r17
    262c:	cf 93       	push	r28
    262e:	df 93       	push	r29
    2630:	1f 92       	push	r1
    2632:	cd b7       	in	r28, 0x3d	; 61
    2634:	de b7       	in	r29, 0x3e	; 62
    2636:	26 2f       	mov	r18, r22
	char directiondata[]={direction};
    2638:	89 83       	std	Y+1, r24	; 0x01
	stepperWriteRegister(DIRECTION_REG,directiondata,sizeof(directiondata)/sizeof(*directiondata),motor_id, USARTE1);
    263a:	00 eb       	ldi	r16, 0xB0	; 176
    263c:	1a e0       	ldi	r17, 0x0A	; 10
    263e:	41 e0       	ldi	r20, 0x01	; 1
    2640:	be 01       	movw	r22, r28
    2642:	6f 5f       	subi	r22, 0xFF	; 255
    2644:	7f 4f       	sbci	r23, 0xFF	; 255
    2646:	8a e4       	ldi	r24, 0x4A	; 74
    2648:	0e 94 bf 12 	call	0x257e	; 0x257e <_Z20stepperWriteRegisterhPKchhR12USART_struct>
}
    264c:	0f 90       	pop	r0
    264e:	df 91       	pop	r29
    2650:	cf 91       	pop	r28
    2652:	1f 91       	pop	r17
    2654:	0f 91       	pop	r16
    2656:	08 95       	ret

00002658 <_Z8MoveBeltbji>:


void MoveBelt(bool direction, uint16_t i, int16_t speed)
{
    2658:	cf 92       	push	r12
    265a:	df 92       	push	r13
    265c:	ef 92       	push	r14
    265e:	ff 92       	push	r15
    2660:	0f 93       	push	r16
    2662:	1f 93       	push	r17
    2664:	cf 93       	push	r28
    2666:	df 93       	push	r29
    2668:	cd b7       	in	r28, 0x3d	; 61
    266a:	de b7       	in	r29, 0x3e	; 62
    266c:	28 97       	sbiw	r28, 0x08	; 8
    266e:	cd bf       	out	0x3d, r28	; 61
    2670:	de bf       	out	0x3e, r29	; 62
	uint8_t motor_id;
	//Only move when 'i' has a number that is a Belt motor ID
	switch(i) {
    2672:	62 30       	cpi	r22, 0x02	; 2
    2674:	71 05       	cpc	r23, r1
    2676:	61 f0       	breq	.+24     	; 0x2690 <_Z8MoveBeltbji+0x38>
    2678:	20 f4       	brcc	.+8      	; 0x2682 <_Z8MoveBeltbji+0x2a>
    267a:	61 30       	cpi	r22, 0x01	; 1
    267c:	71 05       	cpc	r23, r1
    267e:	a9 f0       	breq	.+42     	; 0x26aa <_Z8MoveBeltbji+0x52>
    2680:	39 c0       	rjmp	.+114    	; 0x26f4 <_Z8MoveBeltbji+0x9c>
    2682:	63 30       	cpi	r22, 0x03	; 3
    2684:	71 05       	cpc	r23, r1
    2686:	41 f0       	breq	.+16     	; 0x2698 <_Z8MoveBeltbji+0x40>
    2688:	64 30       	cpi	r22, 0x04	; 4
    268a:	71 05       	cpc	r23, r1
    268c:	51 f0       	breq	.+20     	; 0x26a2 <_Z8MoveBeltbji+0x4a>
    268e:	32 c0       	rjmp	.+100    	; 0x26f4 <_Z8MoveBeltbji+0x9c>
		case 1: motor_id = BELT_1_MOTOR_ID; break;
		case 2: motor_id = BELT_2_MOTOR_ID; break;
    2690:	68 94       	set
    2692:	cc 24       	eor	r12, r12
    2694:	c1 f8       	bld	r12, 1
    2696:	0b c0       	rjmp	.+22     	; 0x26ae <_Z8MoveBeltbji+0x56>
		case 3: motor_id = BELT_3_MOTOR_ID; break;
    2698:	0f 2e       	mov	r0, r31
    269a:	f3 e0       	ldi	r31, 0x03	; 3
    269c:	cf 2e       	mov	r12, r31
    269e:	f0 2d       	mov	r31, r0
    26a0:	06 c0       	rjmp	.+12     	; 0x26ae <_Z8MoveBeltbji+0x56>
		case 4: motor_id = BELT_4_MOTOR_ID; break;
    26a2:	68 94       	set
    26a4:	cc 24       	eor	r12, r12
    26a6:	c2 f8       	bld	r12, 2
    26a8:	02 c0       	rjmp	.+4      	; 0x26ae <_Z8MoveBeltbji+0x56>
void MoveBelt(bool direction, uint16_t i, int16_t speed)
{
	uint8_t motor_id;
	//Only move when 'i' has a number that is a Belt motor ID
	switch(i) {
		case 1: motor_id = BELT_1_MOTOR_ID; break;
    26aa:	cc 24       	eor	r12, r12
    26ac:	c3 94       	inc	r12
    26ae:	d5 2e       	mov	r13, r21
    26b0:	e4 2e       	mov	r14, r20
    26b2:	f8 2e       	mov	r15, r24
		default: return;
	}
	//Convert speed from uint16_t to byte array:
	char speedData[2]={(char)((speed>>8)&0xff), (char)(speed&0xff)};
	//Convert bool to byte array, could this be a typecast instead (and would that make a difference)
	char directiondata[]={direction};
    26b4:	89 83       	std	Y+1, r24	; 0x01
	//Write direction data to the direction register
	stepperWriteRegister(DIRECTION_REG,directiondata,sizeof(directiondata)/sizeof(*directiondata),motor_id, USARTE1);
    26b6:	00 eb       	ldi	r16, 0xB0	; 176
    26b8:	1a e0       	ldi	r17, 0x0A	; 10
    26ba:	2c 2d       	mov	r18, r12
    26bc:	41 e0       	ldi	r20, 0x01	; 1
    26be:	be 01       	movw	r22, r28
    26c0:	6f 5f       	subi	r22, 0xFF	; 255
    26c2:	7f 4f       	sbci	r23, 0xFF	; 255
    26c4:	8a e4       	ldi	r24, 0x4A	; 74
    26c6:	0e 94 bf 12 	call	0x257e	; 0x257e <_Z20stepperWriteRegisterhPKchhR12USART_struct>
	//Write the remaining data:
	char data[]={speedData[0], speedData[1],0xFF,0xFF,direction,MOTOR_STEP_FULL,MOTOR_ON};
    26ca:	be 01       	movw	r22, r28
    26cc:	6e 5f       	subi	r22, 0xFE	; 254
    26ce:	7f 4f       	sbci	r23, 0xFF	; 255
    26d0:	87 e0       	ldi	r24, 0x07	; 7
    26d2:	fb 01       	movw	r30, r22
    26d4:	11 92       	st	Z+, r1
    26d6:	8a 95       	dec	r24
    26d8:	e9 f7       	brne	.-6      	; 0x26d4 <_Z8MoveBeltbji+0x7c>
    26da:	8f ef       	ldi	r24, 0xFF	; 255
    26dc:	8c 83       	std	Y+4, r24	; 0x04
    26de:	8d 83       	std	Y+5, r24	; 0x05
    26e0:	81 e0       	ldi	r24, 0x01	; 1
    26e2:	88 87       	std	Y+8, r24	; 0x08
    26e4:	da 82       	std	Y+2, r13	; 0x02
    26e6:	eb 82       	std	Y+3, r14	; 0x03
    26e8:	fe 82       	std	Y+6, r15	; 0x06
	stepperWriteRegister(STEPS_PS_HREG,data,sizeof(data)/sizeof(*data),motor_id,USARTE1); //This write operation also contains direction data? Why is the other one still needed?
    26ea:	2c 2d       	mov	r18, r12
    26ec:	47 e0       	ldi	r20, 0x07	; 7
    26ee:	86 e4       	ldi	r24, 0x46	; 70
    26f0:	0e 94 bf 12 	call	0x257e	; 0x257e <_Z20stepperWriteRegisterhPKchhR12USART_struct>
}
    26f4:	28 96       	adiw	r28, 0x08	; 8
    26f6:	cd bf       	out	0x3d, r28	; 61
    26f8:	de bf       	out	0x3e, r29	; 62
    26fa:	df 91       	pop	r29
    26fc:	cf 91       	pop	r28
    26fe:	1f 91       	pop	r17
    2700:	0f 91       	pop	r16
    2702:	ff 90       	pop	r15
    2704:	ef 90       	pop	r14
    2706:	df 90       	pop	r13
    2708:	cf 90       	pop	r12
    270a:	08 95       	ret

0000270c <_Z8StopBeltj>:


void StopBelt(uint16_t i)
{
    270c:	0f 93       	push	r16
    270e:	1f 93       	push	r17
    2710:	cf 93       	push	r28
    2712:	df 93       	push	r29
    2714:	1f 92       	push	r1
    2716:	cd b7       	in	r28, 0x3d	; 61
    2718:	de b7       	in	r29, 0x3e	; 62
	uint8_t motor_id;
	switch(i) {
    271a:	82 30       	cpi	r24, 0x02	; 2
    271c:	91 05       	cpc	r25, r1
    271e:	51 f0       	breq	.+20     	; 0x2734 <_Z8StopBeltj+0x28>
    2720:	18 f4       	brcc	.+6      	; 0x2728 <_Z8StopBeltj+0x1c>
    2722:	01 97       	sbiw	r24, 0x01	; 1
    2724:	69 f0       	breq	.+26     	; 0x2740 <_Z8StopBeltj+0x34>
    2726:	17 c0       	rjmp	.+46     	; 0x2756 <_Z8StopBeltj+0x4a>
    2728:	83 30       	cpi	r24, 0x03	; 3
    272a:	91 05       	cpc	r25, r1
    272c:	29 f0       	breq	.+10     	; 0x2738 <_Z8StopBeltj+0x2c>
    272e:	04 97       	sbiw	r24, 0x04	; 4
    2730:	29 f0       	breq	.+10     	; 0x273c <_Z8StopBeltj+0x30>
    2732:	11 c0       	rjmp	.+34     	; 0x2756 <_Z8StopBeltj+0x4a>
		case 1: motor_id = BELT_1_MOTOR_ID; break;
		case 2: motor_id = BELT_2_MOTOR_ID; break;
    2734:	22 e0       	ldi	r18, 0x02	; 2
    2736:	05 c0       	rjmp	.+10     	; 0x2742 <_Z8StopBeltj+0x36>
		case 3: motor_id = BELT_3_MOTOR_ID; break;
    2738:	23 e0       	ldi	r18, 0x03	; 3
    273a:	03 c0       	rjmp	.+6      	; 0x2742 <_Z8StopBeltj+0x36>
		case 4: motor_id = BELT_4_MOTOR_ID; break;
    273c:	24 e0       	ldi	r18, 0x04	; 4
    273e:	01 c0       	rjmp	.+2      	; 0x2742 <_Z8StopBeltj+0x36>

void StopBelt(uint16_t i)
{
	uint8_t motor_id;
	switch(i) {
		case 1: motor_id = BELT_1_MOTOR_ID; break;
    2740:	21 e0       	ldi	r18, 0x01	; 1
		case 2: motor_id = BELT_2_MOTOR_ID; break;
		case 3: motor_id = BELT_3_MOTOR_ID; break;
		case 4: motor_id = BELT_4_MOTOR_ID; break;
		default: return;
	}
	char data[]={MOTOR_OFF};
    2742:	19 82       	std	Y+1, r1	; 0x01
	stepperWriteRegister(MOTOR_ENABLE_REG, data, sizeof(data)/sizeof(*data),motor_id,USARTE1);
    2744:	00 eb       	ldi	r16, 0xB0	; 176
    2746:	1a e0       	ldi	r17, 0x0A	; 10
    2748:	41 e0       	ldi	r20, 0x01	; 1
    274a:	be 01       	movw	r22, r28
    274c:	6f 5f       	subi	r22, 0xFF	; 255
    274e:	7f 4f       	sbci	r23, 0xFF	; 255
    2750:	8c e4       	ldi	r24, 0x4C	; 76
    2752:	0e 94 bf 12 	call	0x257e	; 0x257e <_Z20stepperWriteRegisterhPKchhR12USART_struct>
}
    2756:	0f 90       	pop	r0
    2758:	df 91       	pop	r29
    275a:	cf 91       	pop	r28
    275c:	1f 91       	pop	r17
    275e:	0f 91       	pop	r16
    2760:	08 95       	ret

00002762 <_Z13MoveTurntablebji>:


void MoveTurntable(bool direction, uint16_t i, int16_t speed )
{
    2762:	cf 92       	push	r12
    2764:	df 92       	push	r13
    2766:	ef 92       	push	r14
    2768:	ff 92       	push	r15
    276a:	0f 93       	push	r16
    276c:	1f 93       	push	r17
    276e:	cf 93       	push	r28
    2770:	df 93       	push	r29
    2772:	cd b7       	in	r28, 0x3d	; 61
    2774:	de b7       	in	r29, 0x3e	; 62
    2776:	28 97       	sbiw	r28, 0x08	; 8
    2778:	cd bf       	out	0x3d, r28	; 61
    277a:	de bf       	out	0x3e, r29	; 62
	uint8_t motor_id;
	switch(i) {
    277c:	61 30       	cpi	r22, 0x01	; 1
    277e:	71 05       	cpc	r23, r1
    2780:	41 f0       	breq	.+16     	; 0x2792 <_Z13MoveTurntablebji+0x30>
    2782:	62 30       	cpi	r22, 0x02	; 2
    2784:	71 05       	cpc	r23, r1
    2786:	71 f5       	brne	.+92     	; 0x27e4 <_Z13MoveTurntablebji+0x82>
		case 1: motor_id = TURNTABLE_1_MOTOR_ID; break;
		case 2: motor_id = TURNTABLE_2_MOTOR_ID; break;
    2788:	0f 2e       	mov	r0, r31
    278a:	f6 e0       	ldi	r31, 0x06	; 6
    278c:	cf 2e       	mov	r12, r31
    278e:	f0 2d       	mov	r31, r0
    2790:	04 c0       	rjmp	.+8      	; 0x279a <_Z13MoveTurntablebji+0x38>

void MoveTurntable(bool direction, uint16_t i, int16_t speed )
{
	uint8_t motor_id;
	switch(i) {
		case 1: motor_id = TURNTABLE_1_MOTOR_ID; break;
    2792:	0f 2e       	mov	r0, r31
    2794:	f5 e0       	ldi	r31, 0x05	; 5
    2796:	cf 2e       	mov	r12, r31
    2798:	f0 2d       	mov	r31, r0
    279a:	d5 2e       	mov	r13, r21
    279c:	e4 2e       	mov	r14, r20
    279e:	f8 2e       	mov	r15, r24
		case 2: motor_id = TURNTABLE_2_MOTOR_ID; break;
		default: return;
	}

	char speedData[2] = { (char)((speed >> 8) & 0xff), (char)(speed & 0xff) };
	char directiondata[] = { direction };
    27a0:	89 83       	std	Y+1, r24	; 0x01
	stepperWriteRegister(DIRECTION_REG, directiondata, sizeof(directiondata) / sizeof(*directiondata), motor_id, USARTE1);
    27a2:	00 eb       	ldi	r16, 0xB0	; 176
    27a4:	1a e0       	ldi	r17, 0x0A	; 10
    27a6:	2c 2d       	mov	r18, r12
    27a8:	41 e0       	ldi	r20, 0x01	; 1
    27aa:	be 01       	movw	r22, r28
    27ac:	6f 5f       	subi	r22, 0xFF	; 255
    27ae:	7f 4f       	sbci	r23, 0xFF	; 255
    27b0:	8a e4       	ldi	r24, 0x4A	; 74
    27b2:	0e 94 bf 12 	call	0x257e	; 0x257e <_Z20stepperWriteRegisterhPKchhR12USART_struct>
	char data[] = { speedData[0], speedData[1],0xFF,0xFF,direction,MOTOR_STEP_QUARTER,MOTOR_ON }; // Turntable's draaien op 1/4 step mode, hierdoor kunnen de motoreren soepeler draaien
    27b6:	be 01       	movw	r22, r28
    27b8:	6e 5f       	subi	r22, 0xFE	; 254
    27ba:	7f 4f       	sbci	r23, 0xFF	; 255
    27bc:	87 e0       	ldi	r24, 0x07	; 7
    27be:	fb 01       	movw	r30, r22
    27c0:	11 92       	st	Z+, r1
    27c2:	8a 95       	dec	r24
    27c4:	e9 f7       	brne	.-6      	; 0x27c0 <_Z13MoveTurntablebji+0x5e>
    27c6:	8f ef       	ldi	r24, 0xFF	; 255
    27c8:	8c 83       	std	Y+4, r24	; 0x04
    27ca:	8d 83       	std	Y+5, r24	; 0x05
    27cc:	82 e0       	ldi	r24, 0x02	; 2
    27ce:	8f 83       	std	Y+7, r24	; 0x07
    27d0:	81 e0       	ldi	r24, 0x01	; 1
    27d2:	88 87       	std	Y+8, r24	; 0x08
    27d4:	da 82       	std	Y+2, r13	; 0x02
    27d6:	eb 82       	std	Y+3, r14	; 0x03
    27d8:	fe 82       	std	Y+6, r15	; 0x06
	stepperWriteRegister(STEPS_PS_HREG, data, sizeof(data) / sizeof(*data), motor_id, USARTE1);
    27da:	2c 2d       	mov	r18, r12
    27dc:	47 e0       	ldi	r20, 0x07	; 7
    27de:	86 e4       	ldi	r24, 0x46	; 70
    27e0:	0e 94 bf 12 	call	0x257e	; 0x257e <_Z20stepperWriteRegisterhPKchhR12USART_struct>
}
    27e4:	28 96       	adiw	r28, 0x08	; 8
    27e6:	cd bf       	out	0x3d, r28	; 61
    27e8:	de bf       	out	0x3e, r29	; 62
    27ea:	df 91       	pop	r29
    27ec:	cf 91       	pop	r28
    27ee:	1f 91       	pop	r17
    27f0:	0f 91       	pop	r16
    27f2:	ff 90       	pop	r15
    27f4:	ef 90       	pop	r14
    27f6:	df 90       	pop	r13
    27f8:	cf 90       	pop	r12
    27fa:	08 95       	ret

000027fc <_Z13StopTurntablej>:


void StopTurntable(uint16_t i)
{
    27fc:	0f 93       	push	r16
    27fe:	1f 93       	push	r17
    2800:	cf 93       	push	r28
    2802:	df 93       	push	r29
    2804:	1f 92       	push	r1
    2806:	cd b7       	in	r28, 0x3d	; 61
    2808:	de b7       	in	r29, 0x3e	; 62
	uint8_t motor_id;
	switch(i) {
    280a:	81 30       	cpi	r24, 0x01	; 1
    280c:	91 05       	cpc	r25, r1
    280e:	21 f0       	breq	.+8      	; 0x2818 <_Z13StopTurntablej+0x1c>
    2810:	02 97       	sbiw	r24, 0x02	; 2
    2812:	69 f4       	brne	.+26     	; 0x282e <_Z13StopTurntablej+0x32>
		case 1: motor_id = TURNTABLE_1_MOTOR_ID; break;
		case 2: motor_id = TURNTABLE_2_MOTOR_ID; break;
    2814:	26 e0       	ldi	r18, 0x06	; 6
    2816:	01 c0       	rjmp	.+2      	; 0x281a <_Z13StopTurntablej+0x1e>

void StopTurntable(uint16_t i)
{
	uint8_t motor_id;
	switch(i) {
		case 1: motor_id = TURNTABLE_1_MOTOR_ID; break;
    2818:	25 e0       	ldi	r18, 0x05	; 5
		case 2: motor_id = TURNTABLE_2_MOTOR_ID; break;
		default: return;
	}

	char data[] = { MOTOR_OFF };
    281a:	19 82       	std	Y+1, r1	; 0x01
	stepperWriteRegister(MOTOR_ENABLE_REG, data, sizeof(data) / sizeof(*data), motor_id, USARTE1);
    281c:	00 eb       	ldi	r16, 0xB0	; 176
    281e:	1a e0       	ldi	r17, 0x0A	; 10
    2820:	41 e0       	ldi	r20, 0x01	; 1
    2822:	be 01       	movw	r22, r28
    2824:	6f 5f       	subi	r22, 0xFF	; 255
    2826:	7f 4f       	sbci	r23, 0xFF	; 255
    2828:	8c e4       	ldi	r24, 0x4C	; 76
    282a:	0e 94 bf 12 	call	0x257e	; 0x257e <_Z20stepperWriteRegisterhPKchhR12USART_struct>
}
    282e:	0f 90       	pop	r0
    2830:	df 91       	pop	r29
    2832:	cf 91       	pop	r28
    2834:	1f 91       	pop	r17
    2836:	0f 91       	pop	r16
    2838:	08 95       	ret

0000283a <_Z13DemoTestBlockv>:


// Test Code om uit te zoeken hoe een motor gestart moet worden op adres 0x0A
void DemoTestBlock() {
    283a:	0f 93       	push	r16
    283c:	1f 93       	push	r17
    283e:	cf 93       	push	r28
    2840:	df 93       	push	r29
    2842:	cd b7       	in	r28, 0x3d	; 61
    2844:	de b7       	in	r29, 0x3e	; 62
    2846:	28 97       	sbiw	r28, 0x08	; 8
    2848:	cd bf       	out	0x3d, r28	; 61
    284a:	de bf       	out	0x3e, r29	; 62
	uint8_t motor_id = TEST_DEMO_MOTOR_ID; // Dit zou 0x0A moeten zijn
	int16_t speed = 1000;
	bool direction = 0;
	
	char speedData[2] = { (char)((speed >> 8) & 0xff), (char)(speed & 0xff) };
	char directiondata[] = { direction };
    284c:	19 82       	std	Y+1, r1	; 0x01
	stepperWriteRegister(DIRECTION_REG, directiondata, sizeof(directiondata) / sizeof(*directiondata), motor_id, USARTE1);
    284e:	00 eb       	ldi	r16, 0xB0	; 176
    2850:	1a e0       	ldi	r17, 0x0A	; 10
    2852:	2a e0       	ldi	r18, 0x0A	; 10
    2854:	41 e0       	ldi	r20, 0x01	; 1
    2856:	be 01       	movw	r22, r28
    2858:	6f 5f       	subi	r22, 0xFF	; 255
    285a:	7f 4f       	sbci	r23, 0xFF	; 255
    285c:	8a e4       	ldi	r24, 0x4A	; 74
    285e:	0e 94 bf 12 	call	0x257e	; 0x257e <_Z20stepperWriteRegisterhPKchhR12USART_struct>
	char data[] = { speedData[0], speedData[1],0xFF,0xFF,direction,MOTOR_STEP_FULL,MOTOR_ON };
    2862:	be 01       	movw	r22, r28
    2864:	6e 5f       	subi	r22, 0xFE	; 254
    2866:	7f 4f       	sbci	r23, 0xFF	; 255
    2868:	87 e0       	ldi	r24, 0x07	; 7
    286a:	fb 01       	movw	r30, r22
    286c:	11 92       	st	Z+, r1
    286e:	8a 95       	dec	r24
    2870:	e9 f7       	brne	.-6      	; 0x286c <_Z13DemoTestBlockv+0x32>
    2872:	8f ef       	ldi	r24, 0xFF	; 255
    2874:	8c 83       	std	Y+4, r24	; 0x04
    2876:	8d 83       	std	Y+5, r24	; 0x05
    2878:	81 e0       	ldi	r24, 0x01	; 1
    287a:	88 87       	std	Y+8, r24	; 0x08
    287c:	83 e0       	ldi	r24, 0x03	; 3
    287e:	8a 83       	std	Y+2, r24	; 0x02
    2880:	88 ee       	ldi	r24, 0xE8	; 232
    2882:	8b 83       	std	Y+3, r24	; 0x03
	stepperWriteRegister(STEPS_PS_HREG, data, sizeof(data) / sizeof(*data), motor_id, USARTE1);
    2884:	2a e0       	ldi	r18, 0x0A	; 10
    2886:	47 e0       	ldi	r20, 0x07	; 7
    2888:	86 e4       	ldi	r24, 0x46	; 70
    288a:	0e 94 bf 12 	call	0x257e	; 0x257e <_Z20stepperWriteRegisterhPKchhR12USART_struct>
}
    288e:	28 96       	adiw	r28, 0x08	; 8
    2890:	cd bf       	out	0x3d, r28	; 61
    2892:	de bf       	out	0x3e, r29	; 62
    2894:	df 91       	pop	r29
    2896:	cf 91       	pop	r28
    2898:	1f 91       	pop	r17
    289a:	0f 91       	pop	r16
    289c:	08 95       	ret

0000289e <_Z17StopDemoTestBlockv>:


// Test code om de motor op TEST_DEMO_MOTOR_ID weer te stoppen
void StopDemoTestBlock() {
    289e:	0f 93       	push	r16
    28a0:	1f 93       	push	r17
    28a2:	cf 93       	push	r28
    28a4:	df 93       	push	r29
    28a6:	1f 92       	push	r1
    28a8:	cd b7       	in	r28, 0x3d	; 61
    28aa:	de b7       	in	r29, 0x3e	; 62
	uint8_t motor_id = TEST_DEMO_MOTOR_ID;
	char data[] = { MOTOR_OFF };
    28ac:	19 82       	std	Y+1, r1	; 0x01
	stepperWriteRegister(MOTOR_ENABLE_REG, data, sizeof(data) / sizeof(*data), motor_id, USARTE1);
    28ae:	00 eb       	ldi	r16, 0xB0	; 176
    28b0:	1a e0       	ldi	r17, 0x0A	; 10
    28b2:	2a e0       	ldi	r18, 0x0A	; 10
    28b4:	41 e0       	ldi	r20, 0x01	; 1
    28b6:	be 01       	movw	r22, r28
    28b8:	6f 5f       	subi	r22, 0xFF	; 255
    28ba:	7f 4f       	sbci	r23, 0xFF	; 255
    28bc:	8c e4       	ldi	r24, 0x4C	; 76
    28be:	0e 94 bf 12 	call	0x257e	; 0x257e <_Z20stepperWriteRegisterhPKchhR12USART_struct>
}
    28c2:	0f 90       	pop	r0
    28c4:	df 91       	pop	r29
    28c6:	cf 91       	pop	r28
    28c8:	1f 91       	pop	r17
    28ca:	0f 91       	pop	r16
    28cc:	08 95       	ret

000028ce <_Z10SetAddresshh>:


// Change the address of a motor
void SetAddress(uint8_t from, uint8_t to) {
    28ce:	0f 93       	push	r16
    28d0:	1f 93       	push	r17
    28d2:	cf 93       	push	r28
    28d4:	df 93       	push	r29
    28d6:	1f 92       	push	r1
    28d8:	cd b7       	in	r28, 0x3d	; 61
    28da:	de b7       	in	r29, 0x3e	; 62
	uint16_t motor_id = from; // Old address
	char regdata = to; // New address
    28dc:	69 83       	std	Y+1, r22	; 0x01
	stepperWriteRegister(BUS_ADDRESS_REG, 
						 &regdata, 
						 1, // Size of message
						 motor_id, 
						 USARTE1
						 ); //Write new address to motor
    28de:	00 eb       	ldi	r16, 0xB0	; 176
    28e0:	1a e0       	ldi	r17, 0x0A	; 10
    28e2:	28 2f       	mov	r18, r24
    28e4:	41 e0       	ldi	r20, 0x01	; 1
    28e6:	be 01       	movw	r22, r28
    28e8:	6f 5f       	subi	r22, 0xFF	; 255
    28ea:	7f 4f       	sbci	r23, 0xFF	; 255
    28ec:	85 e0       	ldi	r24, 0x05	; 5
    28ee:	0e 94 bf 12 	call	0x257e	; 0x257e <_Z20stepperWriteRegisterhPKchhR12USART_struct>
    28f2:	0f 90       	pop	r0
    28f4:	df 91       	pop	r29
    28f6:	cf 91       	pop	r28
    28f8:	1f 91       	pop	r17
    28fa:	0f 91       	pop	r16
    28fc:	08 95       	ret

000028fe <_Z9set_relaybh>:


void set_relay(bool value, uint8_t relay)
{
//	DEBUG_OUT("Setting a relay!");
	switch (relay)
    28fe:	63 30       	cpi	r22, 0x03	; 3
    2900:	49 f1       	breq	.+82     	; 0x2954 <_Z9set_relaybh+0x56>
    2902:	28 f4       	brcc	.+10     	; 0x290e <_Z9set_relaybh+0x10>
    2904:	61 30       	cpi	r22, 0x01	; 1
    2906:	d1 f1       	breq	.+116    	; 0x297c <_Z9set_relaybh+0x7e>
    2908:	62 30       	cpi	r22, 0x02	; 2
    290a:	71 f1       	breq	.+92     	; 0x2968 <_Z9set_relaybh+0x6a>
    290c:	08 95       	ret
    290e:	65 30       	cpi	r22, 0x05	; 5
    2910:	69 f0       	breq	.+26     	; 0x292c <_Z9set_relaybh+0x2e>
    2912:	b0 f0       	brcs	.+44     	; 0x2940 <_Z9set_relaybh+0x42>
    2914:	66 30       	cpi	r22, 0x06	; 6
    2916:	d9 f5       	brne	.+118    	; 0x298e <_Z9set_relaybh+0x90>
	{	
		//Use conditional operator to check for SET or CLR for relay:
		//IMPORTANT: In the ULN2803, signal traces get inverted (Relay0 on Atmega pin label is Relay output marked K6, see schematic sheet 5: "Relays_Optocoupers")
		case 6: value ? RELAY0_OUTSET = RELAY0_bm : RELAY0_OUTCLR = RELAY0_bm; break;
    2918:	88 23       	and	r24, r24
    291a:	21 f0       	breq	.+8      	; 0x2924 <_Z9set_relaybh+0x26>
    291c:	82 e0       	ldi	r24, 0x02	; 2
    291e:	80 93 e5 07 	sts	0x07E5, r24	; 0x8007e5 <__TEXT_REGION_LENGTH__+0x7007e5>
    2922:	08 95       	ret
    2924:	82 e0       	ldi	r24, 0x02	; 2
    2926:	80 93 e6 07 	sts	0x07E6, r24	; 0x8007e6 <__TEXT_REGION_LENGTH__+0x7007e6>
    292a:	08 95       	ret
		case 5: value ? RELAY1_OUTSET = RELAY1_bm : RELAY1_OUTCLR = RELAY1_bm; break;
    292c:	88 23       	and	r24, r24
    292e:	21 f0       	breq	.+8      	; 0x2938 <_Z9set_relaybh+0x3a>
    2930:	81 e0       	ldi	r24, 0x01	; 1
    2932:	80 93 e5 07 	sts	0x07E5, r24	; 0x8007e5 <__TEXT_REGION_LENGTH__+0x7007e5>
    2936:	08 95       	ret
    2938:	81 e0       	ldi	r24, 0x01	; 1
    293a:	80 93 e6 07 	sts	0x07E6, r24	; 0x8007e6 <__TEXT_REGION_LENGTH__+0x7007e6>
    293e:	08 95       	ret
		case 4: value ? RELAY2_OUTSET = RELAY2_bm : RELAY2_OUTCLR = RELAY2_bm; break;
    2940:	88 23       	and	r24, r24
    2942:	21 f0       	breq	.+8      	; 0x294c <_Z9set_relaybh+0x4e>
    2944:	88 e0       	ldi	r24, 0x08	; 8
    2946:	80 93 c5 07 	sts	0x07C5, r24	; 0x8007c5 <__TEXT_REGION_LENGTH__+0x7007c5>
    294a:	08 95       	ret
    294c:	88 e0       	ldi	r24, 0x08	; 8
    294e:	80 93 c6 07 	sts	0x07C6, r24	; 0x8007c6 <__TEXT_REGION_LENGTH__+0x7007c6>
    2952:	08 95       	ret
		case 3: value ? RELAY3_OUTSET = RELAY3_bm : RELAY3_OUTCLR = RELAY3_bm; break;
    2954:	88 23       	and	r24, r24
    2956:	21 f0       	breq	.+8      	; 0x2960 <_Z9set_relaybh+0x62>
    2958:	84 e0       	ldi	r24, 0x04	; 4
    295a:	80 93 c5 07 	sts	0x07C5, r24	; 0x8007c5 <__TEXT_REGION_LENGTH__+0x7007c5>
    295e:	08 95       	ret
    2960:	84 e0       	ldi	r24, 0x04	; 4
    2962:	80 93 c6 07 	sts	0x07C6, r24	; 0x8007c6 <__TEXT_REGION_LENGTH__+0x7007c6>
    2966:	08 95       	ret
		case 2: value ? RELAY4_OUTSET = RELAY4_bm : RELAY4_OUTCLR = RELAY4_bm; break;
    2968:	88 23       	and	r24, r24
    296a:	21 f0       	breq	.+8      	; 0x2974 <_Z9set_relaybh+0x76>
    296c:	82 e0       	ldi	r24, 0x02	; 2
    296e:	80 93 c5 07 	sts	0x07C5, r24	; 0x8007c5 <__TEXT_REGION_LENGTH__+0x7007c5>
    2972:	08 95       	ret
    2974:	82 e0       	ldi	r24, 0x02	; 2
    2976:	80 93 c6 07 	sts	0x07C6, r24	; 0x8007c6 <__TEXT_REGION_LENGTH__+0x7007c6>
    297a:	08 95       	ret
		case 1: value ? RELAY5_OUTSET = RELAY5_bm : RELAY5_OUTCLR = RELAY5_bm; break;
    297c:	88 23       	and	r24, r24
    297e:	21 f0       	breq	.+8      	; 0x2988 <_Z9set_relaybh+0x8a>
    2980:	81 e0       	ldi	r24, 0x01	; 1
    2982:	80 93 c5 07 	sts	0x07C5, r24	; 0x8007c5 <__TEXT_REGION_LENGTH__+0x7007c5>
    2986:	08 95       	ret
    2988:	81 e0       	ldi	r24, 0x01	; 1
    298a:	80 93 c6 07 	sts	0x07C6, r24	; 0x8007c6 <__TEXT_REGION_LENGTH__+0x7007c6>
    298e:	08 95       	ret

00002990 <_Z8Solenoidhb>:
#define SOLENOID_H_

#include "relays.h"

void Solenoid(uint8_t solenoid, bool InOut)
{
    2990:	98 2f       	mov	r25, r24
    2992:	86 2f       	mov	r24, r22
	set_relay(InOut,solenoid);
    2994:	69 2f       	mov	r22, r25
    2996:	0e 94 7f 14 	call	0x28fe	; 0x28fe <_Z9set_relaybh>
    299a:	08 95       	ret

0000299c <_Z9ToggleLEDv>:
	JMP(SelectColour),
	JMP(set_relay),
};


void ToggleLED() { PORTH_OUTTGL |= (1<<4)|(1<<5); }
    299c:	e7 ee       	ldi	r30, 0xE7	; 231
    299e:	f6 e0       	ldi	r31, 0x06	; 6
    29a0:	80 81       	ld	r24, Z
    29a2:	80 63       	ori	r24, 0x30	; 48
    29a4:	80 83       	st	Z, r24
    29a6:	08 95       	ret

000029a8 <_Z3LEDb>:
void LED(bool i) {
	if (i) {
    29a8:	88 23       	and	r24, r24
    29aa:	31 f0       	breq	.+12     	; 0x29b8 <_Z3LEDb+0x10>
		PORTH_OUTCLR |= (1<<4)|(1<<5);
    29ac:	e6 ee       	ldi	r30, 0xE6	; 230
    29ae:	f6 e0       	ldi	r31, 0x06	; 6
    29b0:	80 81       	ld	r24, Z
    29b2:	80 63       	ori	r24, 0x30	; 48
    29b4:	80 83       	st	Z, r24
    29b6:	08 95       	ret
		} else {
		PORTH_OUTSET |= (1<<4)|(1<<5);
    29b8:	e5 ee       	ldi	r30, 0xE5	; 229
    29ba:	f6 e0       	ldi	r31, 0x06	; 6
    29bc:	80 81       	ld	r24, Z
    29be:	80 63       	ori	r24, 0x30	; 48
    29c0:	80 83       	st	Z, r24
    29c2:	08 95       	ret

000029c4 <_Z13PulseSolenoidh>:
}

void PulseSolenoid(uint8_t solenoid)
{
    29c4:	cf 93       	push	r28
    29c6:	c8 2f       	mov	r28, r24
	set_relay(1,solenoid);
    29c8:	68 2f       	mov	r22, r24
    29ca:	81 e0       	ldi	r24, 0x01	; 1
    29cc:	0e 94 7f 14 	call	0x28fe	; 0x28fe <_Z9set_relaybh>
    29d0:	2f ef       	ldi	r18, 0xFF	; 255
    29d2:	85 ea       	ldi	r24, 0xA5	; 165
    29d4:	9e e0       	ldi	r25, 0x0E	; 14
    29d6:	21 50       	subi	r18, 0x01	; 1
    29d8:	80 40       	sbci	r24, 0x00	; 0
    29da:	90 40       	sbci	r25, 0x00	; 0
    29dc:	e1 f7       	brne	.-8      	; 0x29d6 <_Z13PulseSolenoidh+0x12>
    29de:	00 c0       	rjmp	.+0      	; 0x29e0 <_Z13PulseSolenoidh+0x1c>
    29e0:	00 00       	nop
	_delay_ms(200);
	set_relay(0,solenoid);
    29e2:	6c 2f       	mov	r22, r28
    29e4:	80 e0       	ldi	r24, 0x00	; 0
    29e6:	0e 94 7f 14 	call	0x28fe	; 0x28fe <_Z9set_relaybh>
}
    29ea:	cf 91       	pop	r28
    29ec:	08 95       	ret

000029ee <_Z14requestStartedv>:
void ToggleLED2();
void passthrough_TWI();
bool DigitalRead(int16_t IO) { return IO_ReadWrite(true, IO); }
uint16_t AnalogRead(int16_t IO) { return (uint16_t)I_AnalogRead(ADCA, (uint8_t)IO); }
bool OptocouplerRead(int16_t IO) { return I_OptocouplerRead((uint8_t)IO); }
void requestStarted() { TWI_Write(TWIC, Started); }
    29ee:	60 91 bb 23 	lds	r22, 0x23BB	; 0x8023bb <Started>
    29f2:	80 e8       	ldi	r24, 0x80	; 128
    29f4:	94 e0       	ldi	r25, 0x04	; 4
    29f6:	0e 94 b9 07 	call	0xf72	; 0xf72 <_Z9TWI_WriteR10TWI_structh>
    29fa:	08 95       	ret

000029fc <_Z13requestResultv>:
void requestResult() { TWI_Write(TWIC, Result); }
    29fc:	60 91 ba 23 	lds	r22, 0x23BA	; 0x8023ba <Result>
    2a00:	80 e8       	ldi	r24, 0x80	; 128
    2a02:	94 e0       	ldi	r25, 0x04	; 4
    2a04:	0e 94 b9 07 	call	0xf72	; 0xf72 <_Z9TWI_WriteR10TWI_structh>
    2a08:	08 95       	ret

00002a0a <sysclk_enable_peripheral_clock>:
 *
 * \param module Pointer to the module's base address.
 */
static inline void sysclk_enable_peripheral_clock(const volatile void *module)
{
	if (module == NULL) {
    2a0a:	00 97       	sbiw	r24, 0x00	; 0
    2a0c:	09 f4       	brne	.+2      	; 0x2a10 <sysclk_enable_peripheral_clock+0x6>
    2a0e:	5c c1       	rjmp	.+696    	; 0x2cc8 <sysclk_enable_peripheral_clock+0x2be>
		Assert(false);
	}
#ifdef AES
	else if (module == &AES) {
    2a10:	80 3c       	cpi	r24, 0xC0	; 192
    2a12:	91 05       	cpc	r25, r1
    2a14:	29 f4       	brne	.+10     	; 0x2a20 <sysclk_enable_peripheral_clock+0x16>
		sysclk_enable_module(SYSCLK_PORT_GEN, SYSCLK_AES);
    2a16:	60 e1       	ldi	r22, 0x10	; 16
    2a18:	80 e0       	ldi	r24, 0x00	; 0
    2a1a:	0e 94 1e 2c 	call	0x583c	; 0x583c <sysclk_enable_module>
    2a1e:	08 95       	ret
	}
#endif
#ifdef EBI
	else if (module == &EBI) {
    2a20:	80 34       	cpi	r24, 0x40	; 64
    2a22:	24 e0       	ldi	r18, 0x04	; 4
    2a24:	92 07       	cpc	r25, r18
    2a26:	29 f4       	brne	.+10     	; 0x2a32 <sysclk_enable_peripheral_clock+0x28>
		sysclk_enable_module(SYSCLK_PORT_GEN, SYSCLK_EBI);
    2a28:	68 e0       	ldi	r22, 0x08	; 8
    2a2a:	80 e0       	ldi	r24, 0x00	; 0
    2a2c:	0e 94 1e 2c 	call	0x583c	; 0x583c <sysclk_enable_module>
    2a30:	08 95       	ret
	}
#endif
#ifdef RTC
	else if (module == &RTC) {
    2a32:	81 15       	cp	r24, r1
    2a34:	24 e0       	ldi	r18, 0x04	; 4
    2a36:	92 07       	cpc	r25, r18
    2a38:	29 f4       	brne	.+10     	; 0x2a44 <sysclk_enable_peripheral_clock+0x3a>
		sysclk_enable_module(SYSCLK_PORT_GEN, SYSCLK_RTC);
    2a3a:	64 e0       	ldi	r22, 0x04	; 4
    2a3c:	80 e0       	ldi	r24, 0x00	; 0
    2a3e:	0e 94 1e 2c 	call	0x583c	; 0x583c <sysclk_enable_module>
    2a42:	08 95       	ret
	}
#endif
#ifdef EVSYS
	else if (module == &EVSYS) {
    2a44:	80 38       	cpi	r24, 0x80	; 128
    2a46:	21 e0       	ldi	r18, 0x01	; 1
    2a48:	92 07       	cpc	r25, r18
    2a4a:	29 f4       	brne	.+10     	; 0x2a56 <sysclk_enable_peripheral_clock+0x4c>
		sysclk_enable_module(SYSCLK_PORT_GEN, SYSCLK_EVSYS);
    2a4c:	62 e0       	ldi	r22, 0x02	; 2
    2a4e:	80 e0       	ldi	r24, 0x00	; 0
    2a50:	0e 94 1e 2c 	call	0x583c	; 0x583c <sysclk_enable_module>
    2a54:	08 95       	ret
	}
#endif
#ifdef DMA
	else if (module == &DMA) {
    2a56:	81 15       	cp	r24, r1
    2a58:	21 e0       	ldi	r18, 0x01	; 1
    2a5a:	92 07       	cpc	r25, r18
    2a5c:	29 f4       	brne	.+10     	; 0x2a68 <sysclk_enable_peripheral_clock+0x5e>
		sysclk_enable_module(SYSCLK_PORT_GEN, SYSCLK_DMA);
    2a5e:	61 e0       	ldi	r22, 0x01	; 1
    2a60:	80 e0       	ldi	r24, 0x00	; 0
    2a62:	0e 94 1e 2c 	call	0x583c	; 0x583c <sysclk_enable_module>
    2a66:	08 95       	ret
	else if (module == &EDMA) {
		sysclk_enable_module(SYSCLK_PORT_GEN, SYSCLK_EDMA);
	}
#endif
#ifdef ACA
	else if (module == &ACA) {
    2a68:	80 38       	cpi	r24, 0x80	; 128
    2a6a:	23 e0       	ldi	r18, 0x03	; 3
    2a6c:	92 07       	cpc	r25, r18
    2a6e:	29 f4       	brne	.+10     	; 0x2a7a <sysclk_enable_peripheral_clock+0x70>
		sysclk_enable_module(SYSCLK_PORT_A, SYSCLK_AC);
    2a70:	61 e0       	ldi	r22, 0x01	; 1
    2a72:	81 e0       	ldi	r24, 0x01	; 1
    2a74:	0e 94 1e 2c 	call	0x583c	; 0x583c <sysclk_enable_module>
    2a78:	08 95       	ret
	}
#endif
#ifdef ACB
	else if (module == &ACB) {
    2a7a:	80 39       	cpi	r24, 0x90	; 144
    2a7c:	23 e0       	ldi	r18, 0x03	; 3
    2a7e:	92 07       	cpc	r25, r18
    2a80:	29 f4       	brne	.+10     	; 0x2a8c <sysclk_enable_peripheral_clock+0x82>
		sysclk_enable_module(SYSCLK_PORT_B, SYSCLK_AC);
    2a82:	61 e0       	ldi	r22, 0x01	; 1
    2a84:	82 e0       	ldi	r24, 0x02	; 2
    2a86:	0e 94 1e 2c 	call	0x583c	; 0x583c <sysclk_enable_module>
    2a8a:	08 95       	ret
	}
#endif
#ifdef ADCA
	else if (module == &ADCA) {
    2a8c:	81 15       	cp	r24, r1
    2a8e:	22 e0       	ldi	r18, 0x02	; 2
    2a90:	92 07       	cpc	r25, r18
    2a92:	29 f4       	brne	.+10     	; 0x2a9e <sysclk_enable_peripheral_clock+0x94>
		sysclk_enable_module(SYSCLK_PORT_A, SYSCLK_ADC);
    2a94:	62 e0       	ldi	r22, 0x02	; 2
    2a96:	81 e0       	ldi	r24, 0x01	; 1
    2a98:	0e 94 1e 2c 	call	0x583c	; 0x583c <sysclk_enable_module>
    2a9c:	08 95       	ret
	}
#endif
#ifdef ADCB
	else if (module == &ADCB) {
    2a9e:	80 34       	cpi	r24, 0x40	; 64
    2aa0:	22 e0       	ldi	r18, 0x02	; 2
    2aa2:	92 07       	cpc	r25, r18
    2aa4:	29 f4       	brne	.+10     	; 0x2ab0 <sysclk_enable_peripheral_clock+0xa6>
		sysclk_enable_module(SYSCLK_PORT_B, SYSCLK_ADC);
    2aa6:	62 e0       	ldi	r22, 0x02	; 2
    2aa8:	82 e0       	ldi	r24, 0x02	; 2
    2aaa:	0e 94 1e 2c 	call	0x583c	; 0x583c <sysclk_enable_module>
    2aae:	08 95       	ret
	}
#endif
#ifdef DACA
	else if (module == &DACA) {
    2ab0:	81 15       	cp	r24, r1
    2ab2:	23 e0       	ldi	r18, 0x03	; 3
    2ab4:	92 07       	cpc	r25, r18
    2ab6:	29 f4       	brne	.+10     	; 0x2ac2 <sysclk_enable_peripheral_clock+0xb8>
		sysclk_enable_module(SYSCLK_PORT_A, SYSCLK_DAC);
    2ab8:	64 e0       	ldi	r22, 0x04	; 4
    2aba:	81 e0       	ldi	r24, 0x01	; 1
    2abc:	0e 94 1e 2c 	call	0x583c	; 0x583c <sysclk_enable_module>
    2ac0:	08 95       	ret
	}
#endif
// Workaround for bad XMEGA D header file
#if !XMEGA_D
#ifdef DACB
	else if (module == &DACB) {
    2ac2:	80 32       	cpi	r24, 0x20	; 32
    2ac4:	23 e0       	ldi	r18, 0x03	; 3
    2ac6:	92 07       	cpc	r25, r18
    2ac8:	29 f4       	brne	.+10     	; 0x2ad4 <sysclk_enable_peripheral_clock+0xca>
		sysclk_enable_module(SYSCLK_PORT_B, SYSCLK_DAC);
    2aca:	64 e0       	ldi	r22, 0x04	; 4
    2acc:	82 e0       	ldi	r24, 0x02	; 2
    2ace:	0e 94 1e 2c 	call	0x583c	; 0x583c <sysclk_enable_module>
    2ad2:	08 95       	ret
	}
#endif
#endif // Workaround end
#ifdef TCC0
	else if (module == &TCC0) {
    2ad4:	81 15       	cp	r24, r1
    2ad6:	28 e0       	ldi	r18, 0x08	; 8
    2ad8:	92 07       	cpc	r25, r18
    2ada:	29 f4       	brne	.+10     	; 0x2ae6 <sysclk_enable_peripheral_clock+0xdc>
		sysclk_enable_module(SYSCLK_PORT_C, SYSCLK_TC0);
    2adc:	61 e0       	ldi	r22, 0x01	; 1
    2ade:	83 e0       	ldi	r24, 0x03	; 3
    2ae0:	0e 94 1e 2c 	call	0x583c	; 0x583c <sysclk_enable_module>
    2ae4:	08 95       	ret
	}
#endif
#ifdef TCD0
	else if (module == &TCD0) {
    2ae6:	81 15       	cp	r24, r1
    2ae8:	29 e0       	ldi	r18, 0x09	; 9
    2aea:	92 07       	cpc	r25, r18
    2aec:	29 f4       	brne	.+10     	; 0x2af8 <sysclk_enable_peripheral_clock+0xee>
		sysclk_enable_module(SYSCLK_PORT_D, SYSCLK_TC0);
    2aee:	61 e0       	ldi	r22, 0x01	; 1
    2af0:	84 e0       	ldi	r24, 0x04	; 4
    2af2:	0e 94 1e 2c 	call	0x583c	; 0x583c <sysclk_enable_module>
    2af6:	08 95       	ret
	}
#endif
#ifdef TCE0
	else if (module == &TCE0) {
    2af8:	81 15       	cp	r24, r1
    2afa:	2a e0       	ldi	r18, 0x0A	; 10
    2afc:	92 07       	cpc	r25, r18
    2afe:	29 f4       	brne	.+10     	; 0x2b0a <sysclk_enable_peripheral_clock+0x100>
		sysclk_enable_module(SYSCLK_PORT_E, SYSCLK_TC0);
    2b00:	61 e0       	ldi	r22, 0x01	; 1
    2b02:	85 e0       	ldi	r24, 0x05	; 5
    2b04:	0e 94 1e 2c 	call	0x583c	; 0x583c <sysclk_enable_module>
    2b08:	08 95       	ret
	}
#endif
#ifdef TCF0
	else if (module == &TCF0) {
    2b0a:	81 15       	cp	r24, r1
    2b0c:	2b e0       	ldi	r18, 0x0B	; 11
    2b0e:	92 07       	cpc	r25, r18
    2b10:	29 f4       	brne	.+10     	; 0x2b1c <sysclk_enable_peripheral_clock+0x112>
		sysclk_enable_module(SYSCLK_PORT_F, SYSCLK_TC0);
    2b12:	61 e0       	ldi	r22, 0x01	; 1
    2b14:	86 e0       	ldi	r24, 0x06	; 6
    2b16:	0e 94 1e 2c 	call	0x583c	; 0x583c <sysclk_enable_module>
    2b1a:	08 95       	ret
	}
#endif
#ifdef TCC1
	else if (module == &TCC1) {
    2b1c:	80 34       	cpi	r24, 0x40	; 64
    2b1e:	28 e0       	ldi	r18, 0x08	; 8
    2b20:	92 07       	cpc	r25, r18
    2b22:	29 f4       	brne	.+10     	; 0x2b2e <sysclk_enable_peripheral_clock+0x124>
		sysclk_enable_module(SYSCLK_PORT_C, SYSCLK_TC1);
    2b24:	62 e0       	ldi	r22, 0x02	; 2
    2b26:	83 e0       	ldi	r24, 0x03	; 3
    2b28:	0e 94 1e 2c 	call	0x583c	; 0x583c <sysclk_enable_module>
    2b2c:	08 95       	ret
	}
#endif
#ifdef TCD1
	else if (module == &TCD1) {
    2b2e:	80 34       	cpi	r24, 0x40	; 64
    2b30:	29 e0       	ldi	r18, 0x09	; 9
    2b32:	92 07       	cpc	r25, r18
    2b34:	29 f4       	brne	.+10     	; 0x2b40 <sysclk_enable_peripheral_clock+0x136>
		sysclk_enable_module(SYSCLK_PORT_D, SYSCLK_TC1);
    2b36:	62 e0       	ldi	r22, 0x02	; 2
    2b38:	84 e0       	ldi	r24, 0x04	; 4
    2b3a:	0e 94 1e 2c 	call	0x583c	; 0x583c <sysclk_enable_module>
    2b3e:	08 95       	ret
	}
#endif
#ifdef TCE1
	else if (module == &TCE1) {
    2b40:	80 34       	cpi	r24, 0x40	; 64
    2b42:	2a e0       	ldi	r18, 0x0A	; 10
    2b44:	92 07       	cpc	r25, r18
    2b46:	29 f4       	brne	.+10     	; 0x2b52 <sysclk_enable_peripheral_clock+0x148>
		sysclk_enable_module(SYSCLK_PORT_E, SYSCLK_TC1);
    2b48:	62 e0       	ldi	r22, 0x02	; 2
    2b4a:	85 e0       	ldi	r24, 0x05	; 5
    2b4c:	0e 94 1e 2c 	call	0x583c	; 0x583c <sysclk_enable_module>
    2b50:	08 95       	ret
	}
#endif
#ifdef TCF1
	else if (module == &TCF1) {
    2b52:	80 34       	cpi	r24, 0x40	; 64
    2b54:	2b e0       	ldi	r18, 0x0B	; 11
    2b56:	92 07       	cpc	r25, r18
    2b58:	29 f4       	brne	.+10     	; 0x2b64 <sysclk_enable_peripheral_clock+0x15a>
		sysclk_enable_module(SYSCLK_PORT_F, SYSCLK_TC1);
    2b5a:	62 e0       	ldi	r22, 0x02	; 2
    2b5c:	86 e0       	ldi	r24, 0x06	; 6
    2b5e:	0e 94 1e 2c 	call	0x583c	; 0x583c <sysclk_enable_module>
    2b62:	08 95       	ret
	else if (module == &TCD5) {
		sysclk_enable_module(SYSCLK_PORT_D, SYSCLK_TC5);
	}
#endif
#ifdef HIRESC
	else if (module == &HIRESC) {
    2b64:	80 39       	cpi	r24, 0x90	; 144
    2b66:	28 e0       	ldi	r18, 0x08	; 8
    2b68:	92 07       	cpc	r25, r18
    2b6a:	29 f4       	brne	.+10     	; 0x2b76 <sysclk_enable_peripheral_clock+0x16c>
			sysclk_enable_module(SYSCLK_PORT_C, SYSCLK_HIRES);
    2b6c:	64 e0       	ldi	r22, 0x04	; 4
    2b6e:	83 e0       	ldi	r24, 0x03	; 3
    2b70:	0e 94 1e 2c 	call	0x583c	; 0x583c <sysclk_enable_module>
    2b74:	08 95       	ret
	}
#endif
#ifdef HIRESD
	else if (module == &HIRESD) {
    2b76:	80 39       	cpi	r24, 0x90	; 144
    2b78:	29 e0       	ldi	r18, 0x09	; 9
    2b7a:	92 07       	cpc	r25, r18
    2b7c:	29 f4       	brne	.+10     	; 0x2b88 <sysclk_enable_peripheral_clock+0x17e>
		sysclk_enable_module(SYSCLK_PORT_D, SYSCLK_HIRES);
    2b7e:	64 e0       	ldi	r22, 0x04	; 4
    2b80:	84 e0       	ldi	r24, 0x04	; 4
    2b82:	0e 94 1e 2c 	call	0x583c	; 0x583c <sysclk_enable_module>
    2b86:	08 95       	ret
	}
#endif
#ifdef HIRESE
	else if (module == &HIRESE) {
    2b88:	80 39       	cpi	r24, 0x90	; 144
    2b8a:	2a e0       	ldi	r18, 0x0A	; 10
    2b8c:	92 07       	cpc	r25, r18
    2b8e:	29 f4       	brne	.+10     	; 0x2b9a <sysclk_enable_peripheral_clock+0x190>
		sysclk_enable_module(SYSCLK_PORT_E, SYSCLK_HIRES);
    2b90:	64 e0       	ldi	r22, 0x04	; 4
    2b92:	85 e0       	ldi	r24, 0x05	; 5
    2b94:	0e 94 1e 2c 	call	0x583c	; 0x583c <sysclk_enable_module>
    2b98:	08 95       	ret
	}
#endif
#ifdef HIRESF
	else if (module == &HIRESF) {
    2b9a:	80 39       	cpi	r24, 0x90	; 144
    2b9c:	2b e0       	ldi	r18, 0x0B	; 11
    2b9e:	92 07       	cpc	r25, r18
    2ba0:	29 f4       	brne	.+10     	; 0x2bac <sysclk_enable_peripheral_clock+0x1a2>
		sysclk_enable_module(SYSCLK_PORT_F, SYSCLK_HIRES);
    2ba2:	64 e0       	ldi	r22, 0x04	; 4
    2ba4:	86 e0       	ldi	r24, 0x06	; 6
    2ba6:	0e 94 1e 2c 	call	0x583c	; 0x583c <sysclk_enable_module>
    2baa:	08 95       	ret
	}
#endif
#ifdef SPIC
	else if (module == &SPIC) {
    2bac:	80 3c       	cpi	r24, 0xC0	; 192
    2bae:	28 e0       	ldi	r18, 0x08	; 8
    2bb0:	92 07       	cpc	r25, r18
    2bb2:	29 f4       	brne	.+10     	; 0x2bbe <sysclk_enable_peripheral_clock+0x1b4>
		sysclk_enable_module(SYSCLK_PORT_C, SYSCLK_SPI);
    2bb4:	68 e0       	ldi	r22, 0x08	; 8
    2bb6:	83 e0       	ldi	r24, 0x03	; 3
    2bb8:	0e 94 1e 2c 	call	0x583c	; 0x583c <sysclk_enable_module>
    2bbc:	08 95       	ret
	}
#endif
#ifdef SPID
	else if (module == &SPID) {
    2bbe:	80 3c       	cpi	r24, 0xC0	; 192
    2bc0:	29 e0       	ldi	r18, 0x09	; 9
    2bc2:	92 07       	cpc	r25, r18
    2bc4:	29 f4       	brne	.+10     	; 0x2bd0 <sysclk_enable_peripheral_clock+0x1c6>
		sysclk_enable_module(SYSCLK_PORT_D, SYSCLK_SPI);
    2bc6:	68 e0       	ldi	r22, 0x08	; 8
    2bc8:	84 e0       	ldi	r24, 0x04	; 4
    2bca:	0e 94 1e 2c 	call	0x583c	; 0x583c <sysclk_enable_module>
    2bce:	08 95       	ret
	}
#endif
#ifdef SPIE
	else if (module == &SPIE) {
    2bd0:	80 3c       	cpi	r24, 0xC0	; 192
    2bd2:	2a e0       	ldi	r18, 0x0A	; 10
    2bd4:	92 07       	cpc	r25, r18
    2bd6:	29 f4       	brne	.+10     	; 0x2be2 <sysclk_enable_peripheral_clock+0x1d8>
		sysclk_enable_module(SYSCLK_PORT_E, SYSCLK_SPI);
    2bd8:	68 e0       	ldi	r22, 0x08	; 8
    2bda:	85 e0       	ldi	r24, 0x05	; 5
    2bdc:	0e 94 1e 2c 	call	0x583c	; 0x583c <sysclk_enable_module>
    2be0:	08 95       	ret
	}
#endif
#ifdef SPIF
	else if (module == &SPIF) {
    2be2:	80 3c       	cpi	r24, 0xC0	; 192
    2be4:	2b e0       	ldi	r18, 0x0B	; 11
    2be6:	92 07       	cpc	r25, r18
    2be8:	29 f4       	brne	.+10     	; 0x2bf4 <sysclk_enable_peripheral_clock+0x1ea>
		sysclk_enable_module(SYSCLK_PORT_F, SYSCLK_SPI);
    2bea:	68 e0       	ldi	r22, 0x08	; 8
    2bec:	86 e0       	ldi	r24, 0x06	; 6
    2bee:	0e 94 1e 2c 	call	0x583c	; 0x583c <sysclk_enable_module>
    2bf2:	08 95       	ret
	}
#endif
#ifdef USARTC0
	else if (module == &USARTC0) {
    2bf4:	80 3a       	cpi	r24, 0xA0	; 160
    2bf6:	28 e0       	ldi	r18, 0x08	; 8
    2bf8:	92 07       	cpc	r25, r18
    2bfa:	29 f4       	brne	.+10     	; 0x2c06 <sysclk_enable_peripheral_clock+0x1fc>
		sysclk_enable_module(SYSCLK_PORT_C, SYSCLK_USART0);
    2bfc:	60 e1       	ldi	r22, 0x10	; 16
    2bfe:	83 e0       	ldi	r24, 0x03	; 3
    2c00:	0e 94 1e 2c 	call	0x583c	; 0x583c <sysclk_enable_module>
    2c04:	08 95       	ret
	}
#endif
#ifdef USARTD0
	else if (module == &USARTD0) {
    2c06:	80 3a       	cpi	r24, 0xA0	; 160
    2c08:	29 e0       	ldi	r18, 0x09	; 9
    2c0a:	92 07       	cpc	r25, r18
    2c0c:	29 f4       	brne	.+10     	; 0x2c18 <sysclk_enable_peripheral_clock+0x20e>
		sysclk_enable_module(SYSCLK_PORT_D, SYSCLK_USART0);
    2c0e:	60 e1       	ldi	r22, 0x10	; 16
    2c10:	84 e0       	ldi	r24, 0x04	; 4
    2c12:	0e 94 1e 2c 	call	0x583c	; 0x583c <sysclk_enable_module>
    2c16:	08 95       	ret
	}
#endif
#ifdef USARTE0
	else if (module == &USARTE0) {
    2c18:	80 3a       	cpi	r24, 0xA0	; 160
    2c1a:	2a e0       	ldi	r18, 0x0A	; 10
    2c1c:	92 07       	cpc	r25, r18
    2c1e:	29 f4       	brne	.+10     	; 0x2c2a <sysclk_enable_peripheral_clock+0x220>
		sysclk_enable_module(SYSCLK_PORT_E, SYSCLK_USART0);
    2c20:	60 e1       	ldi	r22, 0x10	; 16
    2c22:	85 e0       	ldi	r24, 0x05	; 5
    2c24:	0e 94 1e 2c 	call	0x583c	; 0x583c <sysclk_enable_module>
    2c28:	08 95       	ret
	}
#endif
#ifdef USARTF0
	else if (module == &USARTF0) {
    2c2a:	80 3a       	cpi	r24, 0xA0	; 160
    2c2c:	2b e0       	ldi	r18, 0x0B	; 11
    2c2e:	92 07       	cpc	r25, r18
    2c30:	29 f4       	brne	.+10     	; 0x2c3c <sysclk_enable_peripheral_clock+0x232>
		sysclk_enable_module(SYSCLK_PORT_F, SYSCLK_USART0);
    2c32:	60 e1       	ldi	r22, 0x10	; 16
    2c34:	86 e0       	ldi	r24, 0x06	; 6
    2c36:	0e 94 1e 2c 	call	0x583c	; 0x583c <sysclk_enable_module>
    2c3a:	08 95       	ret
	}
#endif
#ifdef USARTC1
	else if (module == &USARTC1) {
    2c3c:	80 3b       	cpi	r24, 0xB0	; 176
    2c3e:	28 e0       	ldi	r18, 0x08	; 8
    2c40:	92 07       	cpc	r25, r18
    2c42:	29 f4       	brne	.+10     	; 0x2c4e <sysclk_enable_peripheral_clock+0x244>
		sysclk_enable_module(SYSCLK_PORT_C, SYSCLK_USART1);
    2c44:	60 e2       	ldi	r22, 0x20	; 32
    2c46:	83 e0       	ldi	r24, 0x03	; 3
    2c48:	0e 94 1e 2c 	call	0x583c	; 0x583c <sysclk_enable_module>
    2c4c:	08 95       	ret
	}
#endif
#ifdef USARTD1
	else if (module == &USARTD1) {
    2c4e:	80 3b       	cpi	r24, 0xB0	; 176
    2c50:	29 e0       	ldi	r18, 0x09	; 9
    2c52:	92 07       	cpc	r25, r18
    2c54:	29 f4       	brne	.+10     	; 0x2c60 <sysclk_enable_peripheral_clock+0x256>
		sysclk_enable_module(SYSCLK_PORT_D, SYSCLK_USART1);
    2c56:	60 e2       	ldi	r22, 0x20	; 32
    2c58:	84 e0       	ldi	r24, 0x04	; 4
    2c5a:	0e 94 1e 2c 	call	0x583c	; 0x583c <sysclk_enable_module>
    2c5e:	08 95       	ret
	}
#endif
#ifdef USARTE1
	else if (module == &USARTE1) {
    2c60:	80 3b       	cpi	r24, 0xB0	; 176
    2c62:	2a e0       	ldi	r18, 0x0A	; 10
    2c64:	92 07       	cpc	r25, r18
    2c66:	29 f4       	brne	.+10     	; 0x2c72 <sysclk_enable_peripheral_clock+0x268>
		sysclk_enable_module(SYSCLK_PORT_E, SYSCLK_USART1);
    2c68:	60 e2       	ldi	r22, 0x20	; 32
    2c6a:	85 e0       	ldi	r24, 0x05	; 5
    2c6c:	0e 94 1e 2c 	call	0x583c	; 0x583c <sysclk_enable_module>
    2c70:	08 95       	ret
	}
#endif
#ifdef USARTF1
	else if (module == &USARTF1) {
    2c72:	80 3b       	cpi	r24, 0xB0	; 176
    2c74:	2b e0       	ldi	r18, 0x0B	; 11
    2c76:	92 07       	cpc	r25, r18
    2c78:	29 f4       	brne	.+10     	; 0x2c84 <sysclk_enable_peripheral_clock+0x27a>
		sysclk_enable_module(SYSCLK_PORT_F, SYSCLK_USART1);
    2c7a:	60 e2       	ldi	r22, 0x20	; 32
    2c7c:	86 e0       	ldi	r24, 0x06	; 6
    2c7e:	0e 94 1e 2c 	call	0x583c	; 0x583c <sysclk_enable_module>
    2c82:	08 95       	ret
	}
#endif
#ifdef TWIC
	else if (module == &TWIC) {
    2c84:	80 38       	cpi	r24, 0x80	; 128
    2c86:	24 e0       	ldi	r18, 0x04	; 4
    2c88:	92 07       	cpc	r25, r18
    2c8a:	29 f4       	brne	.+10     	; 0x2c96 <sysclk_enable_peripheral_clock+0x28c>
		sysclk_enable_module(SYSCLK_PORT_C, SYSCLK_TWI);
    2c8c:	60 e4       	ldi	r22, 0x40	; 64
    2c8e:	83 e0       	ldi	r24, 0x03	; 3
    2c90:	0e 94 1e 2c 	call	0x583c	; 0x583c <sysclk_enable_module>
    2c94:	08 95       	ret
	}
#endif
#ifdef TWID
	else if (module == &TWID) {
    2c96:	80 39       	cpi	r24, 0x90	; 144
    2c98:	24 e0       	ldi	r18, 0x04	; 4
    2c9a:	92 07       	cpc	r25, r18
    2c9c:	29 f4       	brne	.+10     	; 0x2ca8 <sysclk_enable_peripheral_clock+0x29e>
		sysclk_enable_module(SYSCLK_PORT_D, SYSCLK_TWI);
    2c9e:	60 e4       	ldi	r22, 0x40	; 64
    2ca0:	84 e0       	ldi	r24, 0x04	; 4
    2ca2:	0e 94 1e 2c 	call	0x583c	; 0x583c <sysclk_enable_module>
    2ca6:	08 95       	ret
	}
#endif
#ifdef TWIE
	else if (module == &TWIE) {
    2ca8:	80 3a       	cpi	r24, 0xA0	; 160
    2caa:	24 e0       	ldi	r18, 0x04	; 4
    2cac:	92 07       	cpc	r25, r18
    2cae:	29 f4       	brne	.+10     	; 0x2cba <sysclk_enable_peripheral_clock+0x2b0>
		sysclk_enable_module(SYSCLK_PORT_E, SYSCLK_TWI);
    2cb0:	60 e4       	ldi	r22, 0x40	; 64
    2cb2:	85 e0       	ldi	r24, 0x05	; 5
    2cb4:	0e 94 1e 2c 	call	0x583c	; 0x583c <sysclk_enable_module>
    2cb8:	08 95       	ret
	}
#endif
#ifdef TWIF
	else if (module == &TWIF) {
    2cba:	80 3b       	cpi	r24, 0xB0	; 176
    2cbc:	94 40       	sbci	r25, 0x04	; 4
    2cbe:	21 f4       	brne	.+8      	; 0x2cc8 <sysclk_enable_peripheral_clock+0x2be>
		sysclk_enable_module(SYSCLK_PORT_F, SYSCLK_TWI);
    2cc0:	60 e4       	ldi	r22, 0x40	; 64
    2cc2:	86 e0       	ldi	r24, 0x06	; 6
    2cc4:	0e 94 1e 2c 	call	0x583c	; 0x583c <sysclk_enable_module>
    2cc8:	08 95       	ret

00002cca <_Z12IO_ReadWritebh>:

#ifndef DIGITALIO_H_
#define DIGITALIO_H_

bool IO_ReadWrite(bool value, uint8_t io_port)
{
    2cca:	28 2f       	mov	r18, r24
	switch(io_port)
    2ccc:	86 2f       	mov	r24, r22
    2cce:	90 e0       	ldi	r25, 0x00	; 0
    2cd0:	fc 01       	movw	r30, r24
    2cd2:	31 97       	sbiw	r30, 0x01	; 1
    2cd4:	ec 30       	cpi	r30, 0x0C	; 12
    2cd6:	f1 05       	cpc	r31, r1
    2cd8:	08 f0       	brcs	.+2      	; 0x2cdc <_Z12IO_ReadWritebh+0x12>
    2cda:	b6 c0       	rjmp	.+364    	; 0x2e48 <_Z12IO_ReadWritebh+0x17e>
    2cdc:	88 27       	eor	r24, r24
    2cde:	e6 5f       	subi	r30, 0xF6	; 246
    2ce0:	fe 4f       	sbci	r31, 0xFE	; 254
    2ce2:	8f 4f       	sbci	r24, 0xFF	; 255
    2ce4:	0c 94 df 30 	jmp	0x61be	; 0x61be <__tablejump2__>
	{
		case 1:
		if (value == true)
    2ce8:	22 23       	and	r18, r18
    2cea:	21 f0       	breq	.+8      	; 0x2cf4 <_Z12IO_ReadWritebh+0x2a>
		{
			PORTK_OUTSET = (1<<PIN7_bp);
    2cec:	80 e8       	ldi	r24, 0x80	; 128
    2cee:	80 93 25 07 	sts	0x0725, r24	; 0x800725 <__TEXT_REGION_LENGTH__+0x700725>
    2cf2:	03 c0       	rjmp	.+6      	; 0x2cfa <_Z12IO_ReadWritebh+0x30>
		}
		else
		{
			PORTK_OUTCLR = (1<<PIN7_bp);
    2cf4:	80 e8       	ldi	r24, 0x80	; 128
    2cf6:	80 93 26 07 	sts	0x0726, r24	; 0x800726 <__TEXT_REGION_LENGTH__+0x700726>
		}
		return (PORTK_IN &(1<<PIN7_bp));
    2cfa:	80 91 28 07 	lds	r24, 0x0728	; 0x800728 <__TEXT_REGION_LENGTH__+0x700728>
    2cfe:	88 1f       	adc	r24, r24
    2d00:	88 27       	eor	r24, r24
    2d02:	88 1f       	adc	r24, r24
    2d04:	08 95       	ret
		break;
		
		case 2:
		if (value == true)
    2d06:	22 23       	and	r18, r18
    2d08:	21 f0       	breq	.+8      	; 0x2d12 <_Z12IO_ReadWritebh+0x48>
		{
			PORTK_OUTSET = (1<<PIN6_bp);
    2d0a:	80 e4       	ldi	r24, 0x40	; 64
    2d0c:	80 93 25 07 	sts	0x0725, r24	; 0x800725 <__TEXT_REGION_LENGTH__+0x700725>
    2d10:	03 c0       	rjmp	.+6      	; 0x2d18 <_Z12IO_ReadWritebh+0x4e>
		}
		else
		{
			PORTK_OUTCLR = (1<<PIN6_bp);
    2d12:	80 e4       	ldi	r24, 0x40	; 64
    2d14:	80 93 26 07 	sts	0x0726, r24	; 0x800726 <__TEXT_REGION_LENGTH__+0x700726>
		}
		return (PORTK_IN &(1<<PIN6_bp));
    2d18:	80 91 28 07 	lds	r24, 0x0728	; 0x800728 <__TEXT_REGION_LENGTH__+0x700728>
    2d1c:	86 fb       	bst	r24, 6
    2d1e:	88 27       	eor	r24, r24
    2d20:	80 f9       	bld	r24, 0
    2d22:	08 95       	ret
		break;
		
		case 3:
		if (value == true)
    2d24:	22 23       	and	r18, r18
    2d26:	21 f0       	breq	.+8      	; 0x2d30 <_Z12IO_ReadWritebh+0x66>
		{
			PORTK_OUTSET = (1<<PIN5_bp);
    2d28:	80 e2       	ldi	r24, 0x20	; 32
    2d2a:	80 93 25 07 	sts	0x0725, r24	; 0x800725 <__TEXT_REGION_LENGTH__+0x700725>
    2d2e:	03 c0       	rjmp	.+6      	; 0x2d36 <_Z12IO_ReadWritebh+0x6c>
		}
		else
		{
			PORTK_OUTCLR = (1<<PIN5_bp);
    2d30:	80 e2       	ldi	r24, 0x20	; 32
    2d32:	80 93 26 07 	sts	0x0726, r24	; 0x800726 <__TEXT_REGION_LENGTH__+0x700726>
		}
		return (PORTK_IN &(1<<PIN5_bp));
    2d36:	80 91 28 07 	lds	r24, 0x0728	; 0x800728 <__TEXT_REGION_LENGTH__+0x700728>
    2d3a:	85 fb       	bst	r24, 5
    2d3c:	88 27       	eor	r24, r24
    2d3e:	80 f9       	bld	r24, 0
    2d40:	08 95       	ret
		break;
		
		case 4: //Lift limit switches
		if (value == true)
    2d42:	22 23       	and	r18, r18
    2d44:	21 f0       	breq	.+8      	; 0x2d4e <_Z12IO_ReadWritebh+0x84>
		{
			PORTK_OUTSET = (1<<PIN4_bp);
    2d46:	80 e1       	ldi	r24, 0x10	; 16
    2d48:	80 93 25 07 	sts	0x0725, r24	; 0x800725 <__TEXT_REGION_LENGTH__+0x700725>
    2d4c:	03 c0       	rjmp	.+6      	; 0x2d54 <_Z12IO_ReadWritebh+0x8a>
		}
		else
		{
			PORTK_OUTCLR = (1<<PIN4_bp);
    2d4e:	80 e1       	ldi	r24, 0x10	; 16
    2d50:	80 93 26 07 	sts	0x0726, r24	; 0x800726 <__TEXT_REGION_LENGTH__+0x700726>
		}
		return (PORTK_IN &(1<<PIN4_bp));
    2d54:	80 91 28 07 	lds	r24, 0x0728	; 0x800728 <__TEXT_REGION_LENGTH__+0x700728>
    2d58:	82 95       	swap	r24
    2d5a:	81 70       	andi	r24, 0x01	; 1
    2d5c:	08 95       	ret
		break;
		
		case 5:
		if (value == true)
    2d5e:	22 23       	and	r18, r18
    2d60:	21 f0       	breq	.+8      	; 0x2d6a <_Z12IO_ReadWritebh+0xa0>
		{
			PORTK_OUTSET = (1<<PIN3_bp);
    2d62:	88 e0       	ldi	r24, 0x08	; 8
    2d64:	80 93 25 07 	sts	0x0725, r24	; 0x800725 <__TEXT_REGION_LENGTH__+0x700725>
    2d68:	03 c0       	rjmp	.+6      	; 0x2d70 <_Z12IO_ReadWritebh+0xa6>
		}
		else
		{
			PORTK_OUTCLR = (1<<PIN3_bp);
    2d6a:	88 e0       	ldi	r24, 0x08	; 8
    2d6c:	80 93 26 07 	sts	0x0726, r24	; 0x800726 <__TEXT_REGION_LENGTH__+0x700726>
		}
		return (PORTK_IN &(1<<PIN3_bp));
    2d70:	80 91 28 07 	lds	r24, 0x0728	; 0x800728 <__TEXT_REGION_LENGTH__+0x700728>
    2d74:	83 fb       	bst	r24, 3
    2d76:	88 27       	eor	r24, r24
    2d78:	80 f9       	bld	r24, 0
    2d7a:	08 95       	ret
		break;
		
		case 6:
		if (value == true)
    2d7c:	22 23       	and	r18, r18
    2d7e:	21 f0       	breq	.+8      	; 0x2d88 <_Z12IO_ReadWritebh+0xbe>
		{
			PORTK_OUTSET = (1<<PIN2_bp);
    2d80:	84 e0       	ldi	r24, 0x04	; 4
    2d82:	80 93 25 07 	sts	0x0725, r24	; 0x800725 <__TEXT_REGION_LENGTH__+0x700725>
    2d86:	03 c0       	rjmp	.+6      	; 0x2d8e <_Z12IO_ReadWritebh+0xc4>
		}
		else
		{
			PORTK_OUTCLR = (1<<PIN2_bp);
    2d88:	84 e0       	ldi	r24, 0x04	; 4
    2d8a:	80 93 26 07 	sts	0x0726, r24	; 0x800726 <__TEXT_REGION_LENGTH__+0x700726>
		}
		return (PORTK_IN &(1<<PIN2_bp));
    2d8e:	80 91 28 07 	lds	r24, 0x0728	; 0x800728 <__TEXT_REGION_LENGTH__+0x700728>
    2d92:	82 fb       	bst	r24, 2
    2d94:	88 27       	eor	r24, r24
    2d96:	80 f9       	bld	r24, 0
    2d98:	08 95       	ret
		break;
		
		case 7:
		if (value == true)
    2d9a:	22 23       	and	r18, r18
    2d9c:	21 f0       	breq	.+8      	; 0x2da6 <_Z12IO_ReadWritebh+0xdc>
		{
			PORTK_OUTSET = (1<<PIN1_bp);
    2d9e:	82 e0       	ldi	r24, 0x02	; 2
    2da0:	80 93 25 07 	sts	0x0725, r24	; 0x800725 <__TEXT_REGION_LENGTH__+0x700725>
    2da4:	03 c0       	rjmp	.+6      	; 0x2dac <_Z12IO_ReadWritebh+0xe2>
		}
		else
		{
			PORTK_OUTCLR = (1<<PIN1_bp);
    2da6:	82 e0       	ldi	r24, 0x02	; 2
    2da8:	80 93 26 07 	sts	0x0726, r24	; 0x800726 <__TEXT_REGION_LENGTH__+0x700726>
		}
		return (PORTK_IN &(1<<PIN1_bp));
    2dac:	80 91 28 07 	lds	r24, 0x0728	; 0x800728 <__TEXT_REGION_LENGTH__+0x700728>
    2db0:	86 95       	lsr	r24
    2db2:	81 70       	andi	r24, 0x01	; 1
    2db4:	08 95       	ret
		break;
		
		case 8:
		if (value == true)
    2db6:	22 23       	and	r18, r18
    2db8:	21 f0       	breq	.+8      	; 0x2dc2 <_Z12IO_ReadWritebh+0xf8>
		{
			PORTK_OUTSET = (1<<PIN0_bp);
    2dba:	81 e0       	ldi	r24, 0x01	; 1
    2dbc:	80 93 25 07 	sts	0x0725, r24	; 0x800725 <__TEXT_REGION_LENGTH__+0x700725>
    2dc0:	03 c0       	rjmp	.+6      	; 0x2dc8 <_Z12IO_ReadWritebh+0xfe>
		}
		else
		{
			PORTK_OUTCLR = (1<<PIN0_bp);
    2dc2:	81 e0       	ldi	r24, 0x01	; 1
    2dc4:	80 93 26 07 	sts	0x0726, r24	; 0x800726 <__TEXT_REGION_LENGTH__+0x700726>
		}
		return (PORTK_IN &(1<<PIN0_bp));
    2dc8:	80 91 28 07 	lds	r24, 0x0728	; 0x800728 <__TEXT_REGION_LENGTH__+0x700728>
    2dcc:	81 70       	andi	r24, 0x01	; 1
    2dce:	08 95       	ret
		break;
		
		case 9:
		if (value == true)
    2dd0:	22 23       	and	r18, r18
    2dd2:	21 f0       	breq	.+8      	; 0x2ddc <_Z12IO_ReadWritebh+0x112>
		{
			PORTJ_OUTSET = (1<<PIN7_bp);
    2dd4:	80 e8       	ldi	r24, 0x80	; 128
    2dd6:	80 93 05 07 	sts	0x0705, r24	; 0x800705 <__TEXT_REGION_LENGTH__+0x700705>
    2dda:	03 c0       	rjmp	.+6      	; 0x2de2 <_Z12IO_ReadWritebh+0x118>
		}
		else
		{
			PORTJ_OUTCLR = (1<<PIN7_bp);
    2ddc:	80 e8       	ldi	r24, 0x80	; 128
    2dde:	80 93 06 07 	sts	0x0706, r24	; 0x800706 <__TEXT_REGION_LENGTH__+0x700706>
		}
		return (PORTJ_IN &(1<<PIN7_bp));
    2de2:	80 91 08 07 	lds	r24, 0x0708	; 0x800708 <__TEXT_REGION_LENGTH__+0x700708>
    2de6:	88 1f       	adc	r24, r24
    2de8:	88 27       	eor	r24, r24
    2dea:	88 1f       	adc	r24, r24
    2dec:	08 95       	ret
		break;
		
		case 10:
		if (value == true)
    2dee:	22 23       	and	r18, r18
    2df0:	21 f0       	breq	.+8      	; 0x2dfa <_Z12IO_ReadWritebh+0x130>
		{
			PORTJ_OUTSET = (1<<PIN6_bp);
    2df2:	80 e4       	ldi	r24, 0x40	; 64
    2df4:	80 93 05 07 	sts	0x0705, r24	; 0x800705 <__TEXT_REGION_LENGTH__+0x700705>
    2df8:	03 c0       	rjmp	.+6      	; 0x2e00 <_Z12IO_ReadWritebh+0x136>
		}
		else
		{
			PORTJ_OUTCLR = (1<<PIN6_bp);
    2dfa:	80 e4       	ldi	r24, 0x40	; 64
    2dfc:	80 93 06 07 	sts	0x0706, r24	; 0x800706 <__TEXT_REGION_LENGTH__+0x700706>
		}
		return (PORTJ_IN &(1<<PIN6_bp));
    2e00:	80 91 08 07 	lds	r24, 0x0708	; 0x800708 <__TEXT_REGION_LENGTH__+0x700708>
    2e04:	86 fb       	bst	r24, 6
    2e06:	88 27       	eor	r24, r24
    2e08:	80 f9       	bld	r24, 0
    2e0a:	08 95       	ret
		break;
		
		case 11:
		if (value == true)
    2e0c:	22 23       	and	r18, r18
    2e0e:	21 f0       	breq	.+8      	; 0x2e18 <_Z12IO_ReadWritebh+0x14e>
		{
			PORTH_OUTSET = (1<<PIN7_bp);
    2e10:	80 e8       	ldi	r24, 0x80	; 128
    2e12:	80 93 e5 06 	sts	0x06E5, r24	; 0x8006e5 <__TEXT_REGION_LENGTH__+0x7006e5>
    2e16:	03 c0       	rjmp	.+6      	; 0x2e1e <_Z12IO_ReadWritebh+0x154>
		}
		else
		{
			PORTH_OUTCLR = (1<<PIN7_bp);
    2e18:	80 e8       	ldi	r24, 0x80	; 128
    2e1a:	80 93 e6 06 	sts	0x06E6, r24	; 0x8006e6 <__TEXT_REGION_LENGTH__+0x7006e6>
		}
		return (PORTH_IN &(1<<PIN7_bp));
    2e1e:	80 91 e8 06 	lds	r24, 0x06E8	; 0x8006e8 <__TEXT_REGION_LENGTH__+0x7006e8>
    2e22:	88 1f       	adc	r24, r24
    2e24:	88 27       	eor	r24, r24
    2e26:	88 1f       	adc	r24, r24
    2e28:	08 95       	ret
		break;
		
		case 12:
		if (value == true)
    2e2a:	22 23       	and	r18, r18
    2e2c:	21 f0       	breq	.+8      	; 0x2e36 <_Z12IO_ReadWritebh+0x16c>
		{
			PORTH_OUTSET = (1<<PIN6_bp);
    2e2e:	80 e4       	ldi	r24, 0x40	; 64
    2e30:	80 93 e5 06 	sts	0x06E5, r24	; 0x8006e5 <__TEXT_REGION_LENGTH__+0x7006e5>
    2e34:	03 c0       	rjmp	.+6      	; 0x2e3c <_Z12IO_ReadWritebh+0x172>
		}
		else
		{
			PORTH_OUTCLR = (1<<PIN6_bp);
    2e36:	80 e4       	ldi	r24, 0x40	; 64
    2e38:	80 93 e6 06 	sts	0x06E6, r24	; 0x8006e6 <__TEXT_REGION_LENGTH__+0x7006e6>
		}
		return (PORTH_IN &(1<<PIN6_bp));
    2e3c:	80 91 e8 06 	lds	r24, 0x06E8	; 0x8006e8 <__TEXT_REGION_LENGTH__+0x7006e8>
    2e40:	86 fb       	bst	r24, 6
    2e42:	88 27       	eor	r24, r24
    2e44:	80 f9       	bld	r24, 0
    2e46:	08 95       	ret
		break;
		
	}
	return 0;
    2e48:	80 e0       	ldi	r24, 0x00	; 0
}
    2e4a:	08 95       	ret

00002e4c <_Z11DigitalReadi>:
void ToggleLED();
void LED(bool i);
void ToggleLED1();
void ToggleLED2();
void passthrough_TWI();
bool DigitalRead(int16_t IO) { return IO_ReadWrite(true, IO); }
    2e4c:	68 2f       	mov	r22, r24
    2e4e:	81 e0       	ldi	r24, 0x01	; 1
    2e50:	0e 94 65 16 	call	0x2cca	; 0x2cca <_Z12IO_ReadWritebh>
    2e54:	08 95       	ret

00002e56 <_Z17ReadSignatureBytej>:

uint8_t I_AnalogRead(ADC_struct &ADC, uint8_t pin);

uint8_t ReadSignatureByte(uint16_t Address)
{
	NVM_CMD = NVM_CMD_READ_CALIB_ROW_gc;
    2e56:	aa ec       	ldi	r26, 0xCA	; 202
    2e58:	b1 e0       	ldi	r27, 0x01	; 1
    2e5a:	22 e0       	ldi	r18, 0x02	; 2
    2e5c:	2c 93       	st	X, r18
	uint8_t Result;
	__asm__ ("lpm %0, Z\n" : "=r" (Result) : "z" (Address));
    2e5e:	fc 01       	movw	r30, r24
    2e60:	84 91       	lpm	r24, Z
	NVM_CMD = NVM_CMD_NO_OPERATION_gc;
    2e62:	1c 92       	st	X, r1
	return Result;
}
    2e64:	08 95       	ret

00002e66 <_Z12I_AnalogReadR13ADC_CH_structh>:
	for (int i=0; i<2; i++) {
		I_AnalogRead(ADC, 1);
	}
}

uint8_t I_AnalogRead(ADC_CH_struct &CH, uint8_t pin) {
    2e66:	fc 01       	movw	r30, r24
	switch(pin)
    2e68:	63 30       	cpi	r22, 0x03	; 3
    2e6a:	89 f0       	breq	.+34     	; 0x2e8e <_Z12I_AnalogReadR13ADC_CH_structh+0x28>
    2e6c:	28 f4       	brcc	.+10     	; 0x2e78 <_Z12I_AnalogReadR13ADC_CH_structh+0x12>
    2e6e:	61 30       	cpi	r22, 0x01	; 1
    2e70:	41 f0       	breq	.+16     	; 0x2e82 <_Z12I_AnalogReadR13ADC_CH_structh+0x1c>
    2e72:	62 30       	cpi	r22, 0x02	; 2
    2e74:	49 f0       	breq	.+18     	; 0x2e88 <_Z12I_AnalogReadR13ADC_CH_structh+0x22>
    2e76:	1d c0       	rjmp	.+58     	; 0x2eb2 <_Z12I_AnalogReadR13ADC_CH_structh+0x4c>
    2e78:	64 30       	cpi	r22, 0x04	; 4
    2e7a:	61 f0       	breq	.+24     	; 0x2e94 <_Z12I_AnalogReadR13ADC_CH_structh+0x2e>
    2e7c:	65 30       	cpi	r22, 0x05	; 5
    2e7e:	69 f0       	breq	.+26     	; 0x2e9a <_Z12I_AnalogReadR13ADC_CH_structh+0x34>
    2e80:	18 c0       	rjmp	.+48     	; 0x2eb2 <_Z12I_AnalogReadR13ADC_CH_structh+0x4c>
	{
		//ADC_CH_MUXPOS_PIN0_gc is AREF pin (op 5v), pin lezen returned altijd >252
		case 1:
		CH.MUXCTRL = ADC_CH_MUXPOS_PIN1_gc; //select pin
    2e82:	88 e0       	ldi	r24, 0x08	; 8
    2e84:	81 83       	std	Z+1, r24	; 0x01
		break;
    2e86:	0b c0       	rjmp	.+22     	; 0x2e9e <_Z12I_AnalogReadR13ADC_CH_structh+0x38>
		
		case 2:
		CH.MUXCTRL = ADC_CH_MUXPOS_PIN2_gc; //select pin
    2e88:	80 e1       	ldi	r24, 0x10	; 16
    2e8a:	81 83       	std	Z+1, r24	; 0x01
		break;
    2e8c:	08 c0       	rjmp	.+16     	; 0x2e9e <_Z12I_AnalogReadR13ADC_CH_structh+0x38>
		
		case 3:
		CH.MUXCTRL = ADC_CH_MUXPOS_PIN3_gc; //select pin
    2e8e:	88 e1       	ldi	r24, 0x18	; 24
    2e90:	81 83       	std	Z+1, r24	; 0x01
		break;
    2e92:	05 c0       	rjmp	.+10     	; 0x2e9e <_Z12I_AnalogReadR13ADC_CH_structh+0x38>
		
		case 4:
		CH.MUXCTRL = ADC_CH_MUXPOS_PIN4_gc; //select pin
    2e94:	80 e2       	ldi	r24, 0x20	; 32
    2e96:	81 83       	std	Z+1, r24	; 0x01
		break;
    2e98:	02 c0       	rjmp	.+4      	; 0x2e9e <_Z12I_AnalogReadR13ADC_CH_structh+0x38>
		
		case 5:
		CH.MUXCTRL = ADC_CH_MUXPOS_PIN5_gc; //select pin
    2e9a:	88 e2       	ldi	r24, 0x28	; 40
    2e9c:	81 83       	std	Z+1, r24	; 0x01
		default:
		return 0;
		break;
	}
	
	CH.CTRL |= ADC_CH_START_bm; //start conversion channel
    2e9e:	80 81       	ld	r24, Z
    2ea0:	80 68       	ori	r24, 0x80	; 128
    2ea2:	80 83       	st	Z, r24
	while ((CH.INTFLAGS & ADC_CH0IF_bm) == 0); //wacht op interrupt bit
    2ea4:	93 81       	ldd	r25, Z+3	; 0x03
    2ea6:	90 ff       	sbrs	r25, 0
    2ea8:	fd cf       	rjmp	.-6      	; 0x2ea4 <_Z12I_AnalogReadR13ADC_CH_structh+0x3e>
	CH.INTFLAGS = ADC_CH0IF_bm; //clear interrupt flag by writing one to it
    2eaa:	81 e0       	ldi	r24, 0x01	; 1
    2eac:	83 83       	std	Z+3, r24	; 0x03
	return CH.RESL; //return lower byte result from channel (8 bit result)
    2eae:	84 81       	ldd	r24, Z+4	; 0x04
    2eb0:	08 95       	ret
		case 5:
		CH.MUXCTRL = ADC_CH_MUXPOS_PIN5_gc; //select pin
		break;
		
		default:
		return 0;
    2eb2:	80 e0       	ldi	r24, 0x00	; 0
	
	CH.CTRL |= ADC_CH_START_bm; //start conversion channel
	while ((CH.INTFLAGS & ADC_CH0IF_bm) == 0); //wacht op interrupt bit
	CH.INTFLAGS = ADC_CH0IF_bm; //clear interrupt flag by writing one to it
	return CH.RESL; //return lower byte result from channel (8 bit result)
}
    2eb4:	08 95       	ret

00002eb6 <_Z12I_AnalogReadR10ADC_structh>:

//defaults to ch0
uint8_t I_AnalogRead(ADC_struct &ADC, uint8_t pin) {
	return I_AnalogRead(ADC.CH0, pin);
    2eb6:	80 96       	adiw	r24, 0x20	; 32
    2eb8:	0e 94 33 17 	call	0x2e66	; 0x2e66 <_Z12I_AnalogReadR13ADC_CH_structh>
}
    2ebc:	08 95       	ret

00002ebe <_Z8ADC_InitR10ADC_struct>:
	__asm__ ("lpm %0, Z\n" : "=r" (Result) : "z" (Address));
	NVM_CMD = NVM_CMD_NO_OPERATION_gc;
	return Result;
}

void ADC_Init(ADC_struct &ADC) {
    2ebe:	0f 93       	push	r16
    2ec0:	1f 93       	push	r17
    2ec2:	cf 93       	push	r28
    2ec4:	df 93       	push	r29
    2ec6:	ec 01       	movw	r28, r24
	/* http://ww1.microchip.com/downloads/en/DeviceDoc/doc8077.pdf page 296 */

	//calibration data from signature row
	if (&ADC == &ADCA) {
    2ec8:	c1 15       	cp	r28, r1
    2eca:	82 e0       	ldi	r24, 0x02	; 2
    2ecc:	d8 07       	cpc	r29, r24
    2ece:	79 f4       	brne	.+30     	; 0x2eee <_Z8ADC_InitR10ADC_struct+0x30>
		ADC.CALL = ReadSignatureByte(PRODSIGNATURES_ADCACAL0); //effect onbekend maar staat in datasheet
    2ed0:	80 b5       	in	r24, 0x20	; 32
    2ed2:	90 e0       	ldi	r25, 0x00	; 0
    2ed4:	0e 94 2b 17 	call	0x2e56	; 0x2e56 <_Z17ReadSignatureBytej>
    2ed8:	00 e0       	ldi	r16, 0x00	; 0
    2eda:	12 e0       	ldi	r17, 0x02	; 2
    2edc:	f8 01       	movw	r30, r16
    2ede:	84 87       	std	Z+12, r24	; 0x0c
		ADC.CALH = ReadSignatureByte(PRODSIGNATURES_ADCACAL1);
    2ee0:	81 b5       	in	r24, 0x21	; 33
    2ee2:	90 e0       	ldi	r25, 0x00	; 0
    2ee4:	0e 94 2b 17 	call	0x2e56	; 0x2e56 <_Z17ReadSignatureBytej>
    2ee8:	f8 01       	movw	r30, r16
    2eea:	85 87       	std	Z+13, r24	; 0x0d
    2eec:	14 c0       	rjmp	.+40     	; 0x2f16 <_Z8ADC_InitR10ADC_struct+0x58>
	} else if (&ADC == &ADCB) {
    2eee:	c0 34       	cpi	r28, 0x40	; 64
    2ef0:	f2 e0       	ldi	r31, 0x02	; 2
    2ef2:	df 07       	cpc	r29, r31
    2ef4:	79 f4       	brne	.+30     	; 0x2f14 <_Z8ADC_InitR10ADC_struct+0x56>
		ADC.CALL = ReadSignatureByte(PRODSIGNATURES_ADCBCAL0);
    2ef6:	84 b5       	in	r24, 0x24	; 36
    2ef8:	90 e0       	ldi	r25, 0x00	; 0
    2efa:	0e 94 2b 17 	call	0x2e56	; 0x2e56 <_Z17ReadSignatureBytej>
    2efe:	00 e4       	ldi	r16, 0x40	; 64
    2f00:	12 e0       	ldi	r17, 0x02	; 2
    2f02:	f8 01       	movw	r30, r16
    2f04:	84 87       	std	Z+12, r24	; 0x0c
		ADC.CALH = ReadSignatureByte(PRODSIGNATURES_ADCBCAL1);
    2f06:	85 b5       	in	r24, 0x25	; 37
    2f08:	90 e0       	ldi	r25, 0x00	; 0
    2f0a:	0e 94 2b 17 	call	0x2e56	; 0x2e56 <_Z17ReadSignatureBytej>
    2f0e:	f8 01       	movw	r30, r16
    2f10:	85 87       	std	Z+13, r24	; 0x0d
    2f12:	01 c0       	rjmp	.+2      	; 0x2f16 <_Z8ADC_InitR10ADC_struct+0x58>
    2f14:	ff cf       	rjmp	.-2      	; 0x2f14 <_Z8ADC_InitR10ADC_struct+0x56>
		//geef error ofzo
		while(true){}
	}
	
	//cancel any pending conversions, disable ADC
	ADC.CTRLA = ADC_FLUSH_bm;
    2f16:	82 e0       	ldi	r24, 0x02	; 2
    2f18:	88 83       	st	Y, r24
	
	//external reference on PORT A (voltage dat op AREF pin wordt gezet, het te meten voltage mag hier niet boven komen)
	ADC.REFCTRL = ADC_REFSEL_AREFA_gc;
    2f1a:	80 e2       	ldi	r24, 0x20	; 32
    2f1c:	8a 83       	std	Y+2, r24	; 0x02
	
	//8-bit right-adjusted result
	ADC.CTRLB = (ADC_RESOLUTION_8BIT_gc | (1<<ADC_CONMODE_bm));
    2f1e:	84 e0       	ldi	r24, 0x04	; 4
    2f20:	89 83       	std	Y+1, r24	; 0x01
	
	//prescaler 128						// !willekeurig gekozen
	ADC.PRESCALER = ADC_PRESCALER_DIV64_gc;
    2f22:	8c 83       	std	Y+4, r24	; 0x04

	//enable ADC
	ADC.CTRLA |= ADC_ENABLE_bm;
    2f24:	88 81       	ld	r24, Y
    2f26:	81 60       	ori	r24, 0x01	; 1
    2f28:	88 83       	st	Y, r24
	
	//result at ch0
//	ADC.CTRLA |= (0x0<<2);

	//single ended input no gain
	ADC.CH0.CTRL = ADC_CH_INPUTMODE_SINGLEENDED_gc;
    2f2a:	81 e0       	ldi	r24, 0x01	; 1
    2f2c:	88 a3       	std	Y+32, r24	; 0x20

	//disable interrupts
	ADCA.CH0.INTCTRL = 0;
    2f2e:	10 92 22 02 	sts	0x0222, r1	; 0x800222 <__TEXT_REGION_LENGTH__+0x700222>
	
	//2 dummy reads
	for (int i=0; i<2; i++) {
		I_AnalogRead(ADC, 1);
    2f32:	61 e0       	ldi	r22, 0x01	; 1
    2f34:	ce 01       	movw	r24, r28
    2f36:	0e 94 5b 17 	call	0x2eb6	; 0x2eb6 <_Z12I_AnalogReadR10ADC_structh>
    2f3a:	61 e0       	ldi	r22, 0x01	; 1
    2f3c:	ce 01       	movw	r24, r28
    2f3e:	0e 94 5b 17 	call	0x2eb6	; 0x2eb6 <_Z12I_AnalogReadR10ADC_structh>
	}
}
    2f42:	df 91       	pop	r29
    2f44:	cf 91       	pop	r28
    2f46:	1f 91       	pop	r17
    2f48:	0f 91       	pop	r16
    2f4a:	08 95       	ret

00002f4c <_Z15ReadSharpSensorh>:
#ifndef SHARPSENSOR_H_
#define SHARPSENSOR_H_

uint8_t ReadSharpSensor(uint8_t sensor)
{
	uint8_t val = I_AnalogRead(ADCA, sensor);
    2f4c:	68 2f       	mov	r22, r24
    2f4e:	80 e0       	ldi	r24, 0x00	; 0
    2f50:	92 e0       	ldi	r25, 0x02	; 2
    2f52:	0e 94 5b 17 	call	0x2eb6	; 0x2eb6 <_Z12I_AnalogReadR10ADC_structh>
	
	switch(val)
    2f56:	90 e0       	ldi	r25, 0x00	; 0
    2f58:	fc 01       	movw	r30, r24
    2f5a:	fc 97       	sbiw	r30, 0x3c	; 60
    2f5c:	e4 3c       	cpi	r30, 0xC4	; 196
    2f5e:	f1 05       	cpc	r31, r1
    2f60:	f0 f4       	brcc	.+60     	; 0x2f9e <_Z15ReadSharpSensorh+0x52>
    2f62:	88 27       	eor	r24, r24
    2f64:	ea 5e       	subi	r30, 0xEA	; 234
    2f66:	fe 4f       	sbci	r31, 0xFE	; 254
    2f68:	8f 4f       	sbci	r24, 0xFF	; 255
    2f6a:	0c 94 df 30 	jmp	0x61be	; 0x61be <__tablejump2__>
		case 250 ... 255:
		return 4; //centimeter
		break;
		
		case 245 ... 249:
		return 5; //centimeter
    2f6e:	85 e0       	ldi	r24, 0x05	; 5
    2f70:	08 95       	ret
		break;
		
		case 240 ... 244:
		return 7; //centimeter
    2f72:	87 e0       	ldi	r24, 0x07	; 7
    2f74:	08 95       	ret
		break;
		
		case 235 ... 239:
		return 8; //centimeter
    2f76:	88 e0       	ldi	r24, 0x08	; 8
    2f78:	08 95       	ret
		break;
		
		case 230 ... 234:
		return 9; //centimeter
    2f7a:	89 e0       	ldi	r24, 0x09	; 9
    2f7c:	08 95       	ret
		break;
		
		case 200 ... 229:
		return 10; //centimeter
    2f7e:	8a e0       	ldi	r24, 0x0A	; 10
    2f80:	08 95       	ret
		break;
		
		case 190 ... 199:
		return 11; //centimeter
    2f82:	8b e0       	ldi	r24, 0x0B	; 11
    2f84:	08 95       	ret
		break;
		
		case 170 ... 189:
		return 12; //centimeter
    2f86:	8c e0       	ldi	r24, 0x0C	; 12
    2f88:	08 95       	ret
		break;
		
		case 155 ... 169:
		return 13; //centimeter
    2f8a:	8d e0       	ldi	r24, 0x0D	; 13
    2f8c:	08 95       	ret
		break;
		
		case 140 ... 154:
		return 14; //centimeter
    2f8e:	8e e0       	ldi	r24, 0x0E	; 14
    2f90:	08 95       	ret
		break;
		
		case 110 ... 119:
		return 16; //centimeter
    2f92:	80 e1       	ldi	r24, 0x10	; 16
    2f94:	08 95       	ret
		break;
		
		case 80 ... 99:
		return 20; //centimeter
    2f96:	84 e1       	ldi	r24, 0x14	; 20
    2f98:	08 95       	ret
		break;
		
		case 60 ... 79:
		return 25; //centimeter
    2f9a:	89 e1       	ldi	r24, 0x19	; 25
    2f9c:	08 95       	ret
		break;
		
		default:
		return 30;
    2f9e:	8e e1       	ldi	r24, 0x1E	; 30
    2fa0:	08 95       	ret
	uint8_t val = I_AnalogRead(ADCA, sensor);
	
	switch(val)
	{
		case 250 ... 255:
		return 4; //centimeter
    2fa2:	84 e0       	ldi	r24, 0x04	; 4
		
		default:
		return 30;
		break;
	}
}
    2fa4:	08 95       	ret

00002fa6 <_Z10AnalogReadi>:
uint16_t AnalogRead(int16_t IO) { return (uint16_t)I_AnalogRead(ADCA, (uint8_t)IO); }
    2fa6:	68 2f       	mov	r22, r24
    2fa8:	80 e0       	ldi	r24, 0x00	; 0
    2faa:	92 e0       	ldi	r25, 0x02	; 2
    2fac:	0e 94 5b 17 	call	0x2eb6	; 0x2eb6 <_Z12I_AnalogReadR10ADC_structh>
    2fb0:	90 e0       	ldi	r25, 0x00	; 0
    2fb2:	08 95       	ret

00002fb4 <_Z15passthrough_TWIv>:
void ToggleLED1() { PORTH_OUTTGL |= (1 << 4); } // Zet tweede LED aan of uit
void ToggleLED2(){ PORTH_OUTTGL |= (1 << 5); } // Zet tweede LED aan of uit


/* Enter stepper-testing mode. Will exit on Reset */
void passthrough_TWI() {
    2fb4:	cf 93       	push	r28
    2fb6:	df 93       	push	r29
    2fb8:	cd b7       	in	r28, 0x3d	; 61
    2fba:	de b7       	in	r29, 0x3e	; 62
    2fbc:	2b 97       	sbiw	r28, 0x0b	; 11
    2fbe:	cd bf       	out	0x3d, r28	; 61
    2fc0:	de bf       	out	0x3e, r29	; 62
	char buff[3];
	TWI_onRequest(requestResult, TWIC);
    2fc2:	60 e8       	ldi	r22, 0x80	; 128
    2fc4:	74 e0       	ldi	r23, 0x04	; 4
    2fc6:	8e ef       	ldi	r24, 0xFE	; 254
    2fc8:	94 e1       	ldi	r25, 0x14	; 20
    2fca:	0e 94 ec 07 	call	0xfd8	; 0xfd8 <_Z13TWI_onRequestPFvvER10TWI_struct>
	
	while (1) {
		if (TWI_RecievedAddress(TWIC)) {
			PORTH_OUTCLR |= (1<<4)|(1<<5); //LED on
    2fce:	0f 2e       	mov	r0, r31
    2fd0:	f6 ee       	ldi	r31, 0xE6	; 230
    2fd2:	cf 2e       	mov	r12, r31
    2fd4:	f6 e0       	ldi	r31, 0x06	; 6
    2fd6:	df 2e       	mov	r13, r31
    2fd8:	f0 2d       	mov	r31, r0
			
			if (buff[0] == 0) { //test steppers
				//buff[1] motorid, buff[2] direction
				char directiondata[]={buff[2]};
				stepperWriteRegister(DIRECTION_REG,directiondata,sizeof(directiondata)/sizeof(*directiondata),buff[1], USARTE1);
				char data[]={0x01,0x4c,0x00,0x32,buff[2],MOTOR_STEP_HALF,MOTOR_ON};
    2fda:	0f 2e       	mov	r0, r31
    2fdc:	f7 e0       	ldi	r31, 0x07	; 7
    2fde:	9f 2e       	mov	r9, r31
    2fe0:	f0 2d       	mov	r31, r0
    2fe2:	5e 01       	movw	r10, r28
    2fe4:	84 e0       	ldi	r24, 0x04	; 4
    2fe6:	a8 0e       	add	r10, r24
    2fe8:	b1 1c       	adc	r11, r1
    2fea:	0f 2e       	mov	r0, r31
    2fec:	fc e4       	ldi	r31, 0x4C	; 76
    2fee:	7f 2e       	mov	r7, r31
    2ff0:	f0 2d       	mov	r31, r0
    2ff2:	0f 2e       	mov	r0, r31
    2ff4:	f2 e3       	ldi	r31, 0x32	; 50
    2ff6:	8f 2e       	mov	r8, r31
    2ff8:	f0 2d       	mov	r31, r0
				stepperWriteRegister(STEPS_PS_HREG,data,sizeof(data)/sizeof(*data),buff[1],USARTE1);
				} else if (buff[0] == 1) { //lees analog
				Result = AnalogRead(buff[1]); //bij een interrupt stuurt de ATmega Result via TWI
			}
			
			PORTH_OUTSET |= (1<<4)|(1<<5); //LED off
    2ffa:	0f 2e       	mov	r0, r31
    2ffc:	f5 ee       	ldi	r31, 0xE5	; 229
    2ffe:	ef 2e       	mov	r14, r31
    3000:	f6 e0       	ldi	r31, 0x06	; 6
    3002:	ff 2e       	mov	r15, r31
    3004:	f0 2d       	mov	r31, r0
void passthrough_TWI() {
	char buff[3];
	TWI_onRequest(requestResult, TWIC);
	
	while (1) {
		if (TWI_RecievedAddress(TWIC)) {
    3006:	80 e8       	ldi	r24, 0x80	; 128
    3008:	94 e0       	ldi	r25, 0x04	; 4
    300a:	0e 94 7d 07 	call	0xefa	; 0xefa <_Z19TWI_RecievedAddressR10TWI_struct>
    300e:	88 23       	and	r24, r24
    3010:	d1 f3       	breq	.-12     	; 0x3006 <_Z15passthrough_TWIv+0x52>
			PORTH_OUTCLR |= (1<<4)|(1<<5); //LED on
    3012:	f6 01       	movw	r30, r12
    3014:	80 81       	ld	r24, Z
    3016:	80 63       	ori	r24, 0x30	; 48
    3018:	80 83       	st	Z, r24
			
			TWI_ReceivePacket(TWIC,(uint8_t*)buff, 3);
    301a:	43 e0       	ldi	r20, 0x03	; 3
    301c:	be 01       	movw	r22, r28
    301e:	6f 5f       	subi	r22, 0xFF	; 255
    3020:	7f 4f       	sbci	r23, 0xFF	; 255
    3022:	80 e8       	ldi	r24, 0x80	; 128
    3024:	94 e0       	ldi	r25, 0x04	; 4
    3026:	0e 94 89 07 	call	0xf12	; 0xf12 <_Z17TWI_ReceivePacketR10TWI_structPhh>
    302a:	8f e6       	ldi	r24, 0x6F	; 111
    302c:	97 e1       	ldi	r25, 0x17	; 23
    302e:	01 97       	sbiw	r24, 0x01	; 1
    3030:	f1 f7       	brne	.-4      	; 0x302e <_Z15passthrough_TWIv+0x7a>
    3032:	00 c0       	rjmp	.+0      	; 0x3034 <_Z15passthrough_TWIv+0x80>
    3034:	00 00       	nop
			_delay_ms(1);
			TWIC.SLAVE.STATUS |= (1<<TWI_SLAVE_DIF_bp)|(1<<TWI_SLAVE_APIF_bp); //clear interrupts
    3036:	e0 e8       	ldi	r30, 0x80	; 128
    3038:	f4 e0       	ldi	r31, 0x04	; 4
    303a:	82 85       	ldd	r24, Z+10	; 0x0a
    303c:	80 6c       	ori	r24, 0xC0	; 192
    303e:	82 87       	std	Z+10, r24	; 0x0a
			
			if (buff[0] == 0) { //test steppers
    3040:	89 81       	ldd	r24, Y+1	; 0x01
    3042:	81 11       	cpse	r24, r1
    3044:	20 c0       	rjmp	.+64     	; 0x3086 <_Z15passthrough_TWIv+0xd2>
				//buff[1] motorid, buff[2] direction
				char directiondata[]={buff[2]};
    3046:	8b 81       	ldd	r24, Y+3	; 0x03
    3048:	8b 87       	std	Y+11, r24	; 0x0b
				stepperWriteRegister(DIRECTION_REG,directiondata,sizeof(directiondata)/sizeof(*directiondata),buff[1], USARTE1);
    304a:	00 eb       	ldi	r16, 0xB0	; 176
    304c:	1a e0       	ldi	r17, 0x0A	; 10
    304e:	2a 81       	ldd	r18, Y+2	; 0x02
    3050:	41 e0       	ldi	r20, 0x01	; 1
    3052:	be 01       	movw	r22, r28
    3054:	65 5f       	subi	r22, 0xF5	; 245
    3056:	7f 4f       	sbci	r23, 0xFF	; 255
    3058:	8a e4       	ldi	r24, 0x4A	; 74
    305a:	0e 94 bf 12 	call	0x257e	; 0x257e <_Z20stepperWriteRegisterhPKchhR12USART_struct>
				char data[]={0x01,0x4c,0x00,0x32,buff[2],MOTOR_STEP_HALF,MOTOR_ON};
    305e:	f5 01       	movw	r30, r10
    3060:	89 2d       	mov	r24, r9
    3062:	11 92       	st	Z+, r1
    3064:	8a 95       	dec	r24
    3066:	e9 f7       	brne	.-6      	; 0x3062 <_Z15passthrough_TWIv+0xae>
    3068:	81 e0       	ldi	r24, 0x01	; 1
    306a:	8c 83       	std	Y+4, r24	; 0x04
    306c:	7d 82       	std	Y+5, r7	; 0x05
    306e:	8f 82       	std	Y+7, r8	; 0x07
    3070:	89 87       	std	Y+9, r24	; 0x09
    3072:	8a 87       	std	Y+10, r24	; 0x0a
    3074:	8b 81       	ldd	r24, Y+3	; 0x03
    3076:	88 87       	std	Y+8, r24	; 0x08
				stepperWriteRegister(STEPS_PS_HREG,data,sizeof(data)/sizeof(*data),buff[1],USARTE1);
    3078:	2a 81       	ldd	r18, Y+2	; 0x02
    307a:	49 2d       	mov	r20, r9
    307c:	b5 01       	movw	r22, r10
    307e:	86 e4       	ldi	r24, 0x46	; 70
    3080:	0e 94 bf 12 	call	0x257e	; 0x257e <_Z20stepperWriteRegisterhPKchhR12USART_struct>
    3084:	08 c0       	rjmp	.+16     	; 0x3096 <_Z15passthrough_TWIv+0xe2>
				} else if (buff[0] == 1) { //lees analog
    3086:	81 30       	cpi	r24, 0x01	; 1
    3088:	31 f4       	brne	.+12     	; 0x3096 <_Z15passthrough_TWIv+0xe2>
				Result = AnalogRead(buff[1]); //bij een interrupt stuurt de ATmega Result via TWI
    308a:	8a 81       	ldd	r24, Y+2	; 0x02
    308c:	90 e0       	ldi	r25, 0x00	; 0
    308e:	0e 94 d3 17 	call	0x2fa6	; 0x2fa6 <_Z10AnalogReadi>
    3092:	80 93 ba 23 	sts	0x23BA, r24	; 0x8023ba <Result>
			}
			
			PORTH_OUTSET |= (1<<4)|(1<<5); //LED off
    3096:	f7 01       	movw	r30, r14
    3098:	80 81       	ld	r24, Z
    309a:	80 63       	ori	r24, 0x30	; 48
    309c:	80 83       	st	Z, r24
    309e:	b3 cf       	rjmp	.-154    	; 0x3006 <_Z15passthrough_TWIv+0x52>

000030a0 <_Z16initOptocouplersv>:

/**
 * \brief - Set all optocouplers to input
 */
void initOptocouplers(){
	OPTO_DIRCLR = OPTOS_bm;
    30a0:	8f e3       	ldi	r24, 0x3F	; 63
    30a2:	80 93 02 07 	sts	0x0702, r24	; 0x800702 <__TEXT_REGION_LENGTH__+0x700702>
    30a6:	08 95       	ret

000030a8 <_Z17I_OptocouplerReadh>:
/**
 * \brief - Read the level of an optocoupler
 */
bool I_OptocouplerRead(uint8_t io_port)
{
	switch(io_port)
    30a8:	82 30       	cpi	r24, 0x02	; 2
    30aa:	a9 f0       	breq	.+42     	; 0x30d6 <_Z17I_OptocouplerReadh+0x2e>
    30ac:	28 f4       	brcc	.+10     	; 0x30b8 <_Z17I_OptocouplerReadh+0x10>
    30ae:	88 23       	and	r24, r24
    30b0:	49 f0       	breq	.+18     	; 0x30c4 <_Z17I_OptocouplerReadh+0x1c>
    30b2:	81 30       	cpi	r24, 0x01	; 1
    30b4:	59 f0       	breq	.+22     	; 0x30cc <_Z17I_OptocouplerReadh+0x24>
    30b6:	26 c0       	rjmp	.+76     	; 0x3104 <_Z17I_OptocouplerReadh+0x5c>
    30b8:	84 30       	cpi	r24, 0x04	; 4
    30ba:	c9 f0       	breq	.+50     	; 0x30ee <_Z17I_OptocouplerReadh+0x46>
    30bc:	90 f0       	brcs	.+36     	; 0x30e2 <_Z17I_OptocouplerReadh+0x3a>
    30be:	85 30       	cpi	r24, 0x05	; 5
    30c0:	d9 f0       	breq	.+54     	; 0x30f8 <_Z17I_OptocouplerReadh+0x50>
    30c2:	20 c0       	rjmp	.+64     	; 0x3104 <_Z17I_OptocouplerReadh+0x5c>
	{
		case 0: return OPTO_IN & OPTO0;
    30c4:	80 91 08 07 	lds	r24, 0x0708	; 0x800708 <__TEXT_REGION_LENGTH__+0x700708>
    30c8:	81 70       	andi	r24, 0x01	; 1
    30ca:	08 95       	ret
		case 1: return OPTO_IN & OPTO1;
    30cc:	80 91 08 07 	lds	r24, 0x0708	; 0x800708 <__TEXT_REGION_LENGTH__+0x700708>
    30d0:	86 95       	lsr	r24
    30d2:	81 70       	andi	r24, 0x01	; 1
    30d4:	08 95       	ret
		case 2: return OPTO_IN & OPTO2;
    30d6:	80 91 08 07 	lds	r24, 0x0708	; 0x800708 <__TEXT_REGION_LENGTH__+0x700708>
    30da:	82 fb       	bst	r24, 2
    30dc:	88 27       	eor	r24, r24
    30de:	80 f9       	bld	r24, 0
    30e0:	08 95       	ret
		case 3: return OPTO_IN & OPTO3;
    30e2:	80 91 08 07 	lds	r24, 0x0708	; 0x800708 <__TEXT_REGION_LENGTH__+0x700708>
    30e6:	83 fb       	bst	r24, 3
    30e8:	88 27       	eor	r24, r24
    30ea:	80 f9       	bld	r24, 0
    30ec:	08 95       	ret
		case 4: return OPTO_IN & OPTO4;
    30ee:	80 91 08 07 	lds	r24, 0x0708	; 0x800708 <__TEXT_REGION_LENGTH__+0x700708>
    30f2:	82 95       	swap	r24
    30f4:	81 70       	andi	r24, 0x01	; 1
    30f6:	08 95       	ret
		case 5: return OPTO_IN & OPTO5;
    30f8:	80 91 08 07 	lds	r24, 0x0708	; 0x800708 <__TEXT_REGION_LENGTH__+0x700708>
    30fc:	85 fb       	bst	r24, 5
    30fe:	88 27       	eor	r24, r24
    3100:	80 f9       	bld	r24, 0
    3102:	08 95       	ret
		default: return 0;
    3104:	80 e0       	ldi	r24, 0x00	; 0
	}
}
    3106:	08 95       	ret

00003108 <_Z15OptocouplerReadi>:
void ToggleLED1();
void ToggleLED2();
void passthrough_TWI();
bool DigitalRead(int16_t IO) { return IO_ReadWrite(true, IO); }
uint16_t AnalogRead(int16_t IO) { return (uint16_t)I_AnalogRead(ADCA, (uint8_t)IO); }
bool OptocouplerRead(int16_t IO) { return I_OptocouplerRead((uint8_t)IO); }
    3108:	0e 94 54 18 	call	0x30a8	; 0x30a8 <_Z17I_OptocouplerReadh>
    310c:	08 95       	ret

0000310e <__vector_100>:
void requestStarted() { TWI_Write(TWIC, Started); }
void requestResult() { TWI_Write(TWIC, Result); }


/* ISR INT0, gebruikt voor lift interrupts */
ISR(PORTK_INT0_vect) {
    310e:	1f 92       	push	r1
    3110:	0f 92       	push	r0
    3112:	0f b6       	in	r0, 0x3f	; 63
    3114:	0f 92       	push	r0
    3116:	11 24       	eor	r1, r1
    3118:	08 b6       	in	r0, 0x38	; 56
    311a:	0f 92       	push	r0
    311c:	18 be       	out	0x38, r1	; 56
    311e:	09 b6       	in	r0, 0x39	; 57
    3120:	0f 92       	push	r0
    3122:	19 be       	out	0x39, r1	; 57
    3124:	0b b6       	in	r0, 0x3b	; 59
    3126:	0f 92       	push	r0
    3128:	1b be       	out	0x3b, r1	; 59
    312a:	2f 93       	push	r18
    312c:	3f 93       	push	r19
    312e:	4f 93       	push	r20
    3130:	5f 93       	push	r21
    3132:	6f 93       	push	r22
    3134:	7f 93       	push	r23
    3136:	8f 93       	push	r24
    3138:	9f 93       	push	r25
    313a:	af 93       	push	r26
    313c:	bf 93       	push	r27
    313e:	cf 93       	push	r28
    3140:	ef 93       	push	r30
    3142:	ff 93       	push	r31
	bool elevatorUpPressed = !(PORTK_IN & EV_SWITCH_PIN_UP); //Pin use pull-ups, invert to give true on pressed
    3144:	e8 e2       	ldi	r30, 0x28	; 40
    3146:	f7 e0       	ldi	r31, 0x07	; 7
    3148:	c0 81       	ld	r28, Z
    314a:	c0 71       	andi	r28, 0x10	; 16
	bool elevatorDownPressed = !(PORTK_IN & EV_SWITCH_PIN_DOWN);
    314c:	80 81       	ld	r24, Z

	if(elevatorDownPressed){
    314e:	85 fd       	sbrc	r24, 5
    3150:	09 c0       	rjmp	.+18     	; 0x3164 <__vector_100+0x56>
		DEBUG_OUT("Elevator Switch DOWN was pressed\n\r");
    3152:	62 e6       	ldi	r22, 0x62	; 98
    3154:	72 e2       	ldi	r23, 0x22	; 34
    3156:	80 ea       	ldi	r24, 0xA0	; 160
    3158:	99 e0       	ldi	r25, 0x09	; 9
    315a:	0e 94 94 09 	call	0x1328	; 0x1328 <_Z20USART_TransmitStringR12USART_structPKc>
		ElevatorButtonInISR(false); //Run with parameter false to indicate DOWN
    315e:	80 e0       	ldi	r24, 0x00	; 0
    3160:	0e 94 88 0b 	call	0x1710	; 0x1710 <ElevatorButtonInISR>

	}
	if(elevatorUpPressed){
    3164:	c1 11       	cpse	r28, r1
    3166:	09 c0       	rjmp	.+18     	; 0x317a <__vector_100+0x6c>
		DEBUG_OUT("Elevator Switch UP was pressed\n\r");
    3168:	65 e8       	ldi	r22, 0x85	; 133
    316a:	72 e2       	ldi	r23, 0x22	; 34
    316c:	80 ea       	ldi	r24, 0xA0	; 160
    316e:	99 e0       	ldi	r25, 0x09	; 9
    3170:	0e 94 94 09 	call	0x1328	; 0x1328 <_Z20USART_TransmitStringR12USART_structPKc>
		ElevatorButtonInISR(true); //Run with parameter true to indicate UP
    3174:	81 e0       	ldi	r24, 0x01	; 1
    3176:	0e 94 88 0b 	call	0x1710	; 0x1710 <ElevatorButtonInISR>
	}
}
    317a:	ff 91       	pop	r31
    317c:	ef 91       	pop	r30
    317e:	cf 91       	pop	r28
    3180:	bf 91       	pop	r27
    3182:	af 91       	pop	r26
    3184:	9f 91       	pop	r25
    3186:	8f 91       	pop	r24
    3188:	7f 91       	pop	r23
    318a:	6f 91       	pop	r22
    318c:	5f 91       	pop	r21
    318e:	4f 91       	pop	r20
    3190:	3f 91       	pop	r19
    3192:	2f 91       	pop	r18
    3194:	0f 90       	pop	r0
    3196:	0b be       	out	0x3b, r0	; 59
    3198:	0f 90       	pop	r0
    319a:	09 be       	out	0x39, r0	; 57
    319c:	0f 90       	pop	r0
    319e:	08 be       	out	0x38, r0	; 56
    31a0:	0f 90       	pop	r0
    31a2:	0f be       	out	0x3f, r0	; 63
    31a4:	0f 90       	pop	r0
    31a6:	1f 90       	pop	r1
    31a8:	18 95       	reti

000031aa <__vector_101>:


///* ISR INT1, gebruikt voor sorterarm interrupts */
ISR(PORTK_INT1_vect) {
    31aa:	1f 92       	push	r1
    31ac:	0f 92       	push	r0
    31ae:	0f b6       	in	r0, 0x3f	; 63
    31b0:	0f 92       	push	r0
    31b2:	11 24       	eor	r1, r1
    31b4:	08 b6       	in	r0, 0x38	; 56
    31b6:	0f 92       	push	r0
    31b8:	18 be       	out	0x38, r1	; 56
    31ba:	09 b6       	in	r0, 0x39	; 57
    31bc:	0f 92       	push	r0
    31be:	19 be       	out	0x39, r1	; 57
    31c0:	0b b6       	in	r0, 0x3b	; 59
    31c2:	0f 92       	push	r0
    31c4:	1b be       	out	0x3b, r1	; 59
    31c6:	2f 93       	push	r18
    31c8:	3f 93       	push	r19
    31ca:	4f 93       	push	r20
    31cc:	5f 93       	push	r21
    31ce:	6f 93       	push	r22
    31d0:	7f 93       	push	r23
    31d2:	8f 93       	push	r24
    31d4:	9f 93       	push	r25
    31d6:	af 93       	push	r26
    31d8:	bf 93       	push	r27
    31da:	cf 93       	push	r28
    31dc:	ef 93       	push	r30
    31de:	ff 93       	push	r31
	
	//Read the PORTK register on the SorterArm pins:
	bool leftIsPressed = !(PORTK_IN & sa1.switch_pin_left); //Pin use pull-ups, invert to give true on pressed
    31e0:	e8 e2       	ldi	r30, 0x28	; 40
    31e2:	f7 e0       	ldi	r31, 0x07	; 7
    31e4:	80 81       	ld	r24, Z
	bool rightIsPressed = !(PORTK_IN & sa1.switch_pin_right);
    31e6:	c0 81       	ld	r28, Z
    31e8:	c0 78       	andi	r28, 0x80	; 128

	//DEBUG_OUT("Entered INT1 ISR\r\n");
	if(leftIsPressed){
    31ea:	86 fd       	sbrc	r24, 6
    31ec:	08 c0       	rjmp	.+16     	; 0x31fe <__vector_101+0x54>
	 DEBUG_OUT("SorterArm switch LEFT was pressed\n\r");
    31ee:	66 ea       	ldi	r22, 0xA6	; 166
    31f0:	72 e2       	ldi	r23, 0x22	; 34
    31f2:	80 ea       	ldi	r24, 0xA0	; 160
    31f4:	99 e0       	ldi	r25, 0x09	; 9
    31f6:	0e 94 94 09 	call	0x1328	; 0x1328 <_Z20USART_TransmitStringR12USART_structPKc>
	 SorterArmISR();
    31fa:	0e 94 76 10 	call	0x20ec	; 0x20ec <SorterArmISR>
	}
	if(rightIsPressed){
    31fe:	c1 11       	cpse	r28, r1
    3200:	08 c0       	rjmp	.+16     	; 0x3212 <__vector_101+0x68>
	 DEBUG_OUT("SorterArm switch RIGHT was pressed\n\r");
    3202:	6a ec       	ldi	r22, 0xCA	; 202
    3204:	72 e2       	ldi	r23, 0x22	; 34
    3206:	80 ea       	ldi	r24, 0xA0	; 160
    3208:	99 e0       	ldi	r25, 0x09	; 9
    320a:	0e 94 94 09 	call	0x1328	; 0x1328 <_Z20USART_TransmitStringR12USART_structPKc>
	 SorterArmISR();
    320e:	0e 94 76 10 	call	0x20ec	; 0x20ec <SorterArmISR>

	//Currently checks the PORTK register for which pin is pressed down
	//The sorterArm should theoretically only be able to press one switch at a time
	//If necessary, code could be added for checking which switch changed state.
	
}
    3212:	ff 91       	pop	r31
    3214:	ef 91       	pop	r30
    3216:	cf 91       	pop	r28
    3218:	bf 91       	pop	r27
    321a:	af 91       	pop	r26
    321c:	9f 91       	pop	r25
    321e:	8f 91       	pop	r24
    3220:	7f 91       	pop	r23
    3222:	6f 91       	pop	r22
    3224:	5f 91       	pop	r21
    3226:	4f 91       	pop	r20
    3228:	3f 91       	pop	r19
    322a:	2f 91       	pop	r18
    322c:	0f 90       	pop	r0
    322e:	0b be       	out	0x3b, r0	; 59
    3230:	0f 90       	pop	r0
    3232:	09 be       	out	0x39, r0	; 57
    3234:	0f 90       	pop	r0
    3236:	08 be       	out	0x38, r0	; 56
    3238:	0f 90       	pop	r0
    323a:	0f be       	out	0x3f, r0	; 63
    323c:	0f 90       	pop	r0
    323e:	1f 90       	pop	r1
    3240:	18 95       	reti

00003242 <_Z8initLEDsv>:
		} else {
		PORTH_OUTSET |= (1<<4)|(1<<5);
	}
}
void initLEDs() {
	PORTH_DIRSET = PIN4_bm | PIN5_bm;
    3242:	80 e3       	ldi	r24, 0x30	; 48
    3244:	80 93 e1 06 	sts	0x06E1, r24	; 0x8006e1 <__TEXT_REGION_LENGTH__+0x7006e1>
	PORTH_OUTCLR = PIN4_bm | PIN5_bm;
    3248:	80 93 e6 06 	sts	0x06E6, r24	; 0x8006e6 <__TEXT_REGION_LENGTH__+0x7006e6>
    324c:	08 95       	ret

0000324e <main>:
	
}


int main(void)
{
    324e:	cf 92       	push	r12
    3250:	df 92       	push	r13
    3252:	ef 92       	push	r14
    3254:	ff 92       	push	r15
    3256:	0f 93       	push	r16
    3258:	1f 93       	push	r17
    325a:	cf 93       	push	r28
    325c:	df 93       	push	r29
	// Setup/init
	irq_initialize_vectors();
    325e:	87 e0       	ldi	r24, 0x07	; 7
    3260:	80 93 a2 00 	sts	0x00A2, r24	; 0x8000a2 <__TEXT_REGION_LENGTH__+0x7000a2>
	cpu_irq_enable();
    3264:	78 94       	sei
	sysclk_init();
    3266:	0e 94 a3 2b 	call	0x5746	; 0x5746 <sysclk_init>
	udc_start();
    326a:	0e 94 27 20 	call	0x404e	; 0x404e <udc_start>
	
	//Set up peripherals
	sysclk_enable_peripheral_clock(&TWIC);		//TWI/I2C line for interfacing with ESP32
    326e:	80 e8       	ldi	r24, 0x80	; 128
    3270:	94 e0       	ldi	r25, 0x04	; 4
    3272:	0e 94 05 15 	call	0x2a0a	; 0x2a0a <sysclk_enable_peripheral_clock>
	sysclk_enable_peripheral_clock(&USARTD0);	//USB line for debugging
    3276:	80 ea       	ldi	r24, 0xA0	; 160
    3278:	99 e0       	ldi	r25, 0x09	; 9
    327a:	0e 94 05 15 	call	0x2a0a	; 0x2a0a <sysclk_enable_peripheral_clock>
	sysclk_enable_peripheral_clock(&USARTE1);	//RS485
    327e:	80 eb       	ldi	r24, 0xB0	; 176
    3280:	9a e0       	ldi	r25, 0x0A	; 10
    3282:	0e 94 05 15 	call	0x2a0a	; 0x2a0a <sysclk_enable_peripheral_clock>
	sysclk_enable_peripheral_clock(&ADCA);		//ADC for reading sensors
    3286:	80 e0       	ldi	r24, 0x00	; 0
    3288:	92 e0       	ldi	r25, 0x02	; 2
    328a:	0e 94 05 15 	call	0x2a0a	; 0x2a0a <sysclk_enable_peripheral_clock>
	
	TWI_init(TWIC);
    328e:	80 e8       	ldi	r24, 0x80	; 128
    3290:	94 e0       	ldi	r25, 0x04	; 4
    3292:	0e 94 73 07 	call	0xee6	; 0xee6 <_Z8TWI_initR10TWI_struct>
	TWI_onRequest(requestStarted, TWIC);
    3296:	60 e8       	ldi	r22, 0x80	; 128
    3298:	74 e0       	ldi	r23, 0x04	; 4
    329a:	87 ef       	ldi	r24, 0xF7	; 247
    329c:	94 e1       	ldi	r25, 0x14	; 20
    329e:	0e 94 ec 07 	call	0xfd8	; 0xfd8 <_Z13TWI_onRequestPFvvER10TWI_struct>

	// Init board
	board_init();
    32a2:	0e 94 46 30 	call	0x608c	; 0x608c <board_init>
	initLEDs();
    32a6:	0e 94 21 19 	call	0x3242	; 0x3242 <_Z8initLEDsv>

	//Init UART for Debug interface and RS485 drivers
	USART_Init(USARTD0, 115200, 24000000, false);	// RX/TX out
    32aa:	e1 2c       	mov	r14, r1
    32ac:	00 e0       	ldi	r16, 0x00	; 0
    32ae:	16 e3       	ldi	r17, 0x36	; 54
    32b0:	2e e6       	ldi	r18, 0x6E	; 110
    32b2:	31 e0       	ldi	r19, 0x01	; 1
    32b4:	40 e0       	ldi	r20, 0x00	; 0
    32b6:	52 ec       	ldi	r21, 0xC2	; 194
    32b8:	61 e0       	ldi	r22, 0x01	; 1
    32ba:	70 e0       	ldi	r23, 0x00	; 0
    32bc:	80 ea       	ldi	r24, 0xA0	; 160
    32be:	99 e0       	ldi	r25, 0x09	; 9
    32c0:	0e 94 52 09 	call	0x12a4	; 0x12a4 <_Z10USART_InitR12USART_structmmb>
	USART_Init(USARTE1,37100,24000000,false);	// RS485 1
    32c4:	00 e0       	ldi	r16, 0x00	; 0
    32c6:	16 e3       	ldi	r17, 0x36	; 54
    32c8:	2e e6       	ldi	r18, 0x6E	; 110
    32ca:	31 e0       	ldi	r19, 0x01	; 1
    32cc:	4c ee       	ldi	r20, 0xEC	; 236
    32ce:	50 e9       	ldi	r21, 0x90	; 144
    32d0:	60 e0       	ldi	r22, 0x00	; 0
    32d2:	70 e0       	ldi	r23, 0x00	; 0
    32d4:	80 eb       	ldi	r24, 0xB0	; 176
    32d6:	9a e0       	ldi	r25, 0x0A	; 10
    32d8:	0e 94 52 09 	call	0x12a4	; 0x12a4 <_Z10USART_InitR12USART_structmmb>
	USART_Init(USARTF0,37100,24000000,false);	// RS485 2
    32dc:	00 e0       	ldi	r16, 0x00	; 0
    32de:	16 e3       	ldi	r17, 0x36	; 54
    32e0:	2e e6       	ldi	r18, 0x6E	; 110
    32e2:	31 e0       	ldi	r19, 0x01	; 1
    32e4:	4c ee       	ldi	r20, 0xEC	; 236
    32e6:	50 e9       	ldi	r21, 0x90	; 144
    32e8:	60 e0       	ldi	r22, 0x00	; 0
    32ea:	70 e0       	ldi	r23, 0x00	; 0
    32ec:	80 ea       	ldi	r24, 0xA0	; 160
    32ee:	9b e0       	ldi	r25, 0x0B	; 11
    32f0:	0e 94 52 09 	call	0x12a4	; 0x12a4 <_Z10USART_InitR12USART_structmmb>
	
	PORTE_OUTSET = 0b00110000;
    32f4:	80 e3       	ldi	r24, 0x30	; 48
    32f6:	80 93 85 06 	sts	0x0685, r24	; 0x800685 <__TEXT_REGION_LENGTH__+0x700685>
	
	ADC_Init(ADCA);
    32fa:	80 e0       	ldi	r24, 0x00	; 0
    32fc:	92 e0       	ldi	r25, 0x02	; 2
    32fe:	0e 94 5f 17 	call	0x2ebe	; 0x2ebe <_Z8ADC_InitR10ADC_struct>
    3302:	c1 e0       	ldi	r28, 0x01	; 1
    3304:	d0 e0       	ldi	r29, 0x00	; 0
	
	//Stop all motors on boot:
	for (uint8_t i=1; i<=11; i++) {
		StopBelt(i);
    3306:	ce 01       	movw	r24, r28
    3308:	0e 94 86 13 	call	0x270c	; 0x270c <_Z8StopBeltj>
    330c:	21 96       	adiw	r28, 0x01	; 1
	PORTE_OUTSET = 0b00110000;
	
	ADC_Init(ADCA);
	
	//Stop all motors on boot:
	for (uint8_t i=1; i<=11; i++) {
    330e:	cc 30       	cpi	r28, 0x0C	; 12
    3310:	d1 05       	cpc	r29, r1
    3312:	c9 f7       	brne	.-14     	; 0x3306 <main+0xb8>
    3314:	c1 e0       	ldi	r28, 0x01	; 1
    3316:	d0 e0       	ldi	r29, 0x00	; 0
		StopBelt(i);
	}
	for (uint8_t i=1; i<=11; i++) {
		StopTurntable(i);
    3318:	ce 01       	movw	r24, r28
    331a:	0e 94 fe 13 	call	0x27fc	; 0x27fc <_Z13StopTurntablej>
    331e:	21 96       	adiw	r28, 0x01	; 1
	
	//Stop all motors on boot:
	for (uint8_t i=1; i<=11; i++) {
		StopBelt(i);
	}
	for (uint8_t i=1; i<=11; i++) {
    3320:	cc 30       	cpi	r28, 0x0C	; 12
    3322:	d1 05       	cpc	r29, r1
    3324:	c9 f7       	brne	.-14     	; 0x3318 <main+0xca>
		StopTurntable(i);
	}
	StopSorterArm();
    3326:	0e 94 5e 10 	call	0x20bc	; 0x20bc <StopSorterArm>
	StopElevator();
    332a:	0e 94 53 0b 	call	0x16a6	; 0x16a6 <StopElevator>
	
	// sysclk_enable_peripheral_clock(&TCC1); //zie SorterArm.cpp, TODO weghalen als stepperdrivers uitgelezen kunnen worden
	
	sei(); //global interrupt enable
    332e:	78 94       	sei
	ElevatorInit();
    3330:	0e 94 9c 0b 	call	0x1738	; 0x1738 <ElevatorInit>

/**
 * \brief - Set all optocouplers to input
 */
void initOptocouplers(){
	OPTO_DIRCLR = OPTOS_bm;
    3334:	8f e3       	ldi	r24, 0x3F	; 63
    3336:	80 93 02 07 	sts	0x0702, r24	; 0x800702 <__TEXT_REGION_LENGTH__+0x700702>
	//ElevatorInterruptSetup();
	//SaSetInput(sa1.switch_pin_left, sa1.switch_pin_right);
	//SaSetInterrupt(sa1.switch_pin_left, sa1.switch_pin_right);


	USB_TransmitString("TEST\n"); // Test serial working
    333a:	8f ee       	ldi	r24, 0xEF	; 239
    333c:	92 e2       	ldi	r25, 0x22	; 34
    333e:	0e 94 9c 0a 	call	0x1538	; 0x1538 <_Z18USB_TransmitStringPKc>

	
	/* Insert application code here, after the board has been initialized. */
	
	
	USART_TransmitString(USARTD0, "\n\r------------------------------------------------------------\n\rReset\n\n\r");
    3342:	65 ef       	ldi	r22, 0xF5	; 245
    3344:	72 e2       	ldi	r23, 0x22	; 34
    3346:	80 ea       	ldi	r24, 0xA0	; 160
    3348:	99 e0       	ldi	r25, 0x09	; 9
    334a:	0e 94 94 09 	call	0x1328	; 0x1328 <_Z20USART_TransmitStringR12USART_structPKc>
	USB_TransmitString("\n\r------------------------------------------------------------\n\rReset\n\n\r");
    334e:	85 ef       	ldi	r24, 0xF5	; 245
    3350:	92 e2       	ldi	r25, 0x22	; 34
    3352:	0e 94 9c 0a 	call	0x1538	; 0x1538 <_Z18USB_TransmitStringPKc>
	
	
	getUsbBoot();
    3356:	0e 94 a8 05 	call	0xb50	; 0xb50 <_Z10getUsbBootv>
    335a:	0f 2e       	mov	r0, r31
    335c:	f0 e2       	ldi	r31, 0x20	; 32
    335e:	cf 2e       	mov	r12, r31
    3360:	f1 ea       	ldi	r31, 0xA1	; 161
    3362:	df 2e       	mov	r13, r31
    3364:	f7 e0       	ldi	r31, 0x07	; 7
    3366:	ef 2e       	mov	r14, r31
    3368:	f1 2c       	mov	r15, r1
    336a:	f0 2d       	mov	r31, r0
	
	for (long i=0;i<500000;i++)
	{
		if(TWI_RecievedAddress(TWIC))
    336c:	80 e8       	ldi	r24, 0x80	; 128
    336e:	94 e0       	ldi	r25, 0x04	; 4
    3370:	0e 94 7d 07 	call	0xefa	; 0xefa <_Z19TWI_RecievedAddressR10TWI_struct>
    3374:	88 23       	and	r24, r24
    3376:	21 f0       	breq	.+8      	; 0x3380 <main+0x132>
		receiveHexFileI2C(passthrough_TWI); //Check if I2C transmission contains new program or enables Stepper-test mode
    3378:	8a ed       	ldi	r24, 0xDA	; 218
    337a:	97 e1       	ldi	r25, 0x17	; 23
    337c:	0e 94 e1 05 	call	0xbc2	; 0xbc2 <_Z17receiveHexFileI2CPFvvE>
	#else
		//round up by default
		__ticks_dc = (uint32_t)(ceil(fabs(__tmp)));
	#endif

	__builtin_avr_delay_cycles(__ticks_dc);
    3380:	88 e0       	ldi	r24, 0x08	; 8
    3382:	8a 95       	dec	r24
    3384:	f1 f7       	brne	.-4      	; 0x3382 <main+0x134>
    3386:	81 e0       	ldi	r24, 0x01	; 1
    3388:	c8 1a       	sub	r12, r24
    338a:	d1 08       	sbc	r13, r1
    338c:	e1 08       	sbc	r14, r1
    338e:	f1 08       	sbc	r15, r1
	USB_TransmitString("\n\r------------------------------------------------------------\n\rReset\n\n\r");
	
	
	getUsbBoot();
	
	for (long i=0;i<500000;i++)
    3390:	69 f7       	brne	.-38     	; 0x336c <main+0x11e>
		receiveHexFileI2C(passthrough_TWI); //Check if I2C transmission contains new program or enables Stepper-test mode
		_delay_us(1);
	}
	
	#ifdef DEBUG
	USART_TransmitString(USARTD0, "\r\nRunning in DEBUG mode\r\n");
    3392:	6e e3       	ldi	r22, 0x3E	; 62
    3394:	73 e2       	ldi	r23, 0x23	; 35
    3396:	80 ea       	ldi	r24, 0xA0	; 160
    3398:	99 e0       	ldi	r25, 0x09	; 9
    339a:	0e 94 94 09 	call	0x1328	; 0x1328 <_Z20USART_TransmitStringR12USART_structPKc>
	#endif
	
	// check if the blockly code area is empty
	USART_TransmitString(USARTD0, "Checking for program\n\r");
    339e:	68 e5       	ldi	r22, 0x58	; 88
    33a0:	73 e2       	ldi	r23, 0x23	; 35
    33a2:	80 ea       	ldi	r24, 0xA0	; 160
    33a4:	99 e0       	ldi	r25, 0x09	; 9
    33a6:	0e 94 94 09 	call	0x1328	; 0x1328 <_Z20USART_TransmitStringR12USART_structPKc>
	USB_TransmitString("Checking for program\n\r");
    33aa:	88 e5       	ldi	r24, 0x58	; 88
    33ac:	93 e2       	ldi	r25, 0x23	; 35
    33ae:	0e 94 9c 0a 	call	0x1538	; 0x1538 <_Z18USB_TransmitStringPKc>
	
	if(pgm_read_byte(0x8000) == 0xFF)
    33b2:	e0 e0       	ldi	r30, 0x00	; 0
    33b4:	f0 e8       	ldi	r31, 0x80	; 128
    33b6:	e4 91       	lpm	r30, Z
    33b8:	ef 3f       	cpi	r30, 0xFF	; 255
    33ba:	91 f4       	brne	.+36     	; 0x33e0 <main+0x192>
	{
		USART_TransmitString(USARTD0, "No program found\n\r");
    33bc:	6f e6       	ldi	r22, 0x6F	; 111
    33be:	73 e2       	ldi	r23, 0x23	; 35
    33c0:	80 ea       	ldi	r24, 0xA0	; 160
    33c2:	99 e0       	ldi	r25, 0x09	; 9
    33c4:	0e 94 94 09 	call	0x1328	; 0x1328 <_Z20USART_TransmitStringR12USART_structPKc>
		USB_TransmitString("No program found\n\r");
    33c8:	8f e6       	ldi	r24, 0x6F	; 111
    33ca:	93 e2       	ldi	r25, 0x23	; 35
    33cc:	0e 94 9c 0a 	call	0x1538	; 0x1538 <_Z18USB_TransmitStringPKc>
		
		while(true)
		{
			//USART0_TransmitString("test");
			if (!PORTA_IN &(1<<0))
    33d0:	c8 e0       	ldi	r28, 0x08	; 8
    33d2:	d6 e0       	ldi	r29, 0x06	; 6
    33d4:	88 81       	ld	r24, Y
    33d6:	81 11       	cpse	r24, r1
    33d8:	fd cf       	rjmp	.-6      	; 0x33d4 <main+0x186>
			{
				resetDevice();
    33da:	0e 94 4a 04 	call	0x894	; 0x894 <_Z11resetDevicev>
    33de:	fa cf       	rjmp	.-12     	; 0x33d4 <main+0x186>
			}
		}
	}

	// run the blockly
	Started = 1;
    33e0:	81 e0       	ldi	r24, 0x01	; 1
    33e2:	80 93 bb 23 	sts	0x23BB, r24	; 0x8023bb <Started>
	USART_TransmitString(USARTD0, "Starting your program\n\r");
    33e6:	62 e8       	ldi	r22, 0x82	; 130
    33e8:	73 e2       	ldi	r23, 0x23	; 35
    33ea:	80 ea       	ldi	r24, 0xA0	; 160
    33ec:	99 e0       	ldi	r25, 0x09	; 9
    33ee:	0e 94 94 09 	call	0x1328	; 0x1328 <_Z20USART_TransmitStringR12USART_structPKc>
	USB_TransmitString("Starting your program\n\r");
    33f2:	82 e8       	ldi	r24, 0x82	; 130
    33f4:	93 e2       	ldi	r25, 0x23	; 35
    33f6:	0e 94 9c 0a 	call	0x1538	; 0x1538 <_Z18USB_TransmitStringPKc>
	asm("jmp 0x8000");
    33fa:	0c 94 00 40 	jmp	0x8000	; 0x8000 <jump_table+0x200>

}
    33fe:	80 e0       	ldi	r24, 0x00	; 0
    3400:	90 e0       	ldi	r25, 0x00	; 0
    3402:	df 91       	pop	r29
    3404:	cf 91       	pop	r28
    3406:	1f 91       	pop	r17
    3408:	0f 91       	pop	r16
    340a:	ff 90       	pop	r15
    340c:	ef 90       	pop	r14
    340e:	df 90       	pop	r13
    3410:	cf 90       	pop	r12
    3412:	08 95       	ret

00003414 <_Z10ToggleLED1v>:
}
void initLEDs() {
	PORTH_DIRSET = PIN4_bm | PIN5_bm;
	PORTH_OUTCLR = PIN4_bm | PIN5_bm;
	} //Set the LED pins to output
void ToggleLED1() { PORTH_OUTTGL |= (1 << 4); } // Zet tweede LED aan of uit
    3414:	e7 ee       	ldi	r30, 0xE7	; 231
    3416:	f6 e0       	ldi	r31, 0x06	; 6
    3418:	80 81       	ld	r24, Z
    341a:	80 61       	ori	r24, 0x10	; 16
    341c:	80 83       	st	Z, r24
    341e:	08 95       	ret

00003420 <_Z10ToggleLED2v>:
void ToggleLED2(){ PORTH_OUTTGL |= (1 << 5); } // Zet tweede LED aan of uit
    3420:	e7 ee       	ldi	r30, 0xE7	; 231
    3422:	f6 e0       	ldi	r31, 0x06	; 6
    3424:	80 81       	ld	r24, Z
    3426:	80 62       	ori	r24, 0x20	; 32
    3428:	80 83       	st	Z, r24
    342a:	08 95       	ret

0000342c <udi_cdc_comm_enable>:
	uint8_t port;
	uint8_t iface_comm_num;

#if UDI_CDC_PORT_NB == 1 // To optimize code
	port = 0;
	udi_cdc_nb_comm_enabled = 0;
    342c:	10 92 d2 24 	sts	0x24D2, r1	; 0x8024d2 <udi_cdc_nb_comm_enabled>
	}
	port = udi_cdc_nb_comm_enabled;
#endif

	// Initialize control signal management
	udi_cdc_state[port] = CPU_TO_LE16(0);
    3430:	10 92 de 24 	sts	0x24DE, r1	; 0x8024de <udi_cdc_state>
    3434:	10 92 df 24 	sts	0x24DF, r1	; 0x8024df <udi_cdc_state+0x1>

	uid_cdc_state_msg[port].header.bmRequestType =
    3438:	e4 ed       	ldi	r30, 0xD4	; 212
    343a:	f4 e2       	ldi	r31, 0x24	; 36
    343c:	81 ea       	ldi	r24, 0xA1	; 161
    343e:	80 83       	st	Z, r24
			USB_REQ_DIR_IN | USB_REQ_TYPE_CLASS |
			USB_REQ_RECIP_INTERFACE;
	uid_cdc_state_msg[port].header.bNotification = USB_REQ_CDC_NOTIFY_SERIAL_STATE;
    3440:	80 e2       	ldi	r24, 0x20	; 32
    3442:	81 83       	std	Z+1, r24	; 0x01
	uid_cdc_state_msg[port].header.wValue = LE16(0);
    3444:	12 82       	std	Z+2, r1	; 0x02
    3446:	13 82       	std	Z+3, r1	; 0x03
	default:
		iface_comm_num = UDI_CDC_COMM_IFACE_NUMBER_0;
		break;
	}

	uid_cdc_state_msg[port].header.wIndex = LE16(iface_comm_num);
    3448:	14 82       	std	Z+4, r1	; 0x04
    344a:	15 82       	std	Z+5, r1	; 0x05
	uid_cdc_state_msg[port].header.wLength = LE16(2);
    344c:	82 e0       	ldi	r24, 0x02	; 2
    344e:	90 e0       	ldi	r25, 0x00	; 0
    3450:	86 83       	std	Z+6, r24	; 0x06
    3452:	97 83       	std	Z+7, r25	; 0x07
	uid_cdc_state_msg[port].value = CPU_TO_LE16(0);
    3454:	10 86       	std	Z+8, r1	; 0x08
    3456:	11 86       	std	Z+9, r1	; 0x09

	udi_cdc_line_coding[port].dwDTERate = CPU_TO_LE32(UDI_CDC_DEFAULT_RATE);
    3458:	e2 ee       	ldi	r30, 0xE2	; 226
    345a:	f4 e2       	ldi	r31, 0x24	; 36
    345c:	80 e0       	ldi	r24, 0x00	; 0
    345e:	92 ec       	ldi	r25, 0xC2	; 194
    3460:	a1 e0       	ldi	r26, 0x01	; 1
    3462:	b0 e0       	ldi	r27, 0x00	; 0
    3464:	80 83       	st	Z, r24
    3466:	91 83       	std	Z+1, r25	; 0x01
    3468:	a2 83       	std	Z+2, r26	; 0x02
    346a:	b3 83       	std	Z+3, r27	; 0x03
	udi_cdc_line_coding[port].bCharFormat = UDI_CDC_DEFAULT_STOPBITS;
    346c:	14 82       	std	Z+4, r1	; 0x04
	udi_cdc_line_coding[port].bParityType = UDI_CDC_DEFAULT_PARITY;
    346e:	15 82       	std	Z+5, r1	; 0x05
	udi_cdc_line_coding[port].bDataBits = UDI_CDC_DEFAULT_DATABITS;
    3470:	88 e0       	ldi	r24, 0x08	; 8
    3472:	86 83       	std	Z+6, r24	; 0x06
	// to initialize memories or indicate that interface is enabled
	UDI_CDC_SET_CODING_EXT(port,(&udi_cdc_line_coding[port]));
	if (!UDI_CDC_ENABLE_EXT(port)) {
		return false;
	}
	udi_cdc_nb_comm_enabled++;
    3474:	80 91 d2 24 	lds	r24, 0x24D2	; 0x8024d2 <udi_cdc_nb_comm_enabled>
    3478:	8f 5f       	subi	r24, 0xFF	; 255
    347a:	80 93 d2 24 	sts	0x24D2, r24	; 0x8024d2 <udi_cdc_nb_comm_enabled>
	return true;
}
    347e:	81 e0       	ldi	r24, 0x01	; 1
    3480:	08 95       	ret

00003482 <udi_cdc_comm_disable>:
}

void udi_cdc_comm_disable(void)
{
	Assert(udi_cdc_nb_comm_enabled != 0);
	udi_cdc_nb_comm_enabled--;
    3482:	80 91 d2 24 	lds	r24, 0x24D2	; 0x8024d2 <udi_cdc_nb_comm_enabled>
    3486:	81 50       	subi	r24, 0x01	; 1
    3488:	80 93 d2 24 	sts	0x24D2, r24	; 0x8024d2 <udi_cdc_nb_comm_enabled>
    348c:	08 95       	ret

0000348e <udi_cdc_data_disable>:
void udi_cdc_data_disable(void)
{
	uint8_t port;

	Assert(udi_cdc_nb_data_enabled != 0);
	udi_cdc_nb_data_enabled--;
    348e:	80 91 d1 24 	lds	r24, 0x24D1	; 0x8024d1 <udi_cdc_nb_data_enabled>
    3492:	81 50       	subi	r24, 0x01	; 1
    3494:	80 93 d1 24 	sts	0x24D1, r24	; 0x8024d1 <udi_cdc_nb_data_enabled>
	port = udi_cdc_nb_data_enabled;
    3498:	80 91 d1 24 	lds	r24, 0x24D1	; 0x8024d1 <udi_cdc_nb_data_enabled>
	UDI_CDC_DISABLE_EXT(port);
	udi_cdc_data_running = false;
    349c:	10 92 d0 24 	sts	0x24D0, r1	; 0x8024d0 <udi_cdc_data_running>
    34a0:	08 95       	ret

000034a2 <udi_cdc_data_setup>:
}

bool udi_cdc_data_setup(void)
{
	return false;  // request Not supported
}
    34a2:	80 e0       	ldi	r24, 0x00	; 0
    34a4:	08 95       	ret

000034a6 <udi_cdc_getsetting>:

uint8_t udi_cdc_getsetting(void)
{
	return 0;      // CDC don't have multiple alternate setting
}
    34a6:	80 e0       	ldi	r24, 0x00	; 0
    34a8:	08 95       	ret

000034aa <udi_cdc_comm_setup>:

bool udi_cdc_comm_setup(void)
{
	uint8_t port = udi_cdc_setup_to_port();

	if (Udd_setup_is_in()) {
    34aa:	80 91 31 26 	lds	r24, 0x2631	; 0x802631 <udd_g_ctrlreq>
    34ae:	88 23       	and	r24, r24
    34b0:	cc f4       	brge	.+50     	; 0x34e4 <udi_cdc_comm_setup+0x3a>
		// GET Interface Requests
		if (Udd_setup_type() == USB_REQ_TYPE_CLASS) {
    34b2:	80 76       	andi	r24, 0x60	; 96
    34b4:	80 32       	cpi	r24, 0x20	; 32
    34b6:	b9 f5       	brne	.+110    	; 0x3526 <udi_cdc_comm_setup+0x7c>
			// Requests Class Interface Get
			switch (udd_g_ctrlreq.req.bRequest) {
    34b8:	80 91 32 26 	lds	r24, 0x2632	; 0x802632 <udd_g_ctrlreq+0x1>
    34bc:	81 32       	cpi	r24, 0x21	; 33
    34be:	a9 f5       	brne	.+106    	; 0x352a <udi_cdc_comm_setup+0x80>
			case USB_REQ_CDC_GET_LINE_CODING:
				// Get configuration of CDC line
				if (sizeof(usb_cdc_line_coding_t) !=
    34c0:	80 91 37 26 	lds	r24, 0x2637	; 0x802637 <udd_g_ctrlreq+0x6>
    34c4:	90 91 38 26 	lds	r25, 0x2638	; 0x802638 <udd_g_ctrlreq+0x7>
    34c8:	07 97       	sbiw	r24, 0x07	; 7
    34ca:	89 f5       	brne	.+98     	; 0x352e <udi_cdc_comm_setup+0x84>
						udd_g_ctrlreq.req.wLength)
					return false; // Error for USB host
				udd_g_ctrlreq.payload =
    34cc:	e1 e3       	ldi	r30, 0x31	; 49
    34ce:	f6 e2       	ldi	r31, 0x26	; 38
    34d0:	82 ee       	ldi	r24, 0xE2	; 226
    34d2:	94 e2       	ldi	r25, 0x24	; 36
    34d4:	80 87       	std	Z+8, r24	; 0x08
    34d6:	91 87       	std	Z+9, r25	; 0x09
						(uint8_t *) &
						udi_cdc_line_coding[port];
				udd_g_ctrlreq.payload_size =
    34d8:	87 e0       	ldi	r24, 0x07	; 7
    34da:	90 e0       	ldi	r25, 0x00	; 0
    34dc:	82 87       	std	Z+10, r24	; 0x0a
    34de:	93 87       	std	Z+11, r25	; 0x0b
						sizeof(usb_cdc_line_coding_t);
				return true;
    34e0:	81 e0       	ldi	r24, 0x01	; 1
    34e2:	08 95       	ret
			}
		}
	}
	if (Udd_setup_is_out()) {
		// SET Interface Requests
		if (Udd_setup_type() == USB_REQ_TYPE_CLASS) {
    34e4:	80 76       	andi	r24, 0x60	; 96
    34e6:	80 32       	cpi	r24, 0x20	; 32
    34e8:	21 f5       	brne	.+72     	; 0x3532 <udi_cdc_comm_setup+0x88>
			// Requests Class Interface Set
			switch (udd_g_ctrlreq.req.bRequest) {
    34ea:	80 91 32 26 	lds	r24, 0x2632	; 0x802632 <udd_g_ctrlreq+0x1>
    34ee:	80 32       	cpi	r24, 0x20	; 32
    34f0:	21 f0       	breq	.+8      	; 0x34fa <udi_cdc_comm_setup+0x50>
    34f2:	82 32       	cpi	r24, 0x22	; 34
    34f4:	01 f1       	breq	.+64     	; 0x3536 <udi_cdc_comm_setup+0x8c>
						 & CDC_CTRL_SIGNAL_ACTIVATE_CARRIER)));
				return true;
			}
		}
	}
	return false;  // request Not supported
    34f6:	80 e0       	ldi	r24, 0x00	; 0
    34f8:	08 95       	ret
		if (Udd_setup_type() == USB_REQ_TYPE_CLASS) {
			// Requests Class Interface Set
			switch (udd_g_ctrlreq.req.bRequest) {
			case USB_REQ_CDC_SET_LINE_CODING:
				// Change configuration of CDC line
				if (sizeof(usb_cdc_line_coding_t) !=
    34fa:	80 91 37 26 	lds	r24, 0x2637	; 0x802637 <udd_g_ctrlreq+0x6>
    34fe:	90 91 38 26 	lds	r25, 0x2638	; 0x802638 <udd_g_ctrlreq+0x7>
    3502:	07 97       	sbiw	r24, 0x07	; 7
    3504:	d1 f4       	brne	.+52     	; 0x353a <udi_cdc_comm_setup+0x90>
						udd_g_ctrlreq.req.wLength)
					return false; // Error for USB host
				udd_g_ctrlreq.callback =
    3506:	e1 e3       	ldi	r30, 0x31	; 49
    3508:	f6 e2       	ldi	r31, 0x26	; 38
    350a:	8f e9       	ldi	r24, 0x9F	; 159
    350c:	9a e1       	ldi	r25, 0x1A	; 26
    350e:	84 87       	std	Z+12, r24	; 0x0c
    3510:	95 87       	std	Z+13, r25	; 0x0d
						udi_cdc_line_coding_received;
				udd_g_ctrlreq.payload =
    3512:	82 ee       	ldi	r24, 0xE2	; 226
    3514:	94 e2       	ldi	r25, 0x24	; 36
    3516:	80 87       	std	Z+8, r24	; 0x08
    3518:	91 87       	std	Z+9, r25	; 0x09
						(uint8_t *) &
						udi_cdc_line_coding[port];
				udd_g_ctrlreq.payload_size =
    351a:	87 e0       	ldi	r24, 0x07	; 7
    351c:	90 e0       	ldi	r25, 0x00	; 0
    351e:	82 87       	std	Z+10, r24	; 0x0a
    3520:	93 87       	std	Z+11, r25	; 0x0b
						sizeof(usb_cdc_line_coding_t);
				return true;
    3522:	81 e0       	ldi	r24, 0x01	; 1
    3524:	08 95       	ret
						 & CDC_CTRL_SIGNAL_ACTIVATE_CARRIER)));
				return true;
			}
		}
	}
	return false;  // request Not supported
    3526:	80 e0       	ldi	r24, 0x00	; 0
    3528:	08 95       	ret
    352a:	80 e0       	ldi	r24, 0x00	; 0
    352c:	08 95       	ret
			switch (udd_g_ctrlreq.req.bRequest) {
			case USB_REQ_CDC_GET_LINE_CODING:
				// Get configuration of CDC line
				if (sizeof(usb_cdc_line_coding_t) !=
						udd_g_ctrlreq.req.wLength)
					return false; // Error for USB host
    352e:	80 e0       	ldi	r24, 0x00	; 0
    3530:	08 95       	ret
						 & CDC_CTRL_SIGNAL_ACTIVATE_CARRIER)));
				return true;
			}
		}
	}
	return false;  // request Not supported
    3532:	80 e0       	ldi	r24, 0x00	; 0
    3534:	08 95       	ret
						(udd_g_ctrlreq.req.wValue
						 & CDC_CTRL_SIGNAL_DTE_PRESENT)));
				UDI_CDC_SET_RTS_EXT(port, (0 !=
						(udd_g_ctrlreq.req.wValue
						 & CDC_CTRL_SIGNAL_ACTIVATE_CARRIER)));
				return true;
    3536:	81 e0       	ldi	r24, 0x01	; 1
    3538:	08 95       	ret
			switch (udd_g_ctrlreq.req.bRequest) {
			case USB_REQ_CDC_SET_LINE_CODING:
				// Change configuration of CDC line
				if (sizeof(usb_cdc_line_coding_t) !=
						udd_g_ctrlreq.req.wLength)
					return false; // Error for USB host
    353a:	80 e0       	ldi	r24, 0x00	; 0
				return true;
			}
		}
	}
	return false;  // request Not supported
}
    353c:	08 95       	ret

0000353e <udi_cdc_line_coding_received>:
	}
	return port;
}

static void udi_cdc_line_coding_received(void)
{
    353e:	08 95       	ret

00003540 <udi_cdc_tx_send>:
	udi_cdc_tx_send(port);
}


static void udi_cdc_tx_send(uint8_t port)
{
    3540:	ff 92       	push	r15
    3542:	0f 93       	push	r16
    3544:	1f 93       	push	r17
    3546:	cf 93       	push	r28
    3548:	df 93       	push	r29
    354a:	1f 92       	push	r1
    354c:	cd b7       	in	r28, 0x3d	; 61
    354e:	de b7       	in	r29, 0x3e	; 62

#if UDI_CDC_PORT_NB == 1 // To optimize code
	port = 0;
#endif

	if (udi_cdc_tx_trans_ongoing[port]) {
    3550:	80 91 bf 23 	lds	r24, 0x23BF	; 0x8023bf <udi_cdc_tx_trans_ongoing>
    3554:	81 11       	cpse	r24, r1
    3556:	9f c0       	rjmp	.+318    	; 0x3696 <udi_cdc_tx_send+0x156>
		return; // Already on going or wait next SOF to send next data
	}
	if (udd_is_high_speed()) {
    3558:	0e 94 1e 27 	call	0x4e3c	; 0x4e3c <udd_is_high_speed>
    355c:	88 23       	and	r24, r24
    355e:	51 f0       	breq	.+20     	; 0x3574 <udi_cdc_tx_send+0x34>
		if (udi_cdc_tx_sof_num[port] == udd_get_micro_frame_number()) {
    3560:	00 91 c0 23 	lds	r16, 0x23C0	; 0x8023c0 <udi_cdc_tx_sof_num>
    3564:	10 91 c1 23 	lds	r17, 0x23C1	; 0x8023c1 <udi_cdc_tx_sof_num+0x1>
    3568:	0e 94 2b 27 	call	0x4e56	; 0x4e56 <udd_get_micro_frame_number>
    356c:	08 17       	cp	r16, r24
    356e:	19 07       	cpc	r17, r25
    3570:	59 f4       	brne	.+22     	; 0x3588 <udi_cdc_tx_send+0x48>
    3572:	91 c0       	rjmp	.+290    	; 0x3696 <udi_cdc_tx_send+0x156>
			return; // Wait next SOF to send next data
		}
	}else{
		if (udi_cdc_tx_sof_num[port] == udd_get_frame_number()) {
    3574:	00 91 c0 23 	lds	r16, 0x23C0	; 0x8023c0 <udi_cdc_tx_sof_num>
    3578:	10 91 c1 23 	lds	r17, 0x23C1	; 0x8023c1 <udi_cdc_tx_sof_num+0x1>
    357c:	0e 94 26 27 	call	0x4e4c	; 0x4e4c <udd_get_frame_number>
    3580:	08 17       	cp	r16, r24
    3582:	19 07       	cpc	r17, r25
    3584:	09 f4       	brne	.+2      	; 0x3588 <udi_cdc_tx_send+0x48>
    3586:	87 c0       	rjmp	.+270    	; 0x3696 <udi_cdc_tx_send+0x156>

typedef uint8_t irqflags_t;

static inline irqflags_t cpu_irq_save(void)
{
	volatile irqflags_t flags = SREG;
    3588:	8f b7       	in	r24, 0x3f	; 63
    358a:	89 83       	std	Y+1, r24	; 0x01
	cpu_irq_disable();
    358c:	f8 94       	cli
	return flags;
    358e:	19 81       	ldd	r17, Y+1	; 0x01
			return; // Wait next SOF to send next data
		}
	}

	flags = cpu_irq_save(); // to protect udi_cdc_tx_buf_sel
	buf_sel_trans = udi_cdc_tx_buf_sel[port];
    3590:	00 91 c2 23 	lds	r16, 0x23C2	; 0x8023c2 <udi_cdc_tx_buf_sel>
	if (udi_cdc_tx_buf_nb[port][buf_sel_trans] == 0) {
    3594:	e0 2f       	mov	r30, r16
    3596:	f0 e0       	ldi	r31, 0x00	; 0
    3598:	ee 0f       	add	r30, r30
    359a:	ff 1f       	adc	r31, r31
    359c:	ed 53       	subi	r30, 0x3D	; 61
    359e:	fc 4d       	sbci	r31, 0xDC	; 220
    35a0:	80 81       	ld	r24, Z
    35a2:	91 81       	ldd	r25, Z+1	; 0x01
    35a4:	89 2b       	or	r24, r25
    35a6:	09 f5       	brne	.+66     	; 0x35ea <udi_cdc_tx_send+0xaa>
		sof_zlp_counter++;
    35a8:	80 91 bc 23 	lds	r24, 0x23BC	; 0x8023bc <sof_zlp_counter.5229>
    35ac:	90 91 bd 23 	lds	r25, 0x23BD	; 0x8023bd <sof_zlp_counter.5229+0x1>
    35b0:	01 96       	adiw	r24, 0x01	; 1
    35b2:	80 93 bc 23 	sts	0x23BC, r24	; 0x8023bc <sof_zlp_counter.5229>
    35b6:	90 93 bd 23 	sts	0x23BD, r25	; 0x8023bd <sof_zlp_counter.5229+0x1>
		if (((!udd_is_high_speed()) && (sof_zlp_counter < 100))
    35ba:	0e 94 1e 27 	call	0x4e3c	; 0x4e3c <udd_is_high_speed>
    35be:	81 11       	cpse	r24, r1
    35c0:	07 c0       	rjmp	.+14     	; 0x35d0 <udi_cdc_tx_send+0x90>
    35c2:	80 91 bc 23 	lds	r24, 0x23BC	; 0x8023bc <sof_zlp_counter.5229>
    35c6:	90 91 bd 23 	lds	r25, 0x23BD	; 0x8023bd <sof_zlp_counter.5229+0x1>
    35ca:	84 36       	cpi	r24, 0x64	; 100
    35cc:	91 05       	cpc	r25, r1
    35ce:	58 f0       	brcs	.+22     	; 0x35e6 <udi_cdc_tx_send+0xa6>
				|| (udd_is_high_speed() && (sof_zlp_counter < 800))) {
    35d0:	0e 94 1e 27 	call	0x4e3c	; 0x4e3c <udd_is_high_speed>
    35d4:	88 23       	and	r24, r24
    35d6:	49 f0       	breq	.+18     	; 0x35ea <udi_cdc_tx_send+0xaa>
    35d8:	80 91 bc 23 	lds	r24, 0x23BC	; 0x8023bc <sof_zlp_counter.5229>
    35dc:	90 91 bd 23 	lds	r25, 0x23BD	; 0x8023bd <sof_zlp_counter.5229+0x1>
    35e0:	80 32       	cpi	r24, 0x20	; 32
    35e2:	93 40       	sbci	r25, 0x03	; 3
    35e4:	10 f4       	brcc	.+4      	; 0x35ea <udi_cdc_tx_send+0xaa>
}

static inline void cpu_irq_restore(irqflags_t flags)
{
	barrier();
	SREG = flags;
    35e6:	1f bf       	out	0x3f, r17	; 63
    35e8:	56 c0       	rjmp	.+172    	; 0x3696 <udi_cdc_tx_send+0x156>
			cpu_irq_restore(flags);
			return;
		}
	}
	sof_zlp_counter = 0;
    35ea:	10 92 bc 23 	sts	0x23BC, r1	; 0x8023bc <sof_zlp_counter.5229>
    35ee:	10 92 bd 23 	sts	0x23BD, r1	; 0x8023bd <sof_zlp_counter.5229+0x1>

	if (!udi_cdc_tx_both_buf_to_send[port]) {
    35f2:	80 91 be 23 	lds	r24, 0x23BE	; 0x8023be <udi_cdc_tx_both_buf_to_send>
    35f6:	81 11       	cpse	r24, r1
    35f8:	06 c0       	rjmp	.+12     	; 0x3606 <udi_cdc_tx_send+0xc6>
		// Send current Buffer
		// and switch the current buffer
		udi_cdc_tx_buf_sel[port] = (buf_sel_trans==0)?1:0;
    35fa:	81 e0       	ldi	r24, 0x01	; 1
    35fc:	01 11       	cpse	r16, r1
    35fe:	80 e0       	ldi	r24, 0x00	; 0
    3600:	80 93 c2 23 	sts	0x23C2, r24	; 0x8023c2 <udi_cdc_tx_buf_sel>
    3604:	04 c0       	rjmp	.+8      	; 0x360e <udi_cdc_tx_send+0xce>
	}else{
		// Send the other Buffer
		// and no switch the current buffer
		buf_sel_trans = (buf_sel_trans==0)?1:0;
    3606:	81 e0       	ldi	r24, 0x01	; 1
    3608:	01 11       	cpse	r16, r1
    360a:	80 e0       	ldi	r24, 0x00	; 0
    360c:	08 2f       	mov	r16, r24
	}
	udi_cdc_tx_trans_ongoing[port] = true;
    360e:	81 e0       	ldi	r24, 0x01	; 1
    3610:	80 93 bf 23 	sts	0x23BF, r24	; 0x8023bf <udi_cdc_tx_trans_ongoing>
    3614:	1f bf       	out	0x3f, r17	; 63
	cpu_irq_restore(flags);

	b_short_packet = (udi_cdc_tx_buf_nb[port][buf_sel_trans] != UDI_CDC_TX_BUFFERS);
    3616:	10 e0       	ldi	r17, 0x00	; 0
    3618:	f8 01       	movw	r30, r16
    361a:	ee 0f       	add	r30, r30
    361c:	ff 1f       	adc	r31, r31
    361e:	ed 53       	subi	r30, 0x3D	; 61
    3620:	fc 4d       	sbci	r31, 0xDC	; 220
    3622:	80 81       	ld	r24, Z
    3624:	91 81       	ldd	r25, Z+1	; 0x01
    3626:	ff 24       	eor	r15, r15
    3628:	f3 94       	inc	r15
    362a:	80 34       	cpi	r24, 0x40	; 64
    362c:	91 05       	cpc	r25, r1
    362e:	09 f4       	brne	.+2      	; 0x3632 <udi_cdc_tx_send+0xf2>
    3630:	f1 2c       	mov	r15, r1
	if (b_short_packet) {
    3632:	80 34       	cpi	r24, 0x40	; 64
    3634:	91 05       	cpc	r25, r1
    3636:	91 f0       	breq	.+36     	; 0x365c <udi_cdc_tx_send+0x11c>
		if (udd_is_high_speed()) {
    3638:	0e 94 1e 27 	call	0x4e3c	; 0x4e3c <udd_is_high_speed>
    363c:	88 23       	and	r24, r24
    363e:	39 f0       	breq	.+14     	; 0x364e <udi_cdc_tx_send+0x10e>
			udi_cdc_tx_sof_num[port] = udd_get_micro_frame_number();
    3640:	0e 94 2b 27 	call	0x4e56	; 0x4e56 <udd_get_micro_frame_number>
    3644:	80 93 c0 23 	sts	0x23C0, r24	; 0x8023c0 <udi_cdc_tx_sof_num>
    3648:	90 93 c1 23 	sts	0x23C1, r25	; 0x8023c1 <udi_cdc_tx_sof_num+0x1>
    364c:	0b c0       	rjmp	.+22     	; 0x3664 <udi_cdc_tx_send+0x124>
		}else{
			udi_cdc_tx_sof_num[port] = udd_get_frame_number();
    364e:	0e 94 26 27 	call	0x4e4c	; 0x4e4c <udd_get_frame_number>
    3652:	80 93 c0 23 	sts	0x23C0, r24	; 0x8023c0 <udi_cdc_tx_sof_num>
    3656:	90 93 c1 23 	sts	0x23C1, r25	; 0x8023c1 <udi_cdc_tx_sof_num+0x1>
    365a:	04 c0       	rjmp	.+8      	; 0x3664 <udi_cdc_tx_send+0x124>
		}
	}else{
		udi_cdc_tx_sof_num[port] = 0; // Force next transfer without wait SOF
    365c:	10 92 c0 23 	sts	0x23C0, r1	; 0x8023c0 <udi_cdc_tx_sof_num>
    3660:	10 92 c1 23 	sts	0x23C1, r1	; 0x8023c1 <udi_cdc_tx_sof_num+0x1>
#undef UDI_CDC_PORT_TO_DATA_EP_IN
	default:
		ep = UDI_CDC_DATA_EP_IN_0;
		break;
	}
	udd_ep_run( ep,
    3664:	f8 01       	movw	r30, r16
    3666:	ee 0f       	add	r30, r30
    3668:	ff 1f       	adc	r31, r31
    366a:	ed 53       	subi	r30, 0x3D	; 61
    366c:	fc 4d       	sbci	r31, 0xDC	; 220
    366e:	20 81       	ld	r18, Z
    3670:	31 81       	ldd	r19, Z+1	; 0x01
			b_short_packet,
			udi_cdc_tx_buf[port][buf_sel_trans],
    3672:	a8 01       	movw	r20, r16
    3674:	00 24       	eor	r0, r0
    3676:	56 95       	lsr	r21
    3678:	47 95       	ror	r20
    367a:	07 94       	ror	r0
    367c:	56 95       	lsr	r21
    367e:	47 95       	ror	r20
    3680:	07 94       	ror	r0
    3682:	54 2f       	mov	r21, r20
    3684:	40 2d       	mov	r20, r0
    3686:	48 53       	subi	r20, 0x38	; 56
    3688:	5c 4d       	sbci	r21, 0xDC	; 220
#undef UDI_CDC_PORT_TO_DATA_EP_IN
	default:
		ep = UDI_CDC_DATA_EP_IN_0;
		break;
	}
	udd_ep_run( ep,
    368a:	02 e5       	ldi	r16, 0x52	; 82
    368c:	1b e1       	ldi	r17, 0x1B	; 27
    368e:	6f 2d       	mov	r22, r15
    3690:	81 e8       	ldi	r24, 0x81	; 129
    3692:	0e 94 34 28 	call	0x5068	; 0x5068 <udd_ep_run>
			b_short_packet,
			udi_cdc_tx_buf[port][buf_sel_trans],
			udi_cdc_tx_buf_nb[port][buf_sel_trans],
			udi_cdc_data_sent);
}
    3696:	0f 90       	pop	r0
    3698:	df 91       	pop	r29
    369a:	cf 91       	pop	r28
    369c:	1f 91       	pop	r17
    369e:	0f 91       	pop	r16
    36a0:	ff 90       	pop	r15
    36a2:	08 95       	ret

000036a4 <udi_cdc_data_sent>:
	default:
		port = 0;
		break;
	}

	if (UDD_EP_TRANSFER_OK != status) {
    36a4:	81 11       	cpse	r24, r1
    36a6:	16 c0       	rjmp	.+44     	; 0x36d4 <udi_cdc_data_sent+0x30>
		// Abort transfer
		return;
	}
	udi_cdc_tx_buf_nb[port][(udi_cdc_tx_buf_sel[port]==0)?1:0] = 0;
    36a8:	20 91 c2 23 	lds	r18, 0x23C2	; 0x8023c2 <udi_cdc_tx_buf_sel>
    36ac:	81 e0       	ldi	r24, 0x01	; 1
    36ae:	90 e0       	ldi	r25, 0x00	; 0
    36b0:	22 23       	and	r18, r18
    36b2:	11 f0       	breq	.+4      	; 0x36b8 <udi_cdc_data_sent+0x14>
    36b4:	80 e0       	ldi	r24, 0x00	; 0
    36b6:	90 e0       	ldi	r25, 0x00	; 0
    36b8:	88 0f       	add	r24, r24
    36ba:	99 1f       	adc	r25, r25
    36bc:	fc 01       	movw	r30, r24
    36be:	ed 53       	subi	r30, 0x3D	; 61
    36c0:	fc 4d       	sbci	r31, 0xDC	; 220
    36c2:	10 82       	st	Z, r1
    36c4:	11 82       	std	Z+1, r1	; 0x01
	udi_cdc_tx_both_buf_to_send[port] = false;
    36c6:	10 92 be 23 	sts	0x23BE, r1	; 0x8023be <udi_cdc_tx_both_buf_to_send>
	udi_cdc_tx_trans_ongoing[port] = false;
    36ca:	10 92 bf 23 	sts	0x23BF, r1	; 0x8023bf <udi_cdc_tx_trans_ongoing>

	if (n != 0) {
		UDI_CDC_TX_EMPTY_NOTIFY(port);
	}
	udi_cdc_tx_send(port);
    36ce:	80 e0       	ldi	r24, 0x00	; 0
    36d0:	0e 94 a0 1a 	call	0x3540	; 0x3540 <udi_cdc_tx_send>
    36d4:	08 95       	ret

000036d6 <udi_cdc_data_sof_notify>:
void udi_cdc_data_sof_notify(void)
{
	static uint8_t port_notify = 0;

	// A call of udi_cdc_data_sof_notify() is done for each port
	udi_cdc_tx_send(port_notify);
    36d6:	80 e0       	ldi	r24, 0x00	; 0
    36d8:	0e 94 a0 1a 	call	0x3540	; 0x3540 <udi_cdc_tx_send>
    36dc:	08 95       	ret

000036de <udi_cdc_ctrl_state_notify>:
	udi_cdc_ctrl_state_notify(port, ep_comm);
}


static void udi_cdc_ctrl_state_notify(uint8_t port, udd_ep_id_t ep)
{
    36de:	0f 93       	push	r16
    36e0:	1f 93       	push	r17
#if UDI_CDC_PORT_NB == 1 // To optimize code
	port = 0;
#endif

	// Send it if possible and state changed
	if ((!udi_cdc_serial_state_msg_ongoing[port])
    36e2:	80 91 e0 24 	lds	r24, 0x24E0	; 0x8024e0 <udi_cdc_serial_state_msg_ongoing>
    36e6:	81 11       	cpse	r24, r1
    36e8:	1f c0       	rjmp	.+62     	; 0x3728 <udi_cdc_ctrl_state_notify+0x4a>
			&& (udi_cdc_state[port] != uid_cdc_state_msg[port].value)) {
    36ea:	20 91 de 24 	lds	r18, 0x24DE	; 0x8024de <udi_cdc_state>
    36ee:	30 91 df 24 	lds	r19, 0x24DF	; 0x8024df <udi_cdc_state+0x1>
    36f2:	80 91 dc 24 	lds	r24, 0x24DC	; 0x8024dc <uid_cdc_state_msg+0x8>
    36f6:	90 91 dd 24 	lds	r25, 0x24DD	; 0x8024dd <uid_cdc_state_msg+0x9>
    36fa:	28 17       	cp	r18, r24
    36fc:	39 07       	cpc	r19, r25
    36fe:	a1 f0       	breq	.+40     	; 0x3728 <udi_cdc_ctrl_state_notify+0x4a>
    3700:	86 2f       	mov	r24, r22
		// Fill notification message
		uid_cdc_state_msg[port].value = udi_cdc_state[port];
    3702:	20 91 de 24 	lds	r18, 0x24DE	; 0x8024de <udi_cdc_state>
    3706:	30 91 df 24 	lds	r19, 0x24DF	; 0x8024df <udi_cdc_state+0x1>
    370a:	20 93 dc 24 	sts	0x24DC, r18	; 0x8024dc <uid_cdc_state_msg+0x8>
    370e:	30 93 dd 24 	sts	0x24DD, r19	; 0x8024dd <uid_cdc_state_msg+0x9>
		// Send notification message
		udi_cdc_serial_state_msg_ongoing[port] =
				udd_ep_run(ep,
    3712:	02 ec       	ldi	r16, 0xC2	; 194
    3714:	1b e1       	ldi	r17, 0x1B	; 27
    3716:	2a e0       	ldi	r18, 0x0A	; 10
    3718:	30 e0       	ldi	r19, 0x00	; 0
    371a:	44 ed       	ldi	r20, 0xD4	; 212
    371c:	54 e2       	ldi	r21, 0x24	; 36
    371e:	60 e0       	ldi	r22, 0x00	; 0
    3720:	0e 94 34 28 	call	0x5068	; 0x5068 <udd_ep_run>
	if ((!udi_cdc_serial_state_msg_ongoing[port])
			&& (udi_cdc_state[port] != uid_cdc_state_msg[port].value)) {
		// Fill notification message
		uid_cdc_state_msg[port].value = udi_cdc_state[port];
		// Send notification message
		udi_cdc_serial_state_msg_ongoing[port] =
    3724:	80 93 e0 24 	sts	0x24E0, r24	; 0x8024e0 <udi_cdc_serial_state_msg_ongoing>
				false,
				(uint8_t *) & uid_cdc_state_msg[port],
				sizeof(uid_cdc_state_msg[0]),
				udi_cdc_serial_state_msg_sent);
	}
}
    3728:	1f 91       	pop	r17
    372a:	0f 91       	pop	r16
    372c:	08 95       	ret

0000372e <udi_cdc_ctrl_state_change>:

	UDI_CDC_SET_CODING_EXT(port, (&udi_cdc_line_coding[port]));
}

static void udi_cdc_ctrl_state_change(uint8_t port, bool b_set, le16_t bit_mask)
{
    372e:	cf 93       	push	r28
    3730:	df 93       	push	r29
    3732:	1f 92       	push	r1
    3734:	cd b7       	in	r28, 0x3d	; 61
    3736:	de b7       	in	r29, 0x3e	; 62

typedef uint8_t irqflags_t;

static inline irqflags_t cpu_irq_save(void)
{
	volatile irqflags_t flags = SREG;
    3738:	8f b7       	in	r24, 0x3f	; 63
    373a:	89 83       	std	Y+1, r24	; 0x01
	cpu_irq_disable();
    373c:	f8 94       	cli
	return flags;
    373e:	29 81       	ldd	r18, Y+1	; 0x01
	port = 0;
#endif

	// Update state
	flags = cpu_irq_save(); // Protect udi_cdc_state
	if (b_set) {
    3740:	66 23       	and	r22, r22
    3742:	59 f0       	breq	.+22     	; 0x375a <udi_cdc_ctrl_state_change+0x2c>
		udi_cdc_state[port] |= bit_mask;
    3744:	80 91 de 24 	lds	r24, 0x24DE	; 0x8024de <udi_cdc_state>
    3748:	90 91 df 24 	lds	r25, 0x24DF	; 0x8024df <udi_cdc_state+0x1>
    374c:	48 2b       	or	r20, r24
    374e:	59 2b       	or	r21, r25
    3750:	40 93 de 24 	sts	0x24DE, r20	; 0x8024de <udi_cdc_state>
    3754:	50 93 df 24 	sts	0x24DF, r21	; 0x8024df <udi_cdc_state+0x1>
    3758:	0c c0       	rjmp	.+24     	; 0x3772 <udi_cdc_ctrl_state_change+0x44>
	} else {
		udi_cdc_state[port] &= ~(unsigned)bit_mask;
    375a:	80 91 de 24 	lds	r24, 0x24DE	; 0x8024de <udi_cdc_state>
    375e:	90 91 df 24 	lds	r25, 0x24DF	; 0x8024df <udi_cdc_state+0x1>
    3762:	40 95       	com	r20
    3764:	50 95       	com	r21
    3766:	48 23       	and	r20, r24
    3768:	59 23       	and	r21, r25
    376a:	40 93 de 24 	sts	0x24DE, r20	; 0x8024de <udi_cdc_state>
    376e:	50 93 df 24 	sts	0x24DF, r21	; 0x8024df <udi_cdc_state+0x1>
}

static inline void cpu_irq_restore(irqflags_t flags)
{
	barrier();
	SREG = flags;
    3772:	2f bf       	out	0x3f, r18	; 63
#undef UDI_CDC_PORT_TO_COMM_EP
	default:
		ep_comm = UDI_CDC_COMM_EP_0;
		break;
	}
	udi_cdc_ctrl_state_notify(port, ep_comm);
    3774:	62 e8       	ldi	r22, 0x82	; 130
    3776:	80 e0       	ldi	r24, 0x00	; 0
    3778:	0e 94 6f 1b 	call	0x36de	; 0x36de <udi_cdc_ctrl_state_notify>
}
    377c:	0f 90       	pop	r0
    377e:	df 91       	pop	r29
    3780:	cf 91       	pop	r28
    3782:	08 95       	ret

00003784 <udi_cdc_serial_state_msg_sent>:
	default:
		port = 0;
		break;
	}

	udi_cdc_serial_state_msg_ongoing[port] = false;
    3784:	10 92 e0 24 	sts	0x24E0, r1	; 0x8024e0 <udi_cdc_serial_state_msg_ongoing>

	// For the irregular signals like break, the incoming ring signal,
	// or the overrun error state, this will reset their values to zero
	// and again will not send another notification until their state changes.
	udi_cdc_state[port] &= ~(CDC_SERIAL_STATE_BREAK |
    3788:	80 91 de 24 	lds	r24, 0x24DE	; 0x8024de <udi_cdc_state>
    378c:	90 91 df 24 	lds	r25, 0x24DF	; 0x8024df <udi_cdc_state+0x1>
    3790:	83 78       	andi	r24, 0x83	; 131
    3792:	80 93 de 24 	sts	0x24DE, r24	; 0x8024de <udi_cdc_state>
    3796:	90 93 df 24 	sts	0x24DF, r25	; 0x8024df <udi_cdc_state+0x1>
			CDC_SERIAL_STATE_RING |
			CDC_SERIAL_STATE_FRAMING |
			CDC_SERIAL_STATE_PARITY | CDC_SERIAL_STATE_OVERRUN);
	uid_cdc_state_msg[port].value &= ~(CDC_SERIAL_STATE_BREAK |
    379a:	e4 ed       	ldi	r30, 0xD4	; 212
    379c:	f4 e2       	ldi	r31, 0x24	; 36
    379e:	80 85       	ldd	r24, Z+8	; 0x08
    37a0:	91 85       	ldd	r25, Z+9	; 0x09
    37a2:	83 78       	andi	r24, 0x83	; 131
    37a4:	80 87       	std	Z+8, r24	; 0x08
    37a6:	91 87       	std	Z+9, r25	; 0x09
			CDC_SERIAL_STATE_RING |
			CDC_SERIAL_STATE_FRAMING |
			CDC_SERIAL_STATE_PARITY | CDC_SERIAL_STATE_OVERRUN);
	// Send it if possible and state changed
	udi_cdc_ctrl_state_notify(port, ep);
    37a8:	64 2f       	mov	r22, r20
    37aa:	80 e0       	ldi	r24, 0x00	; 0
    37ac:	0e 94 6f 1b 	call	0x36de	; 0x36de <udi_cdc_ctrl_state_notify>
    37b0:	08 95       	ret

000037b2 <udi_cdc_ctrl_signal_dcd>:

//------- Application interface

void udi_cdc_ctrl_signal_dcd(bool b_set)
{
	udi_cdc_ctrl_state_change(0, b_set, CDC_SERIAL_STATE_DCD);
    37b2:	41 e0       	ldi	r20, 0x01	; 1
    37b4:	50 e0       	ldi	r21, 0x00	; 0
    37b6:	68 2f       	mov	r22, r24
    37b8:	80 e0       	ldi	r24, 0x00	; 0
    37ba:	0e 94 97 1b 	call	0x372e	; 0x372e <udi_cdc_ctrl_state_change>
    37be:	08 95       	ret

000037c0 <udi_cdc_ctrl_signal_dsr>:
}

void udi_cdc_ctrl_signal_dsr(bool b_set)
{
	udi_cdc_ctrl_state_change(0, b_set, CDC_SERIAL_STATE_DSR);
    37c0:	42 e0       	ldi	r20, 0x02	; 2
    37c2:	50 e0       	ldi	r21, 0x00	; 0
    37c4:	68 2f       	mov	r22, r24
    37c6:	80 e0       	ldi	r24, 0x00	; 0
    37c8:	0e 94 97 1b 	call	0x372e	; 0x372e <udi_cdc_ctrl_state_change>
    37cc:	08 95       	ret

000037ce <udi_cdc_signal_framing_error>:
}

void udi_cdc_signal_framing_error(void)
{
	udi_cdc_ctrl_state_change(0, true, CDC_SERIAL_STATE_FRAMING);
    37ce:	40 e1       	ldi	r20, 0x10	; 16
    37d0:	50 e0       	ldi	r21, 0x00	; 0
    37d2:	61 e0       	ldi	r22, 0x01	; 1
    37d4:	80 e0       	ldi	r24, 0x00	; 0
    37d6:	0e 94 97 1b 	call	0x372e	; 0x372e <udi_cdc_ctrl_state_change>
    37da:	08 95       	ret

000037dc <udi_cdc_signal_parity_error>:
}

void udi_cdc_signal_parity_error(void)
{
	udi_cdc_ctrl_state_change(0, true, CDC_SERIAL_STATE_PARITY);
    37dc:	40 e2       	ldi	r20, 0x20	; 32
    37de:	50 e0       	ldi	r21, 0x00	; 0
    37e0:	61 e0       	ldi	r22, 0x01	; 1
    37e2:	80 e0       	ldi	r24, 0x00	; 0
    37e4:	0e 94 97 1b 	call	0x372e	; 0x372e <udi_cdc_ctrl_state_change>
    37e8:	08 95       	ret

000037ea <udi_cdc_signal_overrun>:
}

void udi_cdc_signal_overrun(void)
{
	udi_cdc_ctrl_state_change(0, true, CDC_SERIAL_STATE_OVERRUN);
    37ea:	40 e4       	ldi	r20, 0x40	; 64
    37ec:	50 e0       	ldi	r21, 0x00	; 0
    37ee:	61 e0       	ldi	r22, 0x01	; 1
    37f0:	80 e0       	ldi	r24, 0x00	; 0
    37f2:	0e 94 97 1b 	call	0x372e	; 0x372e <udi_cdc_ctrl_state_change>
    37f6:	08 95       	ret

000037f8 <udi_cdc_multi_ctrl_signal_dcd>:
}

void udi_cdc_multi_ctrl_signal_dcd(uint8_t port, bool b_set)
{
	udi_cdc_ctrl_state_change(port, b_set, CDC_SERIAL_STATE_DCD);
    37f8:	41 e0       	ldi	r20, 0x01	; 1
    37fa:	50 e0       	ldi	r21, 0x00	; 0
    37fc:	0e 94 97 1b 	call	0x372e	; 0x372e <udi_cdc_ctrl_state_change>
    3800:	08 95       	ret

00003802 <udi_cdc_multi_ctrl_signal_dsr>:
}

void udi_cdc_multi_ctrl_signal_dsr(uint8_t port, bool b_set)
{
	udi_cdc_ctrl_state_change(port, b_set, CDC_SERIAL_STATE_DSR);
    3802:	42 e0       	ldi	r20, 0x02	; 2
    3804:	50 e0       	ldi	r21, 0x00	; 0
    3806:	0e 94 97 1b 	call	0x372e	; 0x372e <udi_cdc_ctrl_state_change>
    380a:	08 95       	ret

0000380c <udi_cdc_multi_signal_framing_error>:
}

void udi_cdc_multi_signal_framing_error(uint8_t port)
{
	udi_cdc_ctrl_state_change(port, true, CDC_SERIAL_STATE_FRAMING);
    380c:	40 e1       	ldi	r20, 0x10	; 16
    380e:	50 e0       	ldi	r21, 0x00	; 0
    3810:	61 e0       	ldi	r22, 0x01	; 1
    3812:	0e 94 97 1b 	call	0x372e	; 0x372e <udi_cdc_ctrl_state_change>
    3816:	08 95       	ret

00003818 <udi_cdc_multi_signal_parity_error>:
}

void udi_cdc_multi_signal_parity_error(uint8_t port)
{
	udi_cdc_ctrl_state_change(port, true, CDC_SERIAL_STATE_PARITY);
    3818:	40 e2       	ldi	r20, 0x20	; 32
    381a:	50 e0       	ldi	r21, 0x00	; 0
    381c:	61 e0       	ldi	r22, 0x01	; 1
    381e:	0e 94 97 1b 	call	0x372e	; 0x372e <udi_cdc_ctrl_state_change>
    3822:	08 95       	ret

00003824 <udi_cdc_multi_signal_overrun>:
}

void udi_cdc_multi_signal_overrun(uint8_t port)
{
	udi_cdc_ctrl_state_change(port, true, CDC_SERIAL_STATE_OVERRUN);
    3824:	40 e4       	ldi	r20, 0x40	; 64
    3826:	50 e0       	ldi	r21, 0x00	; 0
    3828:	61 e0       	ldi	r22, 0x01	; 1
    382a:	0e 94 97 1b 	call	0x372e	; 0x372e <udi_cdc_ctrl_state_change>
    382e:	08 95       	ret

00003830 <udi_cdc_multi_get_nb_received_data>:
}

iram_size_t udi_cdc_multi_get_nb_received_data(uint8_t port)
{
    3830:	cf 93       	push	r28
    3832:	df 93       	push	r29
    3834:	1f 92       	push	r1
    3836:	cd b7       	in	r28, 0x3d	; 61
    3838:	de b7       	in	r29, 0x3e	; 62

typedef uint8_t irqflags_t;

static inline irqflags_t cpu_irq_save(void)
{
	volatile irqflags_t flags = SREG;
    383a:	8f b7       	in	r24, 0x3f	; 63
    383c:	89 83       	std	Y+1, r24	; 0x01
	cpu_irq_disable();
    383e:	f8 94       	cli
	return flags;
    3840:	49 81       	ldd	r20, Y+1	; 0x01

#if UDI_CDC_PORT_NB == 1 // To optimize code
	port = 0;
#endif
	flags = cpu_irq_save();
	pos = udi_cdc_rx_pos[port];
    3842:	20 91 49 24 	lds	r18, 0x2449	; 0x802449 <udi_cdc_rx_pos>
    3846:	30 91 4a 24 	lds	r19, 0x244A	; 0x80244a <udi_cdc_rx_pos+0x1>
	nb_received = udi_cdc_rx_buf_nb[port][udi_cdc_rx_buf_sel[port]] - pos;
    384a:	e0 91 4b 24 	lds	r30, 0x244B	; 0x80244b <udi_cdc_rx_buf_sel>
    384e:	f0 e0       	ldi	r31, 0x00	; 0
    3850:	ee 0f       	add	r30, r30
    3852:	ff 1f       	adc	r31, r31
    3854:	e4 5b       	subi	r30, 0xB4	; 180
    3856:	fb 4d       	sbci	r31, 0xDB	; 219
    3858:	80 81       	ld	r24, Z
    385a:	91 81       	ldd	r25, Z+1	; 0x01
}

static inline void cpu_irq_restore(irqflags_t flags)
{
	barrier();
	SREG = flags;
    385c:	4f bf       	out	0x3f, r20	; 63
	cpu_irq_restore(flags);
	return nb_received;
}
    385e:	82 1b       	sub	r24, r18
    3860:	93 0b       	sbc	r25, r19
    3862:	0f 90       	pop	r0
    3864:	df 91       	pop	r29
    3866:	cf 91       	pop	r28
    3868:	08 95       	ret

0000386a <udi_cdc_get_nb_received_data>:

iram_size_t udi_cdc_get_nb_received_data(void)
{
	return udi_cdc_multi_get_nb_received_data(0);
    386a:	80 e0       	ldi	r24, 0x00	; 0
    386c:	0e 94 18 1c 	call	0x3830	; 0x3830 <udi_cdc_multi_get_nb_received_data>
}
    3870:	08 95       	ret

00003872 <udi_cdc_multi_is_rx_ready>:

bool udi_cdc_multi_is_rx_ready(uint8_t port)
{
	return (udi_cdc_multi_get_nb_received_data(port) > 0);
    3872:	0e 94 18 1c 	call	0x3830	; 0x3830 <udi_cdc_multi_get_nb_received_data>
    3876:	21 e0       	ldi	r18, 0x01	; 1
    3878:	89 2b       	or	r24, r25
    387a:	09 f4       	brne	.+2      	; 0x387e <udi_cdc_multi_is_rx_ready+0xc>
    387c:	20 e0       	ldi	r18, 0x00	; 0
}
    387e:	82 2f       	mov	r24, r18
    3880:	08 95       	ret

00003882 <udi_cdc_rx_start>:
//-------------------------------------------------
//------- Internal routines to process data transfer


static bool udi_cdc_rx_start(uint8_t port)
{
    3882:	0f 93       	push	r16
    3884:	1f 93       	push	r17
    3886:	cf 93       	push	r28
    3888:	df 93       	push	r29
    388a:	1f 92       	push	r1
    388c:	cd b7       	in	r28, 0x3d	; 61
    388e:	de b7       	in	r29, 0x3e	; 62

typedef uint8_t irqflags_t;

static inline irqflags_t cpu_irq_save(void)
{
	volatile irqflags_t flags = SREG;
    3890:	8f b7       	in	r24, 0x3f	; 63
    3892:	89 83       	std	Y+1, r24	; 0x01
	cpu_irq_disable();
    3894:	f8 94       	cli
	return flags;
    3896:	99 81       	ldd	r25, Y+1	; 0x01
#if UDI_CDC_PORT_NB == 1 // To optimize code
	port = 0;
#endif

	flags = cpu_irq_save();
	buf_sel_trans = udi_cdc_rx_buf_sel[port];
    3898:	20 91 4b 24 	lds	r18, 0x244B	; 0x80244b <udi_cdc_rx_buf_sel>
	if (udi_cdc_rx_trans_ongoing[port] ||
    389c:	80 91 48 24 	lds	r24, 0x2448	; 0x802448 <udi_cdc_rx_trans_ongoing>
    38a0:	81 11       	cpse	r24, r1
    38a2:	10 c0       	rjmp	.+32     	; 0x38c4 <udi_cdc_rx_start+0x42>
		(udi_cdc_rx_pos[port] < udi_cdc_rx_buf_nb[port][buf_sel_trans])) {
    38a4:	60 91 49 24 	lds	r22, 0x2449	; 0x802449 <udi_cdc_rx_pos>
    38a8:	70 91 4a 24 	lds	r23, 0x244A	; 0x80244a <udi_cdc_rx_pos+0x1>
    38ac:	02 2f       	mov	r16, r18
    38ae:	10 e0       	ldi	r17, 0x00	; 0
    38b0:	f8 01       	movw	r30, r16
    38b2:	ee 0f       	add	r30, r30
    38b4:	ff 1f       	adc	r31, r31
    38b6:	e4 5b       	subi	r30, 0xB4	; 180
    38b8:	fb 4d       	sbci	r31, 0xDB	; 219
    38ba:	40 81       	ld	r20, Z
    38bc:	51 81       	ldd	r21, Z+1	; 0x01
	port = 0;
#endif

	flags = cpu_irq_save();
	buf_sel_trans = udi_cdc_rx_buf_sel[port];
	if (udi_cdc_rx_trans_ongoing[port] ||
    38be:	64 17       	cp	r22, r20
    38c0:	75 07       	cpc	r23, r21
    38c2:	18 f4       	brcc	.+6      	; 0x38ca <udi_cdc_rx_start+0x48>
}

static inline void cpu_irq_restore(irqflags_t flags)
{
	barrier();
	SREG = flags;
    38c4:	9f bf       	out	0x3f, r25	; 63
		(udi_cdc_rx_pos[port] < udi_cdc_rx_buf_nb[port][buf_sel_trans])) {
		// Transfer already on-going or current buffer no empty
		cpu_irq_restore(flags);
		return false;
    38c6:	80 e0       	ldi	r24, 0x00	; 0
    38c8:	24 c0       	rjmp	.+72     	; 0x3912 <udi_cdc_rx_start+0x90>
	}

	// Change current buffer
	udi_cdc_rx_pos[port] = 0;
    38ca:	10 92 49 24 	sts	0x2449, r1	; 0x802449 <udi_cdc_rx_pos>
    38ce:	10 92 4a 24 	sts	0x244A, r1	; 0x80244a <udi_cdc_rx_pos+0x1>
	udi_cdc_rx_buf_sel[port] = (buf_sel_trans==0)?1:0;
    38d2:	81 e0       	ldi	r24, 0x01	; 1
    38d4:	21 11       	cpse	r18, r1
    38d6:	80 e0       	ldi	r24, 0x00	; 0
    38d8:	80 93 4b 24 	sts	0x244B, r24	; 0x80244b <udi_cdc_rx_buf_sel>

	// Start transfer on RX
	udi_cdc_rx_trans_ongoing[port] = true;
    38dc:	81 e0       	ldi	r24, 0x01	; 1
    38de:	80 93 48 24 	sts	0x2448, r24	; 0x802448 <udi_cdc_rx_trans_ongoing>
    38e2:	9f bf       	out	0x3f, r25	; 63
	cpu_irq_restore(flags);

	if (udi_cdc_multi_is_rx_ready(port)) {
    38e4:	80 e0       	ldi	r24, 0x00	; 0
    38e6:	0e 94 39 1c 	call	0x3872	; 0x3872 <udi_cdc_multi_is_rx_ready>
		ep = UDI_CDC_DATA_EP_OUT_0;
		break;
	}
	return udd_ep_run(ep,
			true,
			udi_cdc_rx_buf[port][buf_sel_trans],
    38ea:	a8 01       	movw	r20, r16
    38ec:	00 24       	eor	r0, r0
    38ee:	56 95       	lsr	r21
    38f0:	47 95       	ror	r20
    38f2:	07 94       	ror	r0
    38f4:	56 95       	lsr	r21
    38f6:	47 95       	ror	r20
    38f8:	07 94       	ror	r0
    38fa:	54 2f       	mov	r21, r20
    38fc:	40 2d       	mov	r20, r0
    38fe:	40 5b       	subi	r20, 0xB0	; 176
    3900:	5b 4d       	sbci	r21, 0xDB	; 219
#undef UDI_CDC_PORT_TO_DATA_EP_OUT
	default:
		ep = UDI_CDC_DATA_EP_OUT_0;
		break;
	}
	return udd_ep_run(ep,
    3902:	03 ec       	ldi	r16, 0xC3	; 195
    3904:	1c e1       	ldi	r17, 0x1C	; 28
    3906:	20 e4       	ldi	r18, 0x40	; 64
    3908:	30 e0       	ldi	r19, 0x00	; 0
    390a:	61 e0       	ldi	r22, 0x01	; 1
    390c:	82 e0       	ldi	r24, 0x02	; 2
    390e:	0e 94 34 28 	call	0x5068	; 0x5068 <udd_ep_run>
			true,
			udi_cdc_rx_buf[port][buf_sel_trans],
			UDI_CDC_RX_BUFFERS,
			udi_cdc_data_received);
}
    3912:	0f 90       	pop	r0
    3914:	df 91       	pop	r29
    3916:	cf 91       	pop	r28
    3918:	1f 91       	pop	r17
    391a:	0f 91       	pop	r16
    391c:	08 95       	ret

0000391e <udi_cdc_data_enable>:
{
	uint8_t port;

#if UDI_CDC_PORT_NB == 1 // To optimize code
	port = 0;
	udi_cdc_nb_data_enabled = 0;
    391e:	10 92 d1 24 	sts	0x24D1, r1	; 0x8024d1 <udi_cdc_nb_data_enabled>
	}
	port = udi_cdc_nb_data_enabled;
#endif

	// Initialize TX management
	udi_cdc_tx_trans_ongoing[port] = false;
    3922:	10 92 bf 23 	sts	0x23BF, r1	; 0x8023bf <udi_cdc_tx_trans_ongoing>
	udi_cdc_tx_both_buf_to_send[port] = false;
    3926:	10 92 be 23 	sts	0x23BE, r1	; 0x8023be <udi_cdc_tx_both_buf_to_send>
	udi_cdc_tx_buf_sel[port] = 0;
    392a:	10 92 c2 23 	sts	0x23C2, r1	; 0x8023c2 <udi_cdc_tx_buf_sel>
	udi_cdc_tx_buf_nb[port][0] = 0;
    392e:	e3 ec       	ldi	r30, 0xC3	; 195
    3930:	f3 e2       	ldi	r31, 0x23	; 35
    3932:	10 82       	st	Z, r1
    3934:	11 82       	std	Z+1, r1	; 0x01
	udi_cdc_tx_buf_nb[port][1] = 0;
    3936:	12 82       	std	Z+2, r1	; 0x02
    3938:	13 82       	std	Z+3, r1	; 0x03
	udi_cdc_tx_sof_num[port] = 0;
    393a:	10 92 c0 23 	sts	0x23C0, r1	; 0x8023c0 <udi_cdc_tx_sof_num>
    393e:	10 92 c1 23 	sts	0x23C1, r1	; 0x8023c1 <udi_cdc_tx_sof_num+0x1>
	udi_cdc_tx_send(port);
    3942:	80 e0       	ldi	r24, 0x00	; 0
    3944:	0e 94 a0 1a 	call	0x3540	; 0x3540 <udi_cdc_tx_send>

	// Initialize RX management
	udi_cdc_rx_trans_ongoing[port] = false;
    3948:	10 92 48 24 	sts	0x2448, r1	; 0x802448 <udi_cdc_rx_trans_ongoing>
	udi_cdc_rx_buf_sel[port] = 0;
    394c:	10 92 4b 24 	sts	0x244B, r1	; 0x80244b <udi_cdc_rx_buf_sel>
	udi_cdc_rx_buf_nb[port][0] = 0;
    3950:	ec e4       	ldi	r30, 0x4C	; 76
    3952:	f4 e2       	ldi	r31, 0x24	; 36
    3954:	10 82       	st	Z, r1
    3956:	11 82       	std	Z+1, r1	; 0x01
	udi_cdc_rx_buf_nb[port][1] = 0;
    3958:	12 82       	std	Z+2, r1	; 0x02
    395a:	13 82       	std	Z+3, r1	; 0x03
	udi_cdc_rx_pos[port] = 0;
    395c:	10 92 49 24 	sts	0x2449, r1	; 0x802449 <udi_cdc_rx_pos>
    3960:	10 92 4a 24 	sts	0x244A, r1	; 0x80244a <udi_cdc_rx_pos+0x1>
	if (!udi_cdc_rx_start(port)) {
    3964:	80 e0       	ldi	r24, 0x00	; 0
    3966:	0e 94 41 1c 	call	0x3882	; 0x3882 <udi_cdc_rx_start>
    396a:	88 23       	and	r24, r24
    396c:	59 f0       	breq	.+22     	; 0x3984 <udi_cdc_data_enable+0x66>
		return false;
	}
	udi_cdc_nb_data_enabled++;
    396e:	90 91 d1 24 	lds	r25, 0x24D1	; 0x8024d1 <udi_cdc_nb_data_enabled>
    3972:	9f 5f       	subi	r25, 0xFF	; 255
    3974:	90 93 d1 24 	sts	0x24D1, r25	; 0x8024d1 <udi_cdc_nb_data_enabled>
	if (udi_cdc_nb_data_enabled == UDI_CDC_PORT_NB) {
    3978:	90 91 d1 24 	lds	r25, 0x24D1	; 0x8024d1 <udi_cdc_nb_data_enabled>
    397c:	91 30       	cpi	r25, 0x01	; 1
    397e:	11 f4       	brne	.+4      	; 0x3984 <udi_cdc_data_enable+0x66>
		udi_cdc_data_running = true;
    3980:	90 93 d0 24 	sts	0x24D0, r25	; 0x8024d0 <udi_cdc_data_running>
	}
	return true;
}
    3984:	08 95       	ret

00003986 <udi_cdc_data_received>:
			udi_cdc_data_received);
}


static void udi_cdc_data_received(udd_ep_status_t status, iram_size_t n, udd_ep_id_t ep)
{
    3986:	0f 93       	push	r16
    3988:	1f 93       	push	r17
	default:
		port = 0;
		break;
	}

	if (UDD_EP_TRANSFER_OK != status) {
    398a:	81 11       	cpse	r24, r1
    398c:	2a c0       	rjmp	.+84     	; 0x39e2 <udi_cdc_data_received+0x5c>
		// Abort reception
		return;
	}
	buf_sel_trans = (udi_cdc_rx_buf_sel[port]==0)?1:0;
    398e:	80 91 4b 24 	lds	r24, 0x244B	; 0x80244b <udi_cdc_rx_buf_sel>
    3992:	e1 e0       	ldi	r30, 0x01	; 1
    3994:	81 11       	cpse	r24, r1
    3996:	e0 e0       	ldi	r30, 0x00	; 0
    3998:	84 2f       	mov	r24, r20
	if (!n) {
    399a:	61 15       	cp	r22, r1
    399c:	71 05       	cpc	r23, r1
    399e:	a9 f4       	brne	.+42     	; 0x39ca <udi_cdc_data_received+0x44>
		udd_ep_run( ep,
				true,
				udi_cdc_rx_buf[port][buf_sel_trans],
    39a0:	4e 2f       	mov	r20, r30
    39a2:	50 e0       	ldi	r21, 0x00	; 0
    39a4:	00 24       	eor	r0, r0
    39a6:	56 95       	lsr	r21
    39a8:	47 95       	ror	r20
    39aa:	07 94       	ror	r0
    39ac:	56 95       	lsr	r21
    39ae:	47 95       	ror	r20
    39b0:	07 94       	ror	r0
    39b2:	54 2f       	mov	r21, r20
    39b4:	40 2d       	mov	r20, r0
    39b6:	40 5b       	subi	r20, 0xB0	; 176
    39b8:	5b 4d       	sbci	r21, 0xDB	; 219
		// Abort reception
		return;
	}
	buf_sel_trans = (udi_cdc_rx_buf_sel[port]==0)?1:0;
	if (!n) {
		udd_ep_run( ep,
    39ba:	03 ec       	ldi	r16, 0xC3	; 195
    39bc:	1c e1       	ldi	r17, 0x1C	; 28
    39be:	20 e4       	ldi	r18, 0x40	; 64
    39c0:	30 e0       	ldi	r19, 0x00	; 0
    39c2:	61 e0       	ldi	r22, 0x01	; 1
    39c4:	0e 94 34 28 	call	0x5068	; 0x5068 <udd_ep_run>
				true,
				udi_cdc_rx_buf[port][buf_sel_trans],
				UDI_CDC_RX_BUFFERS,
				udi_cdc_data_received);
		return;
    39c8:	0c c0       	rjmp	.+24     	; 0x39e2 <udi_cdc_data_received+0x5c>
	}
	udi_cdc_rx_buf_nb[port][buf_sel_trans] = n;
    39ca:	f0 e0       	ldi	r31, 0x00	; 0
    39cc:	ee 0f       	add	r30, r30
    39ce:	ff 1f       	adc	r31, r31
    39d0:	e4 5b       	subi	r30, 0xB4	; 180
    39d2:	fb 4d       	sbci	r31, 0xDB	; 219
    39d4:	60 83       	st	Z, r22
    39d6:	71 83       	std	Z+1, r23	; 0x01
	udi_cdc_rx_trans_ongoing[port] = false;
    39d8:	10 92 48 24 	sts	0x2448, r1	; 0x802448 <udi_cdc_rx_trans_ongoing>
	udi_cdc_rx_start(port);
    39dc:	80 e0       	ldi	r24, 0x00	; 0
    39de:	0e 94 41 1c 	call	0x3882	; 0x3882 <udi_cdc_rx_start>
}
    39e2:	1f 91       	pop	r17
    39e4:	0f 91       	pop	r16
    39e6:	08 95       	ret

000039e8 <udi_cdc_is_rx_ready>:
	return (udi_cdc_multi_get_nb_received_data(port) > 0);
}

bool udi_cdc_is_rx_ready(void)
{
	return udi_cdc_multi_is_rx_ready(0);
    39e8:	80 e0       	ldi	r24, 0x00	; 0
    39ea:	0e 94 39 1c 	call	0x3872	; 0x3872 <udi_cdc_multi_is_rx_ready>
}
    39ee:	08 95       	ret

000039f0 <udi_cdc_multi_getc>:

int udi_cdc_multi_getc(uint8_t port)
{
    39f0:	ef 92       	push	r14
    39f2:	ff 92       	push	r15
    39f4:	1f 93       	push	r17
    39f6:	cf 93       	push	r28
    39f8:	df 93       	push	r29
    39fa:	1f 92       	push	r1
    39fc:	cd b7       	in	r28, 0x3d	; 61
    39fe:	de b7       	in	r29, 0x3e	; 62

#if UDI_CDC_PORT_NB == 1 // To optimize code
	port = 0;
#endif

	b_databit_9 = (9 == udi_cdc_line_coding[port].bDataBits);
    3a00:	11 e0       	ldi	r17, 0x01	; 1
    3a02:	80 91 e8 24 	lds	r24, 0x24E8	; 0x8024e8 <udi_cdc_line_coding+0x6>
    3a06:	89 30       	cpi	r24, 0x09	; 9
    3a08:	09 f0       	breq	.+2      	; 0x3a0c <udi_cdc_multi_getc+0x1c>
    3a0a:	10 e0       	ldi	r17, 0x00	; 0
}

int udi_cdc_multi_getc(uint8_t port)
{
	irqflags_t flags;
	int rx_data = 0;
    3a0c:	40 e0       	ldi	r20, 0x00	; 0
    3a0e:	50 e0       	ldi	r21, 0x00	; 0

typedef uint8_t irqflags_t;

static inline irqflags_t cpu_irq_save(void)
{
	volatile irqflags_t flags = SREG;
    3a10:	8f b7       	in	r24, 0x3f	; 63
    3a12:	89 83       	std	Y+1, r24	; 0x01
	cpu_irq_disable();
    3a14:	f8 94       	cli
	return flags;
    3a16:	a9 81       	ldd	r26, Y+1	; 0x01
	b_databit_9 = (9 == udi_cdc_line_coding[port].bDataBits);

udi_cdc_getc_process_one_byte:
	// Check available data
	flags = cpu_irq_save();
	pos = udi_cdc_rx_pos[port];
    3a18:	20 91 49 24 	lds	r18, 0x2449	; 0x802449 <udi_cdc_rx_pos>
    3a1c:	30 91 4a 24 	lds	r19, 0x244A	; 0x80244a <udi_cdc_rx_pos+0x1>
	buf_sel = udi_cdc_rx_buf_sel[port];
    3a20:	80 91 4b 24 	lds	r24, 0x244B	; 0x80244b <udi_cdc_rx_buf_sel>
	again = pos >= udi_cdc_rx_buf_nb[port][buf_sel];
    3a24:	90 e0       	ldi	r25, 0x00	; 0
    3a26:	fc 01       	movw	r30, r24
    3a28:	ee 0f       	add	r30, r30
    3a2a:	ff 1f       	adc	r31, r31
    3a2c:	e4 5b       	subi	r30, 0xB4	; 180
    3a2e:	fb 4d       	sbci	r31, 0xDB	; 219
    3a30:	60 81       	ld	r22, Z
    3a32:	71 81       	ldd	r23, Z+1	; 0x01
}

static inline void cpu_irq_restore(irqflags_t flags)
{
	barrier();
	SREG = flags;
    3a34:	af bf       	out	0x3f, r26	; 63
	cpu_irq_restore(flags);
	while (again) {
    3a36:	26 17       	cp	r18, r22
    3a38:	37 07       	cpc	r19, r23
    3a3a:	30 f0       	brcs	.+12     	; 0x3a48 <udi_cdc_multi_getc+0x58>
		if (!udi_cdc_data_running) {
    3a3c:	80 91 d0 24 	lds	r24, 0x24D0	; 0x8024d0 <udi_cdc_data_running>
    3a40:	81 11       	cpse	r24, r1
    3a42:	e6 cf       	rjmp	.-52     	; 0x3a10 <udi_cdc_multi_getc+0x20>
			return 0;
    3a44:	90 e0       	ldi	r25, 0x00	; 0
    3a46:	22 c0       	rjmp	.+68     	; 0x3a8c <udi_cdc_multi_getc+0x9c>
		}
		goto udi_cdc_getc_process_one_byte;
	}

	// Read data
	rx_data |= udi_cdc_rx_buf[port][buf_sel][pos];
    3a48:	fc 01       	movw	r30, r24
    3a4a:	00 24       	eor	r0, r0
    3a4c:	f6 95       	lsr	r31
    3a4e:	e7 95       	ror	r30
    3a50:	07 94       	ror	r0
    3a52:	f6 95       	lsr	r31
    3a54:	e7 95       	ror	r30
    3a56:	07 94       	ror	r0
    3a58:	fe 2f       	mov	r31, r30
    3a5a:	e0 2d       	mov	r30, r0
    3a5c:	e0 5b       	subi	r30, 0xB0	; 176
    3a5e:	fb 4d       	sbci	r31, 0xDB	; 219
    3a60:	e2 0f       	add	r30, r18
    3a62:	f3 1f       	adc	r31, r19
    3a64:	80 81       	ld	r24, Z
    3a66:	7a 01       	movw	r14, r20
    3a68:	e8 2a       	or	r14, r24
	udi_cdc_rx_pos[port] = pos+1;
    3a6a:	2f 5f       	subi	r18, 0xFF	; 255
    3a6c:	3f 4f       	sbci	r19, 0xFF	; 255
    3a6e:	20 93 49 24 	sts	0x2449, r18	; 0x802449 <udi_cdc_rx_pos>
    3a72:	30 93 4a 24 	sts	0x244A, r19	; 0x80244a <udi_cdc_rx_pos+0x1>

	udi_cdc_rx_start(port);
    3a76:	80 e0       	ldi	r24, 0x00	; 0
    3a78:	0e 94 41 1c 	call	0x3882	; 0x3882 <udi_cdc_rx_start>

	if (b_databit_9) {
    3a7c:	11 23       	and	r17, r17
    3a7e:	21 f0       	breq	.+8      	; 0x3a88 <udi_cdc_multi_getc+0x98>
		// Receive MSB
		b_databit_9 = false;
		rx_data = rx_data << 8;
    3a80:	5e 2d       	mov	r21, r14
    3a82:	44 27       	eor	r20, r20

	udi_cdc_rx_start(port);

	if (b_databit_9) {
		// Receive MSB
		b_databit_9 = false;
    3a84:	10 e0       	ldi	r17, 0x00	; 0
		rx_data = rx_data << 8;
		goto udi_cdc_getc_process_one_byte;
    3a86:	c4 cf       	rjmp	.-120    	; 0x3a10 <udi_cdc_multi_getc+0x20>
		}
		goto udi_cdc_getc_process_one_byte;
	}

	// Read data
	rx_data |= udi_cdc_rx_buf[port][buf_sel][pos];
    3a88:	8e 2d       	mov	r24, r14
    3a8a:	9f 2d       	mov	r25, r15
		b_databit_9 = false;
		rx_data = rx_data << 8;
		goto udi_cdc_getc_process_one_byte;
	}
	return rx_data;
}
    3a8c:	0f 90       	pop	r0
    3a8e:	df 91       	pop	r29
    3a90:	cf 91       	pop	r28
    3a92:	1f 91       	pop	r17
    3a94:	ff 90       	pop	r15
    3a96:	ef 90       	pop	r14
    3a98:	08 95       	ret

00003a9a <udi_cdc_getc>:

int udi_cdc_getc(void)
{
	return udi_cdc_multi_getc(0);
    3a9a:	80 e0       	ldi	r24, 0x00	; 0
    3a9c:	0e 94 f8 1c 	call	0x39f0	; 0x39f0 <udi_cdc_multi_getc>
}
    3aa0:	08 95       	ret

00003aa2 <udi_cdc_multi_read_buf>:

iram_size_t udi_cdc_multi_read_buf(uint8_t port, void* buf, iram_size_t size)
{
    3aa2:	cf 92       	push	r12
    3aa4:	df 92       	push	r13
    3aa6:	ef 92       	push	r14
    3aa8:	ff 92       	push	r15
    3aaa:	0f 93       	push	r16
    3aac:	1f 93       	push	r17
    3aae:	cf 93       	push	r28
    3ab0:	df 93       	push	r29
    3ab2:	1f 92       	push	r1
    3ab4:	cd b7       	in	r28, 0x3d	; 61
    3ab6:	de b7       	in	r29, 0x3e	; 62
    3ab8:	6b 01       	movw	r12, r22
    3aba:	7a 01       	movw	r14, r20

typedef uint8_t irqflags_t;

static inline irqflags_t cpu_irq_save(void)
{
	volatile irqflags_t flags = SREG;
    3abc:	8f b7       	in	r24, 0x3f	; 63
    3abe:	89 83       	std	Y+1, r24	; 0x01
	cpu_irq_disable();
    3ac0:	f8 94       	cli
	return flags;
    3ac2:	49 81       	ldd	r20, Y+1	; 0x01
#endif

udi_cdc_read_buf_loop_wait:
	// Check available data
	flags = cpu_irq_save();
	pos = udi_cdc_rx_pos[port];
    3ac4:	60 91 49 24 	lds	r22, 0x2449	; 0x802449 <udi_cdc_rx_pos>
    3ac8:	70 91 4a 24 	lds	r23, 0x244A	; 0x80244a <udi_cdc_rx_pos+0x1>
	buf_sel = udi_cdc_rx_buf_sel[port];
    3acc:	80 91 4b 24 	lds	r24, 0x244B	; 0x80244b <udi_cdc_rx_buf_sel>
	again = pos >= udi_cdc_rx_buf_nb[port][buf_sel];
    3ad0:	90 e0       	ldi	r25, 0x00	; 0
    3ad2:	fc 01       	movw	r30, r24
    3ad4:	ee 0f       	add	r30, r30
    3ad6:	ff 1f       	adc	r31, r31
    3ad8:	e4 5b       	subi	r30, 0xB4	; 180
    3ada:	fb 4d       	sbci	r31, 0xDB	; 219
    3adc:	20 81       	ld	r18, Z
    3ade:	31 81       	ldd	r19, Z+1	; 0x01
}

static inline void cpu_irq_restore(irqflags_t flags)
{
	barrier();
	SREG = flags;
    3ae0:	4f bf       	out	0x3f, r20	; 63
	cpu_irq_restore(flags);
	while (again) {
    3ae2:	62 17       	cp	r22, r18
    3ae4:	73 07       	cpc	r23, r19
    3ae6:	38 f0       	brcs	.+14     	; 0x3af6 <udi_cdc_multi_read_buf+0x54>
		if (!udi_cdc_data_running) {
    3ae8:	80 91 d0 24 	lds	r24, 0x24D0	; 0x8024d0 <udi_cdc_data_running>
    3aec:	81 11       	cpse	r24, r1
    3aee:	e6 cf       	rjmp	.-52     	; 0x3abc <udi_cdc_multi_read_buf+0x1a>
    3af0:	8e 2d       	mov	r24, r14
    3af2:	9f 2d       	mov	r25, r15
    3af4:	36 c0       	rjmp	.+108    	; 0x3b62 <udi_cdc_multi_read_buf+0xc0>
		}
		goto udi_cdc_read_buf_loop_wait;
	}

	// Read data
	copy_nb = udi_cdc_rx_buf_nb[port][buf_sel] - pos;
    3af6:	fc 01       	movw	r30, r24
    3af8:	ee 0f       	add	r30, r30
    3afa:	ff 1f       	adc	r31, r31
    3afc:	e4 5b       	subi	r30, 0xB4	; 180
    3afe:	fb 4d       	sbci	r31, 0xDB	; 219
    3b00:	20 81       	ld	r18, Z
    3b02:	31 81       	ldd	r19, Z+1	; 0x01
    3b04:	26 1b       	sub	r18, r22
    3b06:	37 0b       	sbc	r19, r23
    3b08:	87 01       	movw	r16, r14
    3b0a:	2e 15       	cp	r18, r14
    3b0c:	3f 05       	cpc	r19, r15
    3b0e:	08 f4       	brcc	.+2      	; 0x3b12 <udi_cdc_multi_read_buf+0x70>
    3b10:	89 01       	movw	r16, r18
	if (copy_nb>size) {
		copy_nb = size;
	}
	memcpy(ptr_buf, &udi_cdc_rx_buf[port][buf_sel][pos], copy_nb);
    3b12:	00 24       	eor	r0, r0
    3b14:	96 95       	lsr	r25
    3b16:	87 95       	ror	r24
    3b18:	07 94       	ror	r0
    3b1a:	96 95       	lsr	r25
    3b1c:	87 95       	ror	r24
    3b1e:	07 94       	ror	r0
    3b20:	98 2f       	mov	r25, r24
    3b22:	80 2d       	mov	r24, r0
    3b24:	68 0f       	add	r22, r24
    3b26:	79 1f       	adc	r23, r25
    3b28:	60 5b       	subi	r22, 0xB0	; 176
    3b2a:	7b 4d       	sbci	r23, 0xDB	; 219
    3b2c:	a8 01       	movw	r20, r16
    3b2e:	c6 01       	movw	r24, r12
    3b30:	0e 94 11 31 	call	0x6222	; 0x6222 <memcpy>
	udi_cdc_rx_pos[port] += copy_nb;
    3b34:	80 91 49 24 	lds	r24, 0x2449	; 0x802449 <udi_cdc_rx_pos>
    3b38:	90 91 4a 24 	lds	r25, 0x244A	; 0x80244a <udi_cdc_rx_pos+0x1>
    3b3c:	80 0f       	add	r24, r16
    3b3e:	91 1f       	adc	r25, r17
    3b40:	80 93 49 24 	sts	0x2449, r24	; 0x802449 <udi_cdc_rx_pos>
    3b44:	90 93 4a 24 	sts	0x244A, r25	; 0x80244a <udi_cdc_rx_pos+0x1>
	ptr_buf += copy_nb;
    3b48:	c0 0e       	add	r12, r16
    3b4a:	d1 1e       	adc	r13, r17
	size -= copy_nb;
    3b4c:	e0 1a       	sub	r14, r16
    3b4e:	f1 0a       	sbc	r15, r17
	udi_cdc_rx_start(port);
    3b50:	80 e0       	ldi	r24, 0x00	; 0
    3b52:	0e 94 41 1c 	call	0x3882	; 0x3882 <udi_cdc_rx_start>

	if (size) {
    3b56:	e1 14       	cp	r14, r1
    3b58:	f1 04       	cpc	r15, r1
    3b5a:	09 f0       	breq	.+2      	; 0x3b5e <udi_cdc_multi_read_buf+0xbc>
    3b5c:	af cf       	rjmp	.-162    	; 0x3abc <udi_cdc_multi_read_buf+0x1a>
		goto udi_cdc_read_buf_loop_wait;
	}
	return 0;
    3b5e:	80 e0       	ldi	r24, 0x00	; 0
    3b60:	90 e0       	ldi	r25, 0x00	; 0
}
    3b62:	0f 90       	pop	r0
    3b64:	df 91       	pop	r29
    3b66:	cf 91       	pop	r28
    3b68:	1f 91       	pop	r17
    3b6a:	0f 91       	pop	r16
    3b6c:	ff 90       	pop	r15
    3b6e:	ef 90       	pop	r14
    3b70:	df 90       	pop	r13
    3b72:	cf 90       	pop	r12
    3b74:	08 95       	ret

00003b76 <udi_cdc_read_no_polling>:
	}
	return(nb_avail_data);
}

iram_size_t udi_cdc_read_no_polling(void* buf, iram_size_t size)
{
    3b76:	ef 92       	push	r14
    3b78:	ff 92       	push	r15
    3b7a:	0f 93       	push	r16
    3b7c:	1f 93       	push	r17
    3b7e:	cf 93       	push	r28
    3b80:	df 93       	push	r29
    3b82:	1f 92       	push	r1
    3b84:	1f 92       	push	r1
    3b86:	cd b7       	in	r28, 0x3d	; 61
    3b88:	de b7       	in	r29, 0x3e	; 62
    3b8a:	dc 01       	movw	r26, r24
#if UDI_CDC_PORT_NB == 1 // To optimize code
	port = 0;
#endif

	//Data interface not started... exit
	if (!udi_cdc_data_running) {
    3b8c:	90 91 d0 24 	lds	r25, 0x24D0	; 0x8024d0 <udi_cdc_data_running>
    3b90:	99 23       	and	r25, r25
    3b92:	09 f4       	brne	.+2      	; 0x3b96 <udi_cdc_read_no_polling+0x20>
    3b94:	45 c0       	rjmp	.+138    	; 0x3c20 <udi_cdc_read_no_polling+0xaa>

typedef uint8_t irqflags_t;

static inline irqflags_t cpu_irq_save(void)
{
	volatile irqflags_t flags = SREG;
    3b96:	8f b7       	in	r24, 0x3f	; 63
    3b98:	89 83       	std	Y+1, r24	; 0x01
	cpu_irq_disable();
    3b9a:	f8 94       	cli
	return flags;
    3b9c:	89 81       	ldd	r24, Y+1	; 0x01
	}
	
	//Get number of available data
	// Check available data
	flags = cpu_irq_save(); // to protect udi_cdc_rx_pos & udi_cdc_rx_buf_sel
	pos = udi_cdc_rx_pos[port];
    3b9e:	40 91 49 24 	lds	r20, 0x2449	; 0x802449 <udi_cdc_rx_pos>
    3ba2:	50 91 4a 24 	lds	r21, 0x244A	; 0x80244a <udi_cdc_rx_pos+0x1>
	buf_sel = udi_cdc_rx_buf_sel[port];
    3ba6:	20 91 4b 24 	lds	r18, 0x244B	; 0x80244b <udi_cdc_rx_buf_sel>
	nb_avail_data = udi_cdc_rx_buf_nb[port][buf_sel] - pos;
    3baa:	30 e0       	ldi	r19, 0x00	; 0
    3bac:	f9 01       	movw	r30, r18
    3bae:	ee 0f       	add	r30, r30
    3bb0:	ff 1f       	adc	r31, r31
    3bb2:	e4 5b       	subi	r30, 0xB4	; 180
    3bb4:	fb 4d       	sbci	r31, 0xDB	; 219
    3bb6:	e0 80       	ld	r14, Z
    3bb8:	f1 80       	ldd	r15, Z+1	; 0x01
    3bba:	e4 1a       	sub	r14, r20
    3bbc:	f5 0a       	sbc	r15, r21
}

static inline void cpu_irq_restore(irqflags_t flags)
{
	barrier();
	SREG = flags;
    3bbe:	8f bf       	out	0x3f, r24	; 63
    3bc0:	06 2f       	mov	r16, r22
    3bc2:	17 2f       	mov	r17, r23
    3bc4:	e0 16       	cp	r14, r16
    3bc6:	f1 06       	cpc	r15, r17
    3bc8:	08 f4       	brcc	.+2      	; 0x3bcc <udi_cdc_read_no_polling+0x56>
    3bca:	87 01       	movw	r16, r14
	//If the buffer contains less than the requested number of data,
	//adjust read size
	if(nb_avail_data<size) {
		size = nb_avail_data;
	}
	if(size>0) {
    3bcc:	01 15       	cp	r16, r1
    3bce:	11 05       	cpc	r17, r1
    3bd0:	51 f1       	breq	.+84     	; 0x3c26 <udi_cdc_read_no_polling+0xb0>
    3bd2:	cd 01       	movw	r24, r26
		memcpy(ptr_buf, &udi_cdc_rx_buf[port][buf_sel][pos], size);
    3bd4:	00 24       	eor	r0, r0
    3bd6:	36 95       	lsr	r19
    3bd8:	27 95       	ror	r18
    3bda:	07 94       	ror	r0
    3bdc:	36 95       	lsr	r19
    3bde:	27 95       	ror	r18
    3be0:	07 94       	ror	r0
    3be2:	32 2f       	mov	r19, r18
    3be4:	20 2d       	mov	r18, r0
    3be6:	b9 01       	movw	r22, r18
    3be8:	64 0f       	add	r22, r20
    3bea:	75 1f       	adc	r23, r21
    3bec:	60 5b       	subi	r22, 0xB0	; 176
    3bee:	7b 4d       	sbci	r23, 0xDB	; 219
    3bf0:	a8 01       	movw	r20, r16
    3bf2:	0e 94 11 31 	call	0x6222	; 0x6222 <memcpy>

typedef uint8_t irqflags_t;

static inline irqflags_t cpu_irq_save(void)
{
	volatile irqflags_t flags = SREG;
    3bf6:	8f b7       	in	r24, 0x3f	; 63
    3bf8:	8a 83       	std	Y+2, r24	; 0x02
	cpu_irq_disable();
    3bfa:	f8 94       	cli
	return flags;
    3bfc:	8a 81       	ldd	r24, Y+2	; 0x02
		flags = cpu_irq_save(); // to protect udi_cdc_rx_pos
		udi_cdc_rx_pos[port] += size;
    3bfe:	20 91 49 24 	lds	r18, 0x2449	; 0x802449 <udi_cdc_rx_pos>
    3c02:	30 91 4a 24 	lds	r19, 0x244A	; 0x80244a <udi_cdc_rx_pos+0x1>
    3c06:	02 0f       	add	r16, r18
    3c08:	13 1f       	adc	r17, r19
    3c0a:	00 93 49 24 	sts	0x2449, r16	; 0x802449 <udi_cdc_rx_pos>
    3c0e:	10 93 4a 24 	sts	0x244A, r17	; 0x80244a <udi_cdc_rx_pos+0x1>
}

static inline void cpu_irq_restore(irqflags_t flags)
{
	barrier();
	SREG = flags;
    3c12:	8f bf       	out	0x3f, r24	; 63
		cpu_irq_restore(flags);
		
		ptr_buf += size;
		udi_cdc_rx_start(port);
    3c14:	80 e0       	ldi	r24, 0x00	; 0
    3c16:	0e 94 41 1c 	call	0x3882	; 0x3882 <udi_cdc_rx_start>
	}
	return(nb_avail_data);
    3c1a:	8e 2d       	mov	r24, r14
    3c1c:	9f 2d       	mov	r25, r15
    3c1e:	05 c0       	rjmp	.+10     	; 0x3c2a <udi_cdc_read_no_polling+0xb4>
	port = 0;
#endif

	//Data interface not started... exit
	if (!udi_cdc_data_running) {
		return 0;
    3c20:	80 e0       	ldi	r24, 0x00	; 0
    3c22:	90 e0       	ldi	r25, 0x00	; 0
    3c24:	02 c0       	rjmp	.+4      	; 0x3c2a <udi_cdc_read_no_polling+0xb4>
		cpu_irq_restore(flags);
		
		ptr_buf += size;
		udi_cdc_rx_start(port);
	}
	return(nb_avail_data);
    3c26:	8e 2d       	mov	r24, r14
    3c28:	9f 2d       	mov	r25, r15
}

iram_size_t udi_cdc_read_no_polling(void* buf, iram_size_t size)
{
	return udi_cdc_multi_read_no_polling(0, buf, size);
}
    3c2a:	0f 90       	pop	r0
    3c2c:	0f 90       	pop	r0
    3c2e:	df 91       	pop	r29
    3c30:	cf 91       	pop	r28
    3c32:	1f 91       	pop	r17
    3c34:	0f 91       	pop	r16
    3c36:	ff 90       	pop	r15
    3c38:	ef 90       	pop	r14
    3c3a:	08 95       	ret

00003c3c <udi_cdc_read_buf>:

iram_size_t udi_cdc_read_buf(void* buf, iram_size_t size)
{
    3c3c:	ab 01       	movw	r20, r22
	return udi_cdc_multi_read_buf(0, buf, size);
    3c3e:	bc 01       	movw	r22, r24
    3c40:	80 e0       	ldi	r24, 0x00	; 0
    3c42:	0e 94 51 1d 	call	0x3aa2	; 0x3aa2 <udi_cdc_multi_read_buf>
}
    3c46:	08 95       	ret

00003c48 <udi_cdc_multi_get_free_tx_buffer>:

iram_size_t udi_cdc_multi_get_free_tx_buffer(uint8_t port)
{
    3c48:	cf 93       	push	r28
    3c4a:	df 93       	push	r29
    3c4c:	1f 92       	push	r1
    3c4e:	cd b7       	in	r28, 0x3d	; 61
    3c50:	de b7       	in	r29, 0x3e	; 62

typedef uint8_t irqflags_t;

static inline irqflags_t cpu_irq_save(void)
{
	volatile irqflags_t flags = SREG;
    3c52:	8f b7       	in	r24, 0x3f	; 63
    3c54:	89 83       	std	Y+1, r24	; 0x01
	cpu_irq_disable();
    3c56:	f8 94       	cli
	return flags;
    3c58:	99 81       	ldd	r25, Y+1	; 0x01
#if UDI_CDC_PORT_NB == 1 // To optimize code
	port = 0;
#endif

	flags = cpu_irq_save();
	buf_sel = udi_cdc_tx_buf_sel[port];
    3c5a:	80 91 c2 23 	lds	r24, 0x23C2	; 0x8023c2 <udi_cdc_tx_buf_sel>
	buf_sel_nb = udi_cdc_tx_buf_nb[port][buf_sel];
    3c5e:	e8 2f       	mov	r30, r24
    3c60:	f0 e0       	ldi	r31, 0x00	; 0
    3c62:	ee 0f       	add	r30, r30
    3c64:	ff 1f       	adc	r31, r31
    3c66:	ed 53       	subi	r30, 0x3D	; 61
    3c68:	fc 4d       	sbci	r31, 0xDC	; 220
    3c6a:	20 81       	ld	r18, Z
    3c6c:	31 81       	ldd	r19, Z+1	; 0x01
	if (buf_sel_nb == UDI_CDC_TX_BUFFERS) {
    3c6e:	20 34       	cpi	r18, 0x40	; 64
    3c70:	31 05       	cpc	r19, r1
    3c72:	89 f4       	brne	.+34     	; 0x3c96 <udi_cdc_multi_get_free_tx_buffer+0x4e>
		if ((!udi_cdc_tx_trans_ongoing[port])
    3c74:	40 91 bf 23 	lds	r20, 0x23BF	; 0x8023bf <udi_cdc_tx_trans_ongoing>
    3c78:	41 11       	cpse	r20, r1
    3c7a:	0d c0       	rjmp	.+26     	; 0x3c96 <udi_cdc_multi_get_free_tx_buffer+0x4e>
			&& (!udi_cdc_tx_both_buf_to_send[port])) {
    3c7c:	40 91 be 23 	lds	r20, 0x23BE	; 0x8023be <udi_cdc_tx_both_buf_to_send>
    3c80:	41 11       	cpse	r20, r1
    3c82:	09 c0       	rjmp	.+18     	; 0x3c96 <udi_cdc_multi_get_free_tx_buffer+0x4e>
			/* One buffer is full, but the other buffer is not used.
			 * (not used = transfer on-going)
			 * then move to the other buffer to store data */
			udi_cdc_tx_both_buf_to_send[port] = true;
    3c84:	21 e0       	ldi	r18, 0x01	; 1
    3c86:	20 93 be 23 	sts	0x23BE, r18	; 0x8023be <udi_cdc_tx_both_buf_to_send>
			udi_cdc_tx_buf_sel[port] = (buf_sel == 0)? 1 : 0;
    3c8a:	81 11       	cpse	r24, r1
    3c8c:	20 e0       	ldi	r18, 0x00	; 0
    3c8e:	20 93 c2 23 	sts	0x23C2, r18	; 0x8023c2 <udi_cdc_tx_buf_sel>
			buf_sel_nb = 0;
    3c92:	20 e0       	ldi	r18, 0x00	; 0
    3c94:	30 e0       	ldi	r19, 0x00	; 0
}

static inline void cpu_irq_restore(irqflags_t flags)
{
	barrier();
	SREG = flags;
    3c96:	9f bf       	out	0x3f, r25	; 63
		}
	}
	retval = UDI_CDC_TX_BUFFERS - buf_sel_nb;  
	cpu_irq_restore(flags);
	return retval;
}
    3c98:	80 e4       	ldi	r24, 0x40	; 64
    3c9a:	90 e0       	ldi	r25, 0x00	; 0
    3c9c:	82 1b       	sub	r24, r18
    3c9e:	93 0b       	sbc	r25, r19
    3ca0:	0f 90       	pop	r0
    3ca2:	df 91       	pop	r29
    3ca4:	cf 91       	pop	r28
    3ca6:	08 95       	ret

00003ca8 <udi_cdc_get_free_tx_buffer>:

iram_size_t udi_cdc_get_free_tx_buffer(void)
{
	return udi_cdc_multi_get_free_tx_buffer(0);
    3ca8:	80 e0       	ldi	r24, 0x00	; 0
    3caa:	0e 94 24 1e 	call	0x3c48	; 0x3c48 <udi_cdc_multi_get_free_tx_buffer>
}
    3cae:	08 95       	ret

00003cb0 <udi_cdc_multi_is_tx_ready>:

bool udi_cdc_multi_is_tx_ready(uint8_t port)
{
	return (udi_cdc_multi_get_free_tx_buffer(port) != 0);
    3cb0:	0e 94 24 1e 	call	0x3c48	; 0x3c48 <udi_cdc_multi_get_free_tx_buffer>
    3cb4:	21 e0       	ldi	r18, 0x01	; 1
    3cb6:	89 2b       	or	r24, r25
    3cb8:	09 f4       	brne	.+2      	; 0x3cbc <udi_cdc_multi_is_tx_ready+0xc>
    3cba:	20 e0       	ldi	r18, 0x00	; 0
}
    3cbc:	82 2f       	mov	r24, r18
    3cbe:	08 95       	ret

00003cc0 <udi_cdc_is_tx_ready>:

bool udi_cdc_is_tx_ready(void)
{
	return udi_cdc_multi_is_tx_ready(0);
    3cc0:	80 e0       	ldi	r24, 0x00	; 0
    3cc2:	0e 94 58 1e 	call	0x3cb0	; 0x3cb0 <udi_cdc_multi_is_tx_ready>
}
    3cc6:	08 95       	ret

00003cc8 <udi_cdc_multi_putc>:

int udi_cdc_multi_putc(uint8_t port, int value)
{
    3cc8:	ff 92       	push	r15
    3cca:	0f 93       	push	r16
    3ccc:	1f 93       	push	r17
    3cce:	cf 93       	push	r28
    3cd0:	df 93       	push	r29
    3cd2:	1f 92       	push	r1
    3cd4:	cd b7       	in	r28, 0x3d	; 61
    3cd6:	de b7       	in	r29, 0x3e	; 62
    3cd8:	f6 2e       	mov	r15, r22
    3cda:	17 2f       	mov	r17, r23

#if UDI_CDC_PORT_NB == 1 // To optimize code
	port = 0;
#endif

	b_databit_9 = (9 == udi_cdc_line_coding[port].bDataBits);
    3cdc:	01 e0       	ldi	r16, 0x01	; 1
    3cde:	80 91 e8 24 	lds	r24, 0x24E8	; 0x8024e8 <udi_cdc_line_coding+0x6>
    3ce2:	89 30       	cpi	r24, 0x09	; 9
    3ce4:	09 f0       	breq	.+2      	; 0x3ce8 <udi_cdc_multi_putc+0x20>
    3ce6:	00 e0       	ldi	r16, 0x00	; 0

udi_cdc_putc_process_one_byte:
	// Check available space
	if (!udi_cdc_multi_is_tx_ready(port)) {
    3ce8:	80 e0       	ldi	r24, 0x00	; 0
    3cea:	0e 94 58 1e 	call	0x3cb0	; 0x3cb0 <udi_cdc_multi_is_tx_ready>
    3cee:	81 11       	cpse	r24, r1
    3cf0:	07 c0       	rjmp	.+14     	; 0x3d00 <udi_cdc_multi_putc+0x38>
		if (!udi_cdc_data_running) {
    3cf2:	80 91 d0 24 	lds	r24, 0x24D0	; 0x8024d0 <udi_cdc_data_running>
    3cf6:	81 11       	cpse	r24, r1
    3cf8:	f7 cf       	rjmp	.-18     	; 0x3ce8 <udi_cdc_multi_putc+0x20>
			return false;
    3cfa:	80 e0       	ldi	r24, 0x00	; 0
    3cfc:	90 e0       	ldi	r25, 0x00	; 0
    3cfe:	2c c0       	rjmp	.+88     	; 0x3d58 <udi_cdc_multi_putc+0x90>

typedef uint8_t irqflags_t;

static inline irqflags_t cpu_irq_save(void)
{
	volatile irqflags_t flags = SREG;
    3d00:	8f b7       	in	r24, 0x3f	; 63
    3d02:	89 83       	std	Y+1, r24	; 0x01
	cpu_irq_disable();
    3d04:	f8 94       	cli
	return flags;
    3d06:	49 81       	ldd	r20, Y+1	; 0x01
		goto udi_cdc_putc_process_one_byte;
	}

	// Write value
	flags = cpu_irq_save();
	buf_sel = udi_cdc_tx_buf_sel[port];
    3d08:	80 91 c2 23 	lds	r24, 0x23C2	; 0x8023c2 <udi_cdc_tx_buf_sel>
	udi_cdc_tx_buf[port][buf_sel][udi_cdc_tx_buf_nb[port][buf_sel]++] = value;
    3d0c:	90 e0       	ldi	r25, 0x00	; 0
    3d0e:	fc 01       	movw	r30, r24
    3d10:	ee 0f       	add	r30, r30
    3d12:	ff 1f       	adc	r31, r31
    3d14:	ed 53       	subi	r30, 0x3D	; 61
    3d16:	fc 4d       	sbci	r31, 0xDC	; 220
    3d18:	20 81       	ld	r18, Z
    3d1a:	31 81       	ldd	r19, Z+1	; 0x01
    3d1c:	b9 01       	movw	r22, r18
    3d1e:	6f 5f       	subi	r22, 0xFF	; 255
    3d20:	7f 4f       	sbci	r23, 0xFF	; 255
    3d22:	60 83       	st	Z, r22
    3d24:	71 83       	std	Z+1, r23	; 0x01
    3d26:	00 24       	eor	r0, r0
    3d28:	96 95       	lsr	r25
    3d2a:	87 95       	ror	r24
    3d2c:	07 94       	ror	r0
    3d2e:	96 95       	lsr	r25
    3d30:	87 95       	ror	r24
    3d32:	07 94       	ror	r0
    3d34:	98 2f       	mov	r25, r24
    3d36:	80 2d       	mov	r24, r0
    3d38:	88 53       	subi	r24, 0x38	; 56
    3d3a:	9c 4d       	sbci	r25, 0xDC	; 220
    3d3c:	fc 01       	movw	r30, r24
    3d3e:	e2 0f       	add	r30, r18
    3d40:	f3 1f       	adc	r31, r19
    3d42:	f0 82       	st	Z, r15
}

static inline void cpu_irq_restore(irqflags_t flags)
{
	barrier();
	SREG = flags;
    3d44:	4f bf       	out	0x3f, r20	; 63
	cpu_irq_restore(flags);

	if (b_databit_9) {
    3d46:	00 23       	and	r16, r16
    3d48:	29 f0       	breq	.+10     	; 0x3d54 <udi_cdc_multi_putc+0x8c>
		// Send MSB
		b_databit_9 = false;
		value = value >> 8;
    3d4a:	f1 2e       	mov	r15, r17
    3d4c:	11 0f       	add	r17, r17
    3d4e:	11 0b       	sbc	r17, r17
	udi_cdc_tx_buf[port][buf_sel][udi_cdc_tx_buf_nb[port][buf_sel]++] = value;
	cpu_irq_restore(flags);

	if (b_databit_9) {
		// Send MSB
		b_databit_9 = false;
    3d50:	00 e0       	ldi	r16, 0x00	; 0
		value = value >> 8;
		goto udi_cdc_putc_process_one_byte;
    3d52:	ca cf       	rjmp	.-108    	; 0x3ce8 <udi_cdc_multi_putc+0x20>
	}
	return true;
    3d54:	81 e0       	ldi	r24, 0x01	; 1
    3d56:	90 e0       	ldi	r25, 0x00	; 0
}
    3d58:	0f 90       	pop	r0
    3d5a:	df 91       	pop	r29
    3d5c:	cf 91       	pop	r28
    3d5e:	1f 91       	pop	r17
    3d60:	0f 91       	pop	r16
    3d62:	ff 90       	pop	r15
    3d64:	08 95       	ret

00003d66 <udi_cdc_putc>:

int udi_cdc_putc(int value)
{
	return udi_cdc_multi_putc(0, value);
    3d66:	bc 01       	movw	r22, r24
    3d68:	80 e0       	ldi	r24, 0x00	; 0
    3d6a:	0e 94 64 1e 	call	0x3cc8	; 0x3cc8 <udi_cdc_multi_putc>
}
    3d6e:	08 95       	ret

00003d70 <udi_cdc_multi_write_buf>:

iram_size_t udi_cdc_multi_write_buf(uint8_t port, const void* buf, iram_size_t size)
{
    3d70:	5f 92       	push	r5
    3d72:	6f 92       	push	r6
    3d74:	7f 92       	push	r7
    3d76:	8f 92       	push	r8
    3d78:	9f 92       	push	r9
    3d7a:	af 92       	push	r10
    3d7c:	bf 92       	push	r11
    3d7e:	cf 92       	push	r12
    3d80:	df 92       	push	r13
    3d82:	ef 92       	push	r14
    3d84:	ff 92       	push	r15
    3d86:	0f 93       	push	r16
    3d88:	1f 93       	push	r17
    3d8a:	cf 93       	push	r28
    3d8c:	df 93       	push	r29
    3d8e:	1f 92       	push	r1
    3d90:	cd b7       	in	r28, 0x3d	; 61
    3d92:	de b7       	in	r29, 0x3e	; 62
    3d94:	4b 01       	movw	r8, r22
    3d96:	5a 01       	movw	r10, r20

#if UDI_CDC_PORT_NB == 1 // To optimize code
	port = 0;
#endif

	if (9 == udi_cdc_line_coding[port].bDataBits) {
    3d98:	80 91 e8 24 	lds	r24, 0x24E8	; 0x8024e8 <udi_cdc_line_coding+0x6>
    3d9c:	89 30       	cpi	r24, 0x09	; 9
    3d9e:	11 f4       	brne	.+4      	; 0x3da4 <udi_cdc_multi_write_buf+0x34>
		size *=2;
    3da0:	aa 0c       	add	r10, r10
    3da2:	bb 1c       	adc	r11, r11

	// Write values
	flags = cpu_irq_save();
	buf_sel = udi_cdc_tx_buf_sel[port];
	buf_nb = udi_cdc_tx_buf_nb[port][buf_sel];
	copy_nb = UDI_CDC_TX_BUFFERS - buf_nb;
    3da4:	68 94       	set
    3da6:	66 24       	eor	r6, r6
    3da8:	66 f8       	bld	r6, 6
    3daa:	71 2c       	mov	r7, r1
		size *=2;
	}

udi_cdc_write_buf_loop_wait:
	// Check available space
	if (!udi_cdc_multi_is_tx_ready(port)) {
    3dac:	80 e0       	ldi	r24, 0x00	; 0
    3dae:	0e 94 58 1e 	call	0x3cb0	; 0x3cb0 <udi_cdc_multi_is_tx_ready>
    3db2:	81 11       	cpse	r24, r1
    3db4:	07 c0       	rjmp	.+14     	; 0x3dc4 <udi_cdc_multi_write_buf+0x54>
		if (!udi_cdc_data_running) {
    3db6:	80 91 d0 24 	lds	r24, 0x24D0	; 0x8024d0 <udi_cdc_data_running>
    3dba:	81 11       	cpse	r24, r1
    3dbc:	f7 cf       	rjmp	.-18     	; 0x3dac <udi_cdc_multi_write_buf+0x3c>
    3dbe:	8a 2d       	mov	r24, r10
    3dc0:	9b 2d       	mov	r25, r11
    3dc2:	3a c0       	rjmp	.+116    	; 0x3e38 <udi_cdc_multi_write_buf+0xc8>

typedef uint8_t irqflags_t;

static inline irqflags_t cpu_irq_save(void)
{
	volatile irqflags_t flags = SREG;
    3dc4:	8f b7       	in	r24, 0x3f	; 63
    3dc6:	89 83       	std	Y+1, r24	; 0x01
	cpu_irq_disable();
    3dc8:	f8 94       	cli
	return flags;
    3dca:	59 80       	ldd	r5, Y+1	; 0x01
		goto udi_cdc_write_buf_loop_wait;
	}

	// Write values
	flags = cpu_irq_save();
	buf_sel = udi_cdc_tx_buf_sel[port];
    3dcc:	00 91 c2 23 	lds	r16, 0x23C2	; 0x8023c2 <udi_cdc_tx_buf_sel>
	buf_nb = udi_cdc_tx_buf_nb[port][buf_sel];
    3dd0:	10 e0       	ldi	r17, 0x00	; 0
    3dd2:	f8 01       	movw	r30, r16
    3dd4:	ee 0f       	add	r30, r30
    3dd6:	ff 1f       	adc	r31, r31
    3dd8:	ed 53       	subi	r30, 0x3D	; 61
    3dda:	fc 4d       	sbci	r31, 0xDC	; 220
    3ddc:	e0 80       	ld	r14, Z
    3dde:	f1 80       	ldd	r15, Z+1	; 0x01
	copy_nb = UDI_CDC_TX_BUFFERS - buf_nb;
    3de0:	c3 01       	movw	r24, r6
    3de2:	8e 19       	sub	r24, r14
    3de4:	9f 09       	sbc	r25, r15
    3de6:	65 01       	movw	r12, r10
    3de8:	8a 15       	cp	r24, r10
    3dea:	9b 05       	cpc	r25, r11
    3dec:	08 f4       	brcc	.+2      	; 0x3df0 <udi_cdc_multi_write_buf+0x80>
    3dee:	6c 01       	movw	r12, r24
	if (copy_nb > size) {
		copy_nb = size;
	}
	memcpy(&udi_cdc_tx_buf[port][buf_sel][buf_nb], ptr_buf, copy_nb);
    3df0:	c8 01       	movw	r24, r16
    3df2:	00 24       	eor	r0, r0
    3df4:	96 95       	lsr	r25
    3df6:	87 95       	ror	r24
    3df8:	07 94       	ror	r0
    3dfa:	96 95       	lsr	r25
    3dfc:	87 95       	ror	r24
    3dfe:	07 94       	ror	r0
    3e00:	98 2f       	mov	r25, r24
    3e02:	80 2d       	mov	r24, r0
    3e04:	8e 0d       	add	r24, r14
    3e06:	9f 1d       	adc	r25, r15
    3e08:	a6 01       	movw	r20, r12
    3e0a:	b4 01       	movw	r22, r8
    3e0c:	88 53       	subi	r24, 0x38	; 56
    3e0e:	9c 4d       	sbci	r25, 0xDC	; 220
    3e10:	0e 94 11 31 	call	0x6222	; 0x6222 <memcpy>
	udi_cdc_tx_buf_nb[port][buf_sel] = buf_nb + copy_nb;
    3e14:	00 0f       	add	r16, r16
    3e16:	11 1f       	adc	r17, r17
    3e18:	f8 01       	movw	r30, r16
    3e1a:	ed 53       	subi	r30, 0x3D	; 61
    3e1c:	fc 4d       	sbci	r31, 0xDC	; 220
    3e1e:	ec 0c       	add	r14, r12
    3e20:	fd 1c       	adc	r15, r13
    3e22:	e0 82       	st	Z, r14
    3e24:	f1 82       	std	Z+1, r15	; 0x01
}

static inline void cpu_irq_restore(irqflags_t flags)
{
	barrier();
	SREG = flags;
    3e26:	5f be       	out	0x3f, r5	; 63
	cpu_irq_restore(flags);

	// Update buffer pointer
	ptr_buf = ptr_buf + copy_nb;
    3e28:	8c 0c       	add	r8, r12
    3e2a:	9d 1c       	adc	r9, r13
	size -= copy_nb;
    3e2c:	ac 18       	sub	r10, r12
    3e2e:	bd 08       	sbc	r11, r13

	if (size) {
    3e30:	09 f0       	breq	.+2      	; 0x3e34 <udi_cdc_multi_write_buf+0xc4>
    3e32:	bc cf       	rjmp	.-136    	; 0x3dac <udi_cdc_multi_write_buf+0x3c>
		goto udi_cdc_write_buf_loop_wait;
	}

	return 0;
    3e34:	80 e0       	ldi	r24, 0x00	; 0
    3e36:	90 e0       	ldi	r25, 0x00	; 0
}
    3e38:	0f 90       	pop	r0
    3e3a:	df 91       	pop	r29
    3e3c:	cf 91       	pop	r28
    3e3e:	1f 91       	pop	r17
    3e40:	0f 91       	pop	r16
    3e42:	ff 90       	pop	r15
    3e44:	ef 90       	pop	r14
    3e46:	df 90       	pop	r13
    3e48:	cf 90       	pop	r12
    3e4a:	bf 90       	pop	r11
    3e4c:	af 90       	pop	r10
    3e4e:	9f 90       	pop	r9
    3e50:	8f 90       	pop	r8
    3e52:	7f 90       	pop	r7
    3e54:	6f 90       	pop	r6
    3e56:	5f 90       	pop	r5
    3e58:	08 95       	ret

00003e5a <udi_cdc_write_buf>:

iram_size_t udi_cdc_write_buf(const void* buf, iram_size_t size)
{
    3e5a:	ab 01       	movw	r20, r22
	return udi_cdc_multi_write_buf(0, buf, size);
    3e5c:	bc 01       	movw	r22, r24
    3e5e:	80 e0       	ldi	r24, 0x00	; 0
    3e60:	0e 94 b8 1e 	call	0x3d70	; 0x3d70 <udi_cdc_multi_write_buf>
}
    3e64:	08 95       	ret

00003e66 <udc_next_desc_in_iface>:
 */
static usb_conf_desc_t UDC_DESC_STORAGE *udc_get_eof_conf(void)
{
	return (UDC_DESC_STORAGE usb_conf_desc_t *) ((uint8_t *)
			udc_ptr_conf->desc +
			le16_to_cpu(udc_ptr_conf->desc->wTotalLength));
    3e66:	e0 91 ee 24 	lds	r30, 0x24EE	; 0x8024ee <udc_ptr_conf>
    3e6a:	f0 91 ef 24 	lds	r31, 0x24EF	; 0x8024ef <udc_ptr_conf+0x1>
    3e6e:	01 90       	ld	r0, Z+
    3e70:	f0 81       	ld	r31, Z
    3e72:	e0 2d       	mov	r30, r0
 *
 * \return address after the last byte of USB Configuration descriptor
 */
static usb_conf_desc_t UDC_DESC_STORAGE *udc_get_eof_conf(void)
{
	return (UDC_DESC_STORAGE usb_conf_desc_t *) ((uint8_t *)
    3e74:	22 81       	ldd	r18, Z+2	; 0x02
    3e76:	33 81       	ldd	r19, Z+3	; 0x03
    3e78:	2e 0f       	add	r18, r30
    3e7a:	3f 1f       	adc	r19, r31
{
	usb_conf_desc_t UDC_DESC_STORAGE *ptr_eof_desc;

	ptr_eof_desc = udc_get_eof_conf();
	// Go to next descriptor
	desc = (UDC_DESC_STORAGE usb_conf_desc_t *) ((uint8_t *) desc +
    3e7c:	fc 01       	movw	r30, r24
    3e7e:	40 81       	ld	r20, Z
    3e80:	e4 0f       	add	r30, r20
    3e82:	f1 1d       	adc	r31, r1
			desc->bLength);
	// Check the end of configuration descriptor
	while (ptr_eof_desc > desc) {
    3e84:	e2 17       	cp	r30, r18
    3e86:	f3 07       	cpc	r31, r19
    3e88:	a0 f4       	brcc	.+40     	; 0x3eb2 <udc_next_desc_in_iface+0x4c>
		// If new interface descriptor is found,
		// then it is the end of the current global interface descriptor
		if (USB_DT_INTERFACE == desc->bDescriptorType) {
    3e8a:	81 81       	ldd	r24, Z+1	; 0x01
    3e8c:	84 30       	cpi	r24, 0x04	; 4
    3e8e:	a1 f0       	breq	.+40     	; 0x3eb8 <udc_next_desc_in_iface+0x52>
			break; // End of global interface descriptor
		}
		if (desc_id == desc->bDescriptorType) {
    3e90:	86 13       	cpse	r24, r22
    3e92:	06 c0       	rjmp	.+12     	; 0x3ea0 <udc_next_desc_in_iface+0x3a>
    3e94:	14 c0       	rjmp	.+40     	; 0x3ebe <udc_next_desc_in_iface+0x58>
			desc->bLength);
	// Check the end of configuration descriptor
	while (ptr_eof_desc > desc) {
		// If new interface descriptor is found,
		// then it is the end of the current global interface descriptor
		if (USB_DT_INTERFACE == desc->bDescriptorType) {
    3e96:	81 81       	ldd	r24, Z+1	; 0x01
    3e98:	84 30       	cpi	r24, 0x04	; 4
    3e9a:	a1 f0       	breq	.+40     	; 0x3ec4 <udc_next_desc_in_iface+0x5e>
			break; // End of global interface descriptor
		}
		if (desc_id == desc->bDescriptorType) {
    3e9c:	86 17       	cp	r24, r22
    3e9e:	a9 f0       	breq	.+42     	; 0x3eca <udc_next_desc_in_iface+0x64>
			return desc; // Specific descriptor found
		}
		// Go to next descriptor
		desc = (UDC_DESC_STORAGE usb_conf_desc_t *) ((uint8_t *) desc +
    3ea0:	80 81       	ld	r24, Z
    3ea2:	e8 0f       	add	r30, r24
    3ea4:	f1 1d       	adc	r31, r1
	ptr_eof_desc = udc_get_eof_conf();
	// Go to next descriptor
	desc = (UDC_DESC_STORAGE usb_conf_desc_t *) ((uint8_t *) desc +
			desc->bLength);
	// Check the end of configuration descriptor
	while (ptr_eof_desc > desc) {
    3ea6:	e2 17       	cp	r30, r18
    3ea8:	f3 07       	cpc	r31, r19
    3eaa:	a8 f3       	brcs	.-22     	; 0x3e96 <udc_next_desc_in_iface+0x30>
		}
		// Go to next descriptor
		desc = (UDC_DESC_STORAGE usb_conf_desc_t *) ((uint8_t *) desc +
				desc->bLength);
	}
	return NULL; // No specific descriptor found
    3eac:	80 e0       	ldi	r24, 0x00	; 0
    3eae:	90 e0       	ldi	r25, 0x00	; 0
    3eb0:	08 95       	ret
    3eb2:	80 e0       	ldi	r24, 0x00	; 0
    3eb4:	90 e0       	ldi	r25, 0x00	; 0
    3eb6:	08 95       	ret
    3eb8:	80 e0       	ldi	r24, 0x00	; 0
    3eba:	90 e0       	ldi	r25, 0x00	; 0
    3ebc:	08 95       	ret
{
	usb_conf_desc_t UDC_DESC_STORAGE *ptr_eof_desc;

	ptr_eof_desc = udc_get_eof_conf();
	// Go to next descriptor
	desc = (UDC_DESC_STORAGE usb_conf_desc_t *) ((uint8_t *) desc +
    3ebe:	8e 2f       	mov	r24, r30
    3ec0:	9f 2f       	mov	r25, r31
    3ec2:	08 95       	ret
		}
		// Go to next descriptor
		desc = (UDC_DESC_STORAGE usb_conf_desc_t *) ((uint8_t *) desc +
				desc->bLength);
	}
	return NULL; // No specific descriptor found
    3ec4:	80 e0       	ldi	r24, 0x00	; 0
    3ec6:	90 e0       	ldi	r25, 0x00	; 0
    3ec8:	08 95       	ret
		}
		if (desc_id == desc->bDescriptorType) {
			return desc; // Specific descriptor found
		}
		// Go to next descriptor
		desc = (UDC_DESC_STORAGE usb_conf_desc_t *) ((uint8_t *) desc +
    3eca:	8e 2f       	mov	r24, r30
    3ecc:	9f 2f       	mov	r25, r31
				desc->bLength);
	}
	return NULL; // No specific descriptor found
}
    3ece:	08 95       	ret

00003ed0 <udc_valid_address>:
 * \brief Change the address of device
 * Callback called at the end of request set address
 */
static void udc_valid_address(void)
{
	udd_set_address(udd_g_ctrlreq.req.wValue & 0x7F);
    3ed0:	80 91 33 26 	lds	r24, 0x2633	; 0x802633 <udd_g_ctrlreq+0x2>
    3ed4:	8f 77       	andi	r24, 0x7F	; 127
    3ed6:	0e 94 20 27 	call	0x4e40	; 0x4e40 <udd_set_address>
    3eda:	08 95       	ret

00003edc <udc_update_iface_desc>:
 */
static bool udc_update_iface_desc(uint8_t iface_num, uint8_t setting_num)
{
	usb_conf_desc_t UDC_DESC_STORAGE *ptr_end_desc;

	if (0 == udc_num_configuration) {
    3edc:	90 91 f0 24 	lds	r25, 0x24F0	; 0x8024f0 <udc_num_configuration>
    3ee0:	99 23       	and	r25, r25
    3ee2:	81 f1       	breq	.+96     	; 0x3f44 <udc_update_iface_desc+0x68>
		return false;
	}

	if (iface_num >= udc_ptr_conf->desc->bNumInterfaces) {
    3ee4:	e0 91 ee 24 	lds	r30, 0x24EE	; 0x8024ee <udc_ptr_conf>
    3ee8:	f0 91 ef 24 	lds	r31, 0x24EF	; 0x8024ef <udc_ptr_conf+0x1>
    3eec:	01 90       	ld	r0, Z+
    3eee:	f0 81       	ld	r31, Z
    3ef0:	e0 2d       	mov	r30, r0
    3ef2:	94 81       	ldd	r25, Z+4	; 0x04
    3ef4:	89 17       	cp	r24, r25
    3ef6:	40 f5       	brcc	.+80     	; 0x3f48 <udc_update_iface_desc+0x6c>
		return false;
	}

	// Start at the beginning of configuration descriptor
	udc_ptr_iface = (UDC_DESC_STORAGE usb_iface_desc_t *)
    3ef8:	e0 93 ec 24 	sts	0x24EC, r30	; 0x8024ec <udc_ptr_iface>
    3efc:	f0 93 ed 24 	sts	0x24ED, r31	; 0x8024ed <udc_ptr_iface+0x1>
 *
 * \return address after the last byte of USB Configuration descriptor
 */
static usb_conf_desc_t UDC_DESC_STORAGE *udc_get_eof_conf(void)
{
	return (UDC_DESC_STORAGE usb_conf_desc_t *) ((uint8_t *)
    3f00:	22 81       	ldd	r18, Z+2	; 0x02
    3f02:	33 81       	ldd	r19, Z+3	; 0x03
    3f04:	2e 0f       	add	r18, r30
    3f06:	3f 1f       	adc	r19, r31
	udc_ptr_iface = (UDC_DESC_STORAGE usb_iface_desc_t *)
			udc_ptr_conf->desc;

	// Check the end of configuration descriptor
	ptr_end_desc = udc_get_eof_conf();
	while (ptr_end_desc >
    3f08:	e2 17       	cp	r30, r18
    3f0a:	f3 07       	cpc	r31, r19
    3f0c:	f8 f4       	brcc	.+62     	; 0x3f4c <udc_update_iface_desc+0x70>
			(UDC_DESC_STORAGE usb_conf_desc_t *) udc_ptr_iface) {
		if (USB_DT_INTERFACE == udc_ptr_iface->bDescriptorType) {
    3f0e:	91 81       	ldd	r25, Z+1	; 0x01
    3f10:	94 30       	cpi	r25, 0x04	; 4
    3f12:	61 f4       	brne	.+24     	; 0x3f2c <udc_update_iface_desc+0x50>
			// A interface descriptor is found
			// Check interface and alternate setting number
			if ((iface_num == udc_ptr_iface->bInterfaceNumber) &&
    3f14:	92 81       	ldd	r25, Z+2	; 0x02
    3f16:	89 13       	cpse	r24, r25
    3f18:	09 c0       	rjmp	.+18     	; 0x3f2c <udc_update_iface_desc+0x50>
    3f1a:	93 81       	ldd	r25, Z+3	; 0x03
    3f1c:	96 13       	cpse	r25, r22
    3f1e:	06 c0       	rjmp	.+12     	; 0x3f2c <udc_update_iface_desc+0x50>
    3f20:	e0 93 ec 24 	sts	0x24EC, r30	; 0x8024ec <udc_ptr_iface>
    3f24:	f0 93 ed 24 	sts	0x24ED, r31	; 0x8024ed <udc_ptr_iface+0x1>
					(setting_num ==
					udc_ptr_iface->bAlternateSetting)) {
				return true; // Interface found
    3f28:	81 e0       	ldi	r24, 0x01	; 1
    3f2a:	08 95       	ret
			}
		}
		// Go to next descriptor
		udc_ptr_iface = (UDC_DESC_STORAGE usb_iface_desc_t *) (
    3f2c:	90 81       	ld	r25, Z
    3f2e:	e9 0f       	add	r30, r25
    3f30:	f1 1d       	adc	r31, r1
	udc_ptr_iface = (UDC_DESC_STORAGE usb_iface_desc_t *)
			udc_ptr_conf->desc;

	// Check the end of configuration descriptor
	ptr_end_desc = udc_get_eof_conf();
	while (ptr_end_desc >
    3f32:	e2 17       	cp	r30, r18
    3f34:	f3 07       	cpc	r31, r19
    3f36:	58 f3       	brcs	.-42     	; 0x3f0e <udc_update_iface_desc+0x32>
    3f38:	e0 93 ec 24 	sts	0x24EC, r30	; 0x8024ec <udc_ptr_iface>
    3f3c:	f0 93 ed 24 	sts	0x24ED, r31	; 0x8024ed <udc_ptr_iface+0x1>
		// Go to next descriptor
		udc_ptr_iface = (UDC_DESC_STORAGE usb_iface_desc_t *) (
				(uint8_t *) udc_ptr_iface +
				udc_ptr_iface->bLength);
	}
	return false; // Interface not found
    3f40:	80 e0       	ldi	r24, 0x00	; 0
    3f42:	08 95       	ret
static bool udc_update_iface_desc(uint8_t iface_num, uint8_t setting_num)
{
	usb_conf_desc_t UDC_DESC_STORAGE *ptr_end_desc;

	if (0 == udc_num_configuration) {
		return false;
    3f44:	80 e0       	ldi	r24, 0x00	; 0
    3f46:	08 95       	ret
	}

	if (iface_num >= udc_ptr_conf->desc->bNumInterfaces) {
		return false;
    3f48:	80 e0       	ldi	r24, 0x00	; 0
    3f4a:	08 95       	ret
		// Go to next descriptor
		udc_ptr_iface = (UDC_DESC_STORAGE usb_iface_desc_t *) (
				(uint8_t *) udc_ptr_iface +
				udc_ptr_iface->bLength);
	}
	return false; // Interface not found
    3f4c:	80 e0       	ldi	r24, 0x00	; 0
}
    3f4e:	08 95       	ret

00003f50 <udc_iface_disable>:
 * \param iface_num     Interface number to disable
 *
 * \return 1 if it is done or 0 if interface is not found
 */
static bool udc_iface_disable(uint8_t iface_num)
{
    3f50:	ef 92       	push	r14
    3f52:	ff 92       	push	r15
    3f54:	1f 93       	push	r17
    3f56:	cf 93       	push	r28
    3f58:	df 93       	push	r29
    3f5a:	c8 2f       	mov	r28, r24
	udi_api_t UDC_DESC_STORAGE *udi_api;

	// Select first alternate setting of the interface
	// to update udc_ptr_iface before call iface->getsetting()
	if (!udc_update_iface_desc(iface_num, 0)) {
    3f5c:	60 e0       	ldi	r22, 0x00	; 0
    3f5e:	0e 94 6e 1f 	call	0x3edc	; 0x3edc <udc_update_iface_desc>
    3f62:	18 2f       	mov	r17, r24
    3f64:	88 23       	and	r24, r24
    3f66:	91 f1       	breq	.+100    	; 0x3fcc <udc_iface_disable+0x7c>
		return false;
	}

	// Select the interface with the current alternate setting
	udi_api = udc_ptr_conf->udi_apis[iface_num];
    3f68:	a0 91 ee 24 	lds	r26, 0x24EE	; 0x8024ee <udc_ptr_conf>
    3f6c:	b0 91 ef 24 	lds	r27, 0x24EF	; 0x8024ef <udc_ptr_conf+0x1>
    3f70:	ec 2f       	mov	r30, r28
    3f72:	f0 e0       	ldi	r31, 0x00	; 0
    3f74:	ee 0f       	add	r30, r30
    3f76:	ff 1f       	adc	r31, r31
    3f78:	12 96       	adiw	r26, 0x02	; 2
    3f7a:	8d 91       	ld	r24, X+
    3f7c:	9c 91       	ld	r25, X
    3f7e:	13 97       	sbiw	r26, 0x03	; 3
    3f80:	e8 0f       	add	r30, r24
    3f82:	f9 1f       	adc	r31, r25
    3f84:	e0 80       	ld	r14, Z
    3f86:	f1 80       	ldd	r15, Z+1	; 0x01

#if (0!=USB_DEVICE_MAX_EP)
	if (!udc_update_iface_desc(iface_num, udi_api->getsetting())) {
    3f88:	d7 01       	movw	r26, r14
    3f8a:	16 96       	adiw	r26, 0x06	; 6
    3f8c:	ed 91       	ld	r30, X+
    3f8e:	fc 91       	ld	r31, X
    3f90:	17 97       	sbiw	r26, 0x07	; 7
    3f92:	19 95       	eicall
    3f94:	68 2f       	mov	r22, r24
    3f96:	8c 2f       	mov	r24, r28
    3f98:	0e 94 6e 1f 	call	0x3edc	; 0x3edc <udc_update_iface_desc>
    3f9c:	18 2f       	mov	r17, r24
    3f9e:	88 23       	and	r24, r24
    3fa0:	a9 f0       	breq	.+42     	; 0x3fcc <udc_iface_disable+0x7c>
	}

	// Start at the beginning of interface descriptor
	{
		usb_ep_desc_t UDC_DESC_STORAGE *ep_desc;
		ep_desc = (UDC_DESC_STORAGE usb_ep_desc_t *) udc_ptr_iface;
    3fa2:	c0 91 ec 24 	lds	r28, 0x24EC	; 0x8024ec <udc_ptr_iface>
    3fa6:	d0 91 ed 24 	lds	r29, 0x24ED	; 0x8024ed <udc_ptr_iface+0x1>
		while (1) {
			// Search Endpoint descriptor included in global interface descriptor
			ep_desc = (UDC_DESC_STORAGE usb_ep_desc_t *)
    3faa:	65 e0       	ldi	r22, 0x05	; 5
    3fac:	ce 01       	movw	r24, r28
    3fae:	0e 94 33 1f 	call	0x3e66	; 0x3e66 <udc_next_desc_in_iface>
    3fb2:	ec 01       	movw	r28, r24
					udc_next_desc_in_iface((UDC_DESC_STORAGE
					usb_conf_desc_t *)
					ep_desc, USB_DT_ENDPOINT);
			if (NULL == ep_desc) {
    3fb4:	89 2b       	or	r24, r25
    3fb6:	21 f0       	breq	.+8      	; 0x3fc0 <udc_iface_disable+0x70>
				break;
			}
			// Free the endpoint used by the interface
			udd_ep_free(ep_desc->bEndpointAddress);
    3fb8:	8a 81       	ldd	r24, Y+2	; 0x02
    3fba:	0e 94 52 29 	call	0x52a4	; 0x52a4 <udd_ep_free>
		}
    3fbe:	f5 cf       	rjmp	.-22     	; 0x3faa <udc_iface_disable+0x5a>
	}
#endif

	// Disable interface
	udi_api->disable();
    3fc0:	d7 01       	movw	r26, r14
    3fc2:	12 96       	adiw	r26, 0x02	; 2
    3fc4:	ed 91       	ld	r30, X+
    3fc6:	fc 91       	ld	r31, X
    3fc8:	13 97       	sbiw	r26, 0x03	; 3
    3fca:	19 95       	eicall
	return true;
}
    3fcc:	81 2f       	mov	r24, r17
    3fce:	df 91       	pop	r29
    3fd0:	cf 91       	pop	r28
    3fd2:	1f 91       	pop	r17
    3fd4:	ff 90       	pop	r15
    3fd6:	ef 90       	pop	r14
    3fd8:	08 95       	ret

00003fda <udc_iface_enable>:
 * \param setting_num   Setting number to enable
 *
 * \return 1 if it is done or 0 if interface is not found
 */
static bool udc_iface_enable(uint8_t iface_num, uint8_t setting_num)
{
    3fda:	1f 93       	push	r17
    3fdc:	cf 93       	push	r28
    3fde:	df 93       	push	r29
    3fe0:	18 2f       	mov	r17, r24
	// Select the interface descriptor
	if (!udc_update_iface_desc(iface_num, setting_num)) {
    3fe2:	0e 94 6e 1f 	call	0x3edc	; 0x3edc <udc_update_iface_desc>
    3fe6:	88 23       	and	r24, r24
    3fe8:	49 f1       	breq	.+82     	; 0x403c <__stack+0x3d>

#if (0!=USB_DEVICE_MAX_EP)
	usb_ep_desc_t UDC_DESC_STORAGE *ep_desc;

	// Start at the beginning of the global interface descriptor
	ep_desc = (UDC_DESC_STORAGE usb_ep_desc_t *) udc_ptr_iface;
    3fea:	c0 91 ec 24 	lds	r28, 0x24EC	; 0x8024ec <udc_ptr_iface>
    3fee:	d0 91 ed 24 	lds	r29, 0x24ED	; 0x8024ed <udc_ptr_iface+0x1>
	while (1) {
		// Search Endpoint descriptor included in the global interface descriptor
		ep_desc = (UDC_DESC_STORAGE usb_ep_desc_t *)
    3ff2:	65 e0       	ldi	r22, 0x05	; 5
    3ff4:	ce 01       	movw	r24, r28
    3ff6:	0e 94 33 1f 	call	0x3e66	; 0x3e66 <udc_next_desc_in_iface>
    3ffa:	ec 01       	movw	r28, r24
				udc_next_desc_in_iface((UDC_DESC_STORAGE
						usb_conf_desc_t *) ep_desc,
				USB_DT_ENDPOINT);
		if (NULL == ep_desc)
    3ffc:	89 2b       	or	r24, r25
    3ffe:	49 f0       	breq	.+18     	; 0x4012 <__stack+0x13>
			break;
		// Alloc the endpoint used by the interface
		if (!udd_ep_alloc(ep_desc->bEndpointAddress,
    4000:	4c 81       	ldd	r20, Y+4	; 0x04
    4002:	5d 81       	ldd	r21, Y+5	; 0x05
    4004:	6b 81       	ldd	r22, Y+3	; 0x03
    4006:	8a 81       	ldd	r24, Y+2	; 0x02
    4008:	0e 94 45 27 	call	0x4e8a	; 0x4e8a <udd_ep_alloc>
    400c:	81 11       	cpse	r24, r1
    400e:	f1 cf       	rjmp	.-30     	; 0x3ff2 <udc_iface_enable+0x18>
    4010:	15 c0       	rjmp	.+42     	; 0x403c <__stack+0x3d>
			return false;
		}
	}
#endif
	// Enable the interface
	return udc_ptr_conf->udi_apis[iface_num]->enable();
    4012:	a0 91 ee 24 	lds	r26, 0x24EE	; 0x8024ee <udc_ptr_conf>
    4016:	b0 91 ef 24 	lds	r27, 0x24EF	; 0x8024ef <udc_ptr_conf+0x1>
    401a:	e1 2f       	mov	r30, r17
    401c:	f0 e0       	ldi	r31, 0x00	; 0
    401e:	ee 0f       	add	r30, r30
    4020:	ff 1f       	adc	r31, r31
    4022:	12 96       	adiw	r26, 0x02	; 2
    4024:	8d 91       	ld	r24, X+
    4026:	9c 91       	ld	r25, X
    4028:	13 97       	sbiw	r26, 0x03	; 3
    402a:	e8 0f       	add	r30, r24
    402c:	f9 1f       	adc	r31, r25
    402e:	01 90       	ld	r0, Z+
    4030:	f0 81       	ld	r31, Z
    4032:	e0 2d       	mov	r30, r0
    4034:	01 90       	ld	r0, Z+
    4036:	f0 81       	ld	r31, Z
    4038:	e0 2d       	mov	r30, r0
    403a:	19 95       	eicall
}
    403c:	df 91       	pop	r29
    403e:	cf 91       	pop	r28
    4040:	1f 91       	pop	r17
    4042:	08 95       	ret

00004044 <udc_get_interface_desc>:
//! @}

usb_iface_desc_t UDC_DESC_STORAGE *udc_get_interface_desc(void)
{
	return udc_ptr_iface;
}
    4044:	80 91 ec 24 	lds	r24, 0x24EC	; 0x8024ec <udc_ptr_iface>
    4048:	90 91 ed 24 	lds	r25, 0x24ED	; 0x8024ed <udc_ptr_iface+0x1>
    404c:	08 95       	ret

0000404e <udc_start>:

/*! \brief Start the USB Device stack
 */
void udc_start(void)
{
	udd_enable();
    404e:	0e 94 92 26 	call	0x4d24	; 0x4d24 <udd_enable>
    4052:	08 95       	ret

00004054 <udc_reset>:
/**
 * \brief Reset the current configuration of the USB device,
 * This routines can be called by UDD when a RESET on the USB line occurs.
 */
void udc_reset(void)
{
    4054:	cf 93       	push	r28
	uint8_t iface_num;

	if (udc_num_configuration) {
    4056:	80 91 f0 24 	lds	r24, 0x24F0	; 0x8024f0 <udc_num_configuration>
    405a:	88 23       	and	r24, r24
    405c:	c9 f0       	breq	.+50     	; 0x4090 <udc_reset+0x3c>
		for (iface_num = 0;
				iface_num < udc_ptr_conf->desc->bNumInterfaces;
    405e:	e0 91 ee 24 	lds	r30, 0x24EE	; 0x8024ee <udc_ptr_conf>
    4062:	f0 91 ef 24 	lds	r31, 0x24EF	; 0x8024ef <udc_ptr_conf+0x1>
    4066:	01 90       	ld	r0, Z+
    4068:	f0 81       	ld	r31, Z
    406a:	e0 2d       	mov	r30, r0
void udc_reset(void)
{
	uint8_t iface_num;

	if (udc_num_configuration) {
		for (iface_num = 0;
    406c:	84 81       	ldd	r24, Z+4	; 0x04
    406e:	88 23       	and	r24, r24
    4070:	79 f0       	breq	.+30     	; 0x4090 <udc_reset+0x3c>
    4072:	c0 e0       	ldi	r28, 0x00	; 0
				iface_num < udc_ptr_conf->desc->bNumInterfaces;
				iface_num++) {
			udc_iface_disable(iface_num);
    4074:	8c 2f       	mov	r24, r28
    4076:	0e 94 a8 1f 	call	0x3f50	; 0x3f50 <udc_iface_disable>
	uint8_t iface_num;

	if (udc_num_configuration) {
		for (iface_num = 0;
				iface_num < udc_ptr_conf->desc->bNumInterfaces;
				iface_num++) {
    407a:	cf 5f       	subi	r28, 0xFF	; 255
{
	uint8_t iface_num;

	if (udc_num_configuration) {
		for (iface_num = 0;
				iface_num < udc_ptr_conf->desc->bNumInterfaces;
    407c:	e0 91 ee 24 	lds	r30, 0x24EE	; 0x8024ee <udc_ptr_conf>
    4080:	f0 91 ef 24 	lds	r31, 0x24EF	; 0x8024ef <udc_ptr_conf+0x1>
    4084:	01 90       	ld	r0, Z+
    4086:	f0 81       	ld	r31, Z
    4088:	e0 2d       	mov	r30, r0
void udc_reset(void)
{
	uint8_t iface_num;

	if (udc_num_configuration) {
		for (iface_num = 0;
    408a:	84 81       	ldd	r24, Z+4	; 0x04
    408c:	c8 17       	cp	r28, r24
    408e:	90 f3       	brcs	.-28     	; 0x4074 <udc_reset+0x20>
				iface_num < udc_ptr_conf->desc->bNumInterfaces;
				iface_num++) {
			udc_iface_disable(iface_num);
		}
	}
	udc_num_configuration = 0;
    4090:	10 92 f0 24 	sts	0x24F0, r1	; 0x8024f0 <udc_num_configuration>
	if (CPU_TO_LE16(USB_DEV_STATUS_REMOTEWAKEUP) & udc_device_status) {
		// Remote wakeup is enabled then disable it
		UDC_REMOTEWAKEUP_DISABLE();
	}
#endif
	udc_device_status =
    4094:	81 e0       	ldi	r24, 0x01	; 1
    4096:	90 e0       	ldi	r25, 0x00	; 0
    4098:	80 93 f4 24 	sts	0x24F4, r24	; 0x8024f4 <udc_device_status>
    409c:	90 93 f5 24 	sts	0x24F5, r25	; 0x8024f5 <udc_device_status+0x1>
#if (USB_DEVICE_ATTR & USB_CONFIG_ATTR_SELF_POWERED)
			CPU_TO_LE16(USB_DEV_STATUS_SELF_POWERED);
#else
			CPU_TO_LE16(USB_DEV_STATUS_BUS_POWERED);
#endif
}
    40a0:	cf 91       	pop	r28
    40a2:	08 95       	ret

000040a4 <udc_stop>:

/*! \brief Stop the USB Device stack
 */
void udc_stop(void)
{
	udd_disable();
    40a4:	0e 94 34 26 	call	0x4c68	; 0x4c68 <udd_disable>
	udc_reset();
    40a8:	0e 94 2a 20 	call	0x4054	; 0x4054 <udc_reset>
    40ac:	08 95       	ret

000040ae <udc_sof_notify>:
			CPU_TO_LE16(USB_DEV_STATUS_BUS_POWERED);
#endif
}

void udc_sof_notify(void)
{
    40ae:	cf 93       	push	r28
	uint8_t iface_num;

	if (udc_num_configuration) {
    40b0:	80 91 f0 24 	lds	r24, 0x24F0	; 0x8024f0 <udc_num_configuration>
    40b4:	88 23       	and	r24, r24
    40b6:	49 f1       	breq	.+82     	; 0x410a <udc_sof_notify+0x5c>
		for (iface_num = 0;
				iface_num < udc_ptr_conf->desc->bNumInterfaces;
    40b8:	a0 91 ee 24 	lds	r26, 0x24EE	; 0x8024ee <udc_ptr_conf>
    40bc:	b0 91 ef 24 	lds	r27, 0x24EF	; 0x8024ef <udc_ptr_conf+0x1>
    40c0:	ed 91       	ld	r30, X+
    40c2:	fc 91       	ld	r31, X
    40c4:	11 97       	sbiw	r26, 0x01	; 1
void udc_sof_notify(void)
{
	uint8_t iface_num;

	if (udc_num_configuration) {
		for (iface_num = 0;
    40c6:	84 81       	ldd	r24, Z+4	; 0x04
    40c8:	88 23       	and	r24, r24
    40ca:	f9 f0       	breq	.+62     	; 0x410a <udc_sof_notify+0x5c>
    40cc:	c0 e0       	ldi	r28, 0x00	; 0
				iface_num < udc_ptr_conf->desc->bNumInterfaces;
				iface_num++) {
			if (udc_ptr_conf->udi_apis[iface_num]->sof_notify != NULL) {
    40ce:	ec 2f       	mov	r30, r28
    40d0:	f0 e0       	ldi	r31, 0x00	; 0
    40d2:	ee 0f       	add	r30, r30
    40d4:	ff 1f       	adc	r31, r31
    40d6:	12 96       	adiw	r26, 0x02	; 2
    40d8:	8d 91       	ld	r24, X+
    40da:	9c 91       	ld	r25, X
    40dc:	13 97       	sbiw	r26, 0x03	; 3
    40de:	e8 0f       	add	r30, r24
    40e0:	f9 1f       	adc	r31, r25
    40e2:	01 90       	ld	r0, Z+
    40e4:	f0 81       	ld	r31, Z
    40e6:	e0 2d       	mov	r30, r0
    40e8:	00 84       	ldd	r0, Z+8	; 0x08
    40ea:	f1 85       	ldd	r31, Z+9	; 0x09
    40ec:	e0 2d       	mov	r30, r0
    40ee:	30 97       	sbiw	r30, 0x00	; 0
    40f0:	09 f0       	breq	.+2      	; 0x40f4 <udc_sof_notify+0x46>
				udc_ptr_conf->udi_apis[iface_num]->sof_notify();
    40f2:	19 95       	eicall
	uint8_t iface_num;

	if (udc_num_configuration) {
		for (iface_num = 0;
				iface_num < udc_ptr_conf->desc->bNumInterfaces;
				iface_num++) {
    40f4:	cf 5f       	subi	r28, 0xFF	; 255
{
	uint8_t iface_num;

	if (udc_num_configuration) {
		for (iface_num = 0;
				iface_num < udc_ptr_conf->desc->bNumInterfaces;
    40f6:	a0 91 ee 24 	lds	r26, 0x24EE	; 0x8024ee <udc_ptr_conf>
    40fa:	b0 91 ef 24 	lds	r27, 0x24EF	; 0x8024ef <udc_ptr_conf+0x1>
    40fe:	ed 91       	ld	r30, X+
    4100:	fc 91       	ld	r31, X
    4102:	11 97       	sbiw	r26, 0x01	; 1
void udc_sof_notify(void)
{
	uint8_t iface_num;

	if (udc_num_configuration) {
		for (iface_num = 0;
    4104:	84 81       	ldd	r24, Z+4	; 0x04
    4106:	c8 17       	cp	r28, r24
    4108:	10 f3       	brcs	.-60     	; 0x40ce <udc_sof_notify+0x20>
			if (udc_ptr_conf->udi_apis[iface_num]->sof_notify != NULL) {
				udc_ptr_conf->udi_apis[iface_num]->sof_notify();
			}
		}
	}
}
    410a:	cf 91       	pop	r28
    410c:	08 95       	ret

0000410e <udc_process_setup>:
 * sent to a specific application callback.
 *
 * \return true if the request is supported, else the request is stalled by UDD
 */
bool udc_process_setup(void)
{
    410e:	0f 93       	push	r16
    4110:	1f 93       	push	r17
    4112:	cf 93       	push	r28
    4114:	df 93       	push	r29
	// By default no data (receive/send) and no callbacks registered
	udd_g_ctrlreq.payload_size = 0;
    4116:	e1 e3       	ldi	r30, 0x31	; 49
    4118:	f6 e2       	ldi	r31, 0x26	; 38
    411a:	12 86       	std	Z+10, r1	; 0x0a
    411c:	13 86       	std	Z+11, r1	; 0x0b
	udd_g_ctrlreq.callback = NULL;
    411e:	14 86       	std	Z+12, r1	; 0x0c
    4120:	15 86       	std	Z+13, r1	; 0x0d
	udd_g_ctrlreq.over_under_run = NULL;
    4122:	16 86       	std	Z+14, r1	; 0x0e
    4124:	17 86       	std	Z+15, r1	; 0x0f

	if (Udd_setup_is_in()) {
    4126:	80 81       	ld	r24, Z
    4128:	88 23       	and	r24, r24
    412a:	0c f0       	brlt	.+2      	; 0x412e <udc_process_setup+0x20>
    412c:	81 c2       	rjmp	.+1282   	; 0x4630 <udc_process_setup+0x522>
		if (udd_g_ctrlreq.req.wLength == 0) {
    412e:	20 91 37 26 	lds	r18, 0x2637	; 0x802637 <udd_g_ctrlreq+0x6>
    4132:	30 91 38 26 	lds	r19, 0x2638	; 0x802638 <udd_g_ctrlreq+0x7>
    4136:	21 15       	cp	r18, r1
    4138:	31 05       	cpc	r19, r1
    413a:	09 f0       	breq	.+2      	; 0x413e <udc_process_setup+0x30>
    413c:	74 c2       	rjmp	.+1256   	; 0x4626 <udc_process_setup+0x518>
    413e:	6b c2       	rjmp	.+1238   	; 0x4616 <udc_process_setup+0x508>
    4140:	8f 71       	andi	r24, 0x1F	; 31
		// GET Standard Requests
		if (udd_g_ctrlreq.req.wLength == 0) {
			return false; // Error for USB host
		}

		if (USB_REQ_RECIP_DEVICE == Udd_setup_recipient()) {
    4142:	09 f0       	breq	.+2      	; 0x4146 <udc_process_setup+0x38>
    4144:	ab c0       	rjmp	.+342    	; 0x429c <udc_process_setup+0x18e>
			// Standard Get Device request
			switch (udd_g_ctrlreq.req.bRequest) {
    4146:	90 91 32 26 	lds	r25, 0x2632	; 0x802632 <udd_g_ctrlreq+0x1>
    414a:	96 30       	cpi	r25, 0x06	; 6
    414c:	81 f0       	breq	.+32     	; 0x416e <udc_process_setup+0x60>
    414e:	98 30       	cpi	r25, 0x08	; 8
    4150:	09 f4       	brne	.+2      	; 0x4154 <udc_process_setup+0x46>
    4152:	99 c0       	rjmp	.+306    	; 0x4286 <udc_process_setup+0x178>
    4154:	91 11       	cpse	r25, r1
    4156:	a2 c0       	rjmp	.+324    	; 0x429c <udc_process_setup+0x18e>
 *
 * \return true if success
 */
static bool udc_req_std_dev_get_status(void)
{
	if (udd_g_ctrlreq.req.wLength != sizeof(udc_device_status)) {
    4158:	22 30       	cpi	r18, 0x02	; 2
    415a:	31 05       	cpc	r19, r1
    415c:	09 f0       	breq	.+2      	; 0x4160 <udc_process_setup+0x52>
    415e:	16 c2       	rjmp	.+1068   	; 0x458c <udc_process_setup+0x47e>
		return false;
	}

	udd_set_setup_payload( (uint8_t *) & udc_device_status,
    4160:	62 e0       	ldi	r22, 0x02	; 2
    4162:	70 e0       	ldi	r23, 0x00	; 0
    4164:	84 ef       	ldi	r24, 0xF4	; 244
    4166:	94 e2       	ldi	r25, 0x24	; 36
    4168:	0e 94 3e 27 	call	0x4e7c	; 0x4e7c <udd_set_setup_payload>
    416c:	6a c2       	rjmp	.+1236   	; 0x4642 <udc_process_setup+0x534>
 */
static bool udc_req_std_dev_get_descriptor(void)
{
	uint8_t conf_num;

	conf_num = udd_g_ctrlreq.req.wValue & 0xff;
    416e:	80 91 33 26 	lds	r24, 0x2633	; 0x802633 <udd_g_ctrlreq+0x2>
    4172:	90 91 34 26 	lds	r25, 0x2634	; 0x802634 <udd_g_ctrlreq+0x3>

	// Check descriptor ID
	switch ((uint8_t) (udd_g_ctrlreq.req.wValue >> 8)) {
    4176:	29 2f       	mov	r18, r25
    4178:	33 27       	eor	r19, r19
    417a:	22 30       	cpi	r18, 0x02	; 2
    417c:	31 05       	cpc	r19, r1
    417e:	b1 f0       	breq	.+44     	; 0x41ac <udc_process_setup+0x9e>
    4180:	20 f4       	brcc	.+8      	; 0x418a <udc_process_setup+0x7c>
    4182:	21 30       	cpi	r18, 0x01	; 1
    4184:	31 05       	cpc	r19, r1
    4186:	41 f0       	breq	.+16     	; 0x4198 <udc_process_setup+0x8a>
    4188:	c1 c1       	rjmp	.+898    	; 0x450c <udc_process_setup+0x3fe>
    418a:	23 30       	cpi	r18, 0x03	; 3
    418c:	31 05       	cpc	r19, r1
    418e:	f1 f1       	breq	.+124    	; 0x420c <udc_process_setup+0xfe>
    4190:	2f 30       	cpi	r18, 0x0F	; 15
    4192:	31 05       	cpc	r19, r1
    4194:	61 f1       	breq	.+88     	; 0x41ee <udc_process_setup+0xe0>
    4196:	ba c1       	rjmp	.+884    	; 0x450c <udc_process_setup+0x3fe>
		} else
#endif
		{
			udd_set_setup_payload(
				(uint8_t *) udc_config.confdev_lsfs,
				udc_config.confdev_lsfs->bLength);
    4198:	80 91 52 20 	lds	r24, 0x2052	; 0x802052 <udc_config>
    419c:	90 91 53 20 	lds	r25, 0x2053	; 0x802053 <udc_config+0x1>
				(uint8_t *) udc_config.confdev_hs,
				udc_config.confdev_hs->bLength);
		} else
#endif
		{
			udd_set_setup_payload(
    41a0:	dc 01       	movw	r26, r24
    41a2:	6c 91       	ld	r22, X
    41a4:	70 e0       	ldi	r23, 0x00	; 0
    41a6:	0e 94 3e 27 	call	0x4e7c	; 0x4e7c <udd_set_setup_payload>
    41aa:	5e c0       	rjmp	.+188    	; 0x4268 <udc_process_setup+0x15a>
				le16_to_cpu(udc_config.conf_hs[conf_num].desc->wTotalLength));
		} else
#endif
		{
			// FS descriptor
			if (conf_num >= udc_config.confdev_lsfs->
    41ac:	e0 91 52 20 	lds	r30, 0x2052	; 0x802052 <udc_config>
    41b0:	f0 91 53 20 	lds	r31, 0x2053	; 0x802053 <udc_config+0x1>
    41b4:	21 89       	ldd	r18, Z+17	; 0x11
    41b6:	82 17       	cp	r24, r18
    41b8:	08 f0       	brcs	.+2      	; 0x41bc <udc_process_setup+0xae>
    41ba:	e8 c1       	rjmp	.+976    	; 0x458c <udc_process_setup+0x47e>
					bNumConfigurations) {
				return false;
			}
			udd_set_setup_payload(
				(uint8_t *)udc_config.conf_lsfs[conf_num].desc,
				le16_to_cpu(udc_config.conf_lsfs[conf_num].desc->wTotalLength));
    41bc:	99 27       	eor	r25, r25
    41be:	88 0f       	add	r24, r24
    41c0:	99 1f       	adc	r25, r25
    41c2:	88 0f       	add	r24, r24
    41c4:	99 1f       	adc	r25, r25
    41c6:	e0 91 54 20 	lds	r30, 0x2054	; 0x802054 <udc_config+0x2>
    41ca:	f0 91 55 20 	lds	r31, 0x2055	; 0x802055 <udc_config+0x3>
    41ce:	e8 0f       	add	r30, r24
    41d0:	f9 1f       	adc	r31, r25
    41d2:	80 81       	ld	r24, Z
    41d4:	91 81       	ldd	r25, Z+1	; 0x01
			// FS descriptor
			if (conf_num >= udc_config.confdev_lsfs->
					bNumConfigurations) {
				return false;
			}
			udd_set_setup_payload(
    41d6:	fc 01       	movw	r30, r24
    41d8:	62 81       	ldd	r22, Z+2	; 0x02
    41da:	73 81       	ldd	r23, Z+3	; 0x03
    41dc:	0e 94 3e 27 	call	0x4e7c	; 0x4e7c <udd_set_setup_payload>
				(uint8_t *)udc_config.conf_lsfs[conf_num].desc,
				le16_to_cpu(udc_config.conf_lsfs[conf_num].desc->wTotalLength));
		}
		((usb_conf_desc_t *) udd_g_ctrlreq.payload)->bDescriptorType =
    41e0:	e0 91 39 26 	lds	r30, 0x2639	; 0x802639 <udd_g_ctrlreq+0x8>
    41e4:	f0 91 3a 26 	lds	r31, 0x263A	; 0x80263a <udd_g_ctrlreq+0x9>
    41e8:	82 e0       	ldi	r24, 0x02	; 2
    41ea:	81 83       	std	Z+1, r24	; 0x01
    41ec:	3d c0       	rjmp	.+122    	; 0x4268 <udc_process_setup+0x15a>
		break;
#endif

	case USB_DT_BOS:
		// Device BOS descriptor requested
		if (udc_config.conf_bos == NULL) {
    41ee:	80 91 56 20 	lds	r24, 0x2056	; 0x802056 <udc_config+0x4>
    41f2:	90 91 57 20 	lds	r25, 0x2057	; 0x802057 <udc_config+0x5>
    41f6:	00 97       	sbiw	r24, 0x00	; 0
    41f8:	09 f4       	brne	.+2      	; 0x41fc <udc_process_setup+0xee>
    41fa:	c8 c1       	rjmp	.+912    	; 0x458c <udc_process_setup+0x47e>
			return false;
		}
		udd_set_setup_payload( (uint8_t *) udc_config.conf_bos,
    41fc:	dc 01       	movw	r26, r24
    41fe:	12 96       	adiw	r26, 0x02	; 2
    4200:	6d 91       	ld	r22, X+
    4202:	7c 91       	ld	r23, X
    4204:	13 97       	sbiw	r26, 0x03	; 3
    4206:	0e 94 3e 27 	call	0x4e7c	; 0x4e7c <udd_set_setup_payload>
    420a:	2e c0       	rjmp	.+92     	; 0x4268 <udc_process_setup+0x15a>
	uint8_t i;
	const uint8_t *str;
	uint8_t str_length = 0;

	// Link payload pointer to the string corresponding at request
	switch (udd_g_ctrlreq.req.wValue & 0xff) {
    420c:	99 27       	eor	r25, r25
    420e:	81 30       	cpi	r24, 0x01	; 1
    4210:	91 05       	cpc	r25, r1
    4212:	99 f0       	breq	.+38     	; 0x423a <udc_process_setup+0x12c>
    4214:	58 f0       	brcs	.+22     	; 0x422c <udc_process_setup+0x11e>
    4216:	82 30       	cpi	r24, 0x02	; 2
    4218:	91 05       	cpc	r25, r1
    421a:	09 f4       	brne	.+2      	; 0x421e <udc_process_setup+0x110>
    421c:	0e c2       	rjmp	.+1052   	; 0x463a <udc_process_setup+0x52c>
    421e:	03 97       	sbiw	r24, 0x03	; 3
    4220:	09 f0       	breq	.+2      	; 0x4224 <udc_process_setup+0x116>
    4222:	7d c1       	rjmp	.+762    	; 0x451e <udc_process_setup+0x410>
		str = udc_string_product_name;
		break;
#endif
#if defined USB_DEVICE_SERIAL_NAME || defined USB_DEVICE_GET_SERIAL_NAME_POINTER
	case 3:
		str_length = USB_DEVICE_SERIAL_NAME_SIZE;
    4224:	31 e0       	ldi	r19, 0x01	; 1
		str = udc_get_string_serial_name();
    4226:	ea e9       	ldi	r30, 0x9A	; 154
    4228:	f3 e2       	ldi	r31, 0x23	; 35
    422a:	0a c0       	rjmp	.+20     	; 0x4240 <udc_process_setup+0x132>
	uint8_t str_length = 0;

	// Link payload pointer to the string corresponding at request
	switch (udd_g_ctrlreq.req.wValue & 0xff) {
	case 0:
		udd_set_setup_payload((uint8_t *) &udc_string_desc_languageid,
    422c:	64 e0       	ldi	r22, 0x04	; 4
    422e:	70 e0       	ldi	r23, 0x00	; 0
    4230:	8e e4       	ldi	r24, 0x4E	; 78
    4232:	90 e2       	ldi	r25, 0x20	; 32
    4234:	0e 94 3e 27 	call	0x4e7c	; 0x4e7c <udd_set_setup_payload>
    4238:	17 c0       	rjmp	.+46     	; 0x4268 <udc_process_setup+0x15a>
		break;

#ifdef USB_DEVICE_MANUFACTURE_NAME
	case 1:
		str_length = USB_DEVICE_MANUFACTURE_NAME_SIZE;
		str = udc_string_manufacturer_name;
    423a:	e8 e4       	ldi	r30, 0x48	; 72
    423c:	f0 e2       	ldi	r31, 0x20	; 32
				sizeof(udc_string_desc_languageid));
		break;

#ifdef USB_DEVICE_MANUFACTURE_NAME
	case 1:
		str_length = USB_DEVICE_MANUFACTURE_NAME_SIZE;
    423e:	35 e0       	ldi	r19, 0x05	; 5
    4240:	a0 e2       	ldi	r26, 0x20	; 32
    4242:	b0 e2       	ldi	r27, 0x20	; 32
    4244:	20 e0       	ldi	r18, 0x00	; 0
		return false;
	}

	if (str_length) {
		for(i = 0; i < str_length; i++) {
			udc_string_desc.string[i] = cpu_to_le16((le16_t)str[i]);
    4246:	81 91       	ld	r24, Z+
    4248:	90 e0       	ldi	r25, 0x00	; 0
    424a:	8d 93       	st	X+, r24
    424c:	9d 93       	st	X+, r25
#endif
		return false;
	}

	if (str_length) {
		for(i = 0; i < str_length; i++) {
    424e:	2f 5f       	subi	r18, 0xFF	; 255
    4250:	23 17       	cp	r18, r19
    4252:	c8 f3       	brcs	.-14     	; 0x4246 <udc_process_setup+0x138>
			udc_string_desc.string[i] = cpu_to_le16((le16_t)str[i]);
		}

		udc_string_desc.header.bLength = 2 + (str_length) * 2;
    4254:	63 2f       	mov	r22, r19
    4256:	66 0f       	add	r22, r22
    4258:	6e 5f       	subi	r22, 0xFE	; 254
    425a:	60 93 1e 20 	sts	0x201E, r22	; 0x80201e <udc_string_desc>
		udd_set_setup_payload(
    425e:	70 e0       	ldi	r23, 0x00	; 0
    4260:	8e e1       	ldi	r24, 0x1E	; 30
    4262:	90 e2       	ldi	r25, 0x20	; 32
    4264:	0e 94 3e 27 	call	0x4e7c	; 0x4e7c <udd_set_setup_payload>
	default:
		// Unknown descriptor requested
		return false;
	}
	// if the descriptor is larger than length requested, then reduce it
	if (udd_g_ctrlreq.req.wLength < udd_g_ctrlreq.payload_size) {
    4268:	e1 e3       	ldi	r30, 0x31	; 49
    426a:	f6 e2       	ldi	r31, 0x26	; 38
    426c:	86 81       	ldd	r24, Z+6	; 0x06
    426e:	97 81       	ldd	r25, Z+7	; 0x07
    4270:	22 85       	ldd	r18, Z+10	; 0x0a
    4272:	33 85       	ldd	r19, Z+11	; 0x0b
    4274:	82 17       	cp	r24, r18
    4276:	93 07       	cpc	r25, r19
    4278:	08 f0       	brcs	.+2      	; 0x427c <udc_process_setup+0x16e>
    427a:	e3 c1       	rjmp	.+966    	; 0x4642 <udc_process_setup+0x534>
		udd_g_ctrlreq.payload_size = udd_g_ctrlreq.req.wLength;
    427c:	80 93 3b 26 	sts	0x263B, r24	; 0x80263b <udd_g_ctrlreq+0xa>
    4280:	90 93 3c 26 	sts	0x263C, r25	; 0x80263c <udd_g_ctrlreq+0xb>
    4284:	de c1       	rjmp	.+956    	; 0x4642 <udc_process_setup+0x534>
 *
 * \return true if success
 */
static bool udc_req_std_dev_get_configuration(void)
{
	if (udd_g_ctrlreq.req.wLength != 1) {
    4286:	21 30       	cpi	r18, 0x01	; 1
    4288:	31 05       	cpc	r19, r1
    428a:	09 f0       	breq	.+2      	; 0x428e <udc_process_setup+0x180>
    428c:	7f c1       	rjmp	.+766    	; 0x458c <udc_process_setup+0x47e>
		return false;
	}

	udd_set_setup_payload(&udc_num_configuration,1);
    428e:	61 e0       	ldi	r22, 0x01	; 1
    4290:	70 e0       	ldi	r23, 0x00	; 0
    4292:	80 ef       	ldi	r24, 0xF0	; 240
    4294:	94 e2       	ldi	r25, 0x24	; 36
    4296:	0e 94 3e 27 	call	0x4e7c	; 0x4e7c <udd_set_setup_payload>
    429a:	d3 c1       	rjmp	.+934    	; 0x4642 <udc_process_setup+0x534>
			default:
				break;
			}
		}

		if (USB_REQ_RECIP_INTERFACE == Udd_setup_recipient()) {
    429c:	81 30       	cpi	r24, 0x01	; 1
    429e:	f1 f5       	brne	.+124    	; 0x431c <udc_process_setup+0x20e>
			// Standard Get Interface request
			switch (udd_g_ctrlreq.req.bRequest) {
    42a0:	90 91 32 26 	lds	r25, 0x2632	; 0x802632 <udd_g_ctrlreq+0x1>
    42a4:	9a 30       	cpi	r25, 0x0A	; 10
    42a6:	d1 f5       	brne	.+116    	; 0x431c <udc_process_setup+0x20e>
static bool udc_req_std_iface_get_setting(void)
{
	uint8_t iface_num;
	udi_api_t UDC_DESC_STORAGE *udi_api;

	if (udd_g_ctrlreq.req.wLength != 1) {
    42a8:	21 30       	cpi	r18, 0x01	; 1
    42aa:	31 05       	cpc	r19, r1
    42ac:	09 f0       	breq	.+2      	; 0x42b0 <udc_process_setup+0x1a2>
    42ae:	3c c1       	rjmp	.+632    	; 0x4528 <udc_process_setup+0x41a>
		return false; // Error in request
	}
	if (!udc_num_configuration) {
    42b0:	80 91 f0 24 	lds	r24, 0x24F0	; 0x8024f0 <udc_num_configuration>
    42b4:	88 23       	and	r24, r24
    42b6:	09 f4       	brne	.+2      	; 0x42ba <udc_process_setup+0x1ac>
    42b8:	37 c1       	rjmp	.+622    	; 0x4528 <udc_process_setup+0x41a>
		return false; // The device is not is configured state yet
	}

	// Check the interface number included in the request
	iface_num = udd_g_ctrlreq.req.wIndex & 0xFF;
    42ba:	c0 91 35 26 	lds	r28, 0x2635	; 0x802635 <udd_g_ctrlreq+0x4>
    42be:	d0 91 36 26 	lds	r29, 0x2636	; 0x802636 <udd_g_ctrlreq+0x5>
	if (iface_num >= udc_ptr_conf->desc->bNumInterfaces) {
    42c2:	00 91 ee 24 	lds	r16, 0x24EE	; 0x8024ee <udc_ptr_conf>
    42c6:	10 91 ef 24 	lds	r17, 0x24EF	; 0x8024ef <udc_ptr_conf+0x1>
    42ca:	d8 01       	movw	r26, r16
    42cc:	ed 91       	ld	r30, X+
    42ce:	fc 91       	ld	r31, X
    42d0:	84 81       	ldd	r24, Z+4	; 0x04
    42d2:	c8 17       	cp	r28, r24
    42d4:	08 f0       	brcs	.+2      	; 0x42d8 <udc_process_setup+0x1ca>
    42d6:	28 c1       	rjmp	.+592    	; 0x4528 <udc_process_setup+0x41a>
		return false;
	}

	// Select first alternate setting of the interface to update udc_ptr_iface
	// before call iface->getsetting()
	if (!udc_update_iface_desc(iface_num, 0)) {
    42d8:	60 e0       	ldi	r22, 0x00	; 0
    42da:	8c 2f       	mov	r24, r28
    42dc:	0e 94 6e 1f 	call	0x3edc	; 0x3edc <udc_update_iface_desc>
    42e0:	88 23       	and	r24, r24
    42e2:	09 f4       	brne	.+2      	; 0x42e6 <udc_process_setup+0x1d8>
    42e4:	1c c1       	rjmp	.+568    	; 0x451e <udc_process_setup+0x410>
		return false;
	}
	// Get alternate setting from UDI
	udi_api = udc_ptr_conf->udi_apis[iface_num];
    42e6:	ce 01       	movw	r24, r28
    42e8:	99 27       	eor	r25, r25
    42ea:	88 0f       	add	r24, r24
    42ec:	99 1f       	adc	r25, r25
    42ee:	d8 01       	movw	r26, r16
    42f0:	12 96       	adiw	r26, 0x02	; 2
    42f2:	ed 91       	ld	r30, X+
    42f4:	fc 91       	ld	r31, X
    42f6:	13 97       	sbiw	r26, 0x03	; 3
    42f8:	e8 0f       	add	r30, r24
    42fa:	f9 1f       	adc	r31, r25
	udc_iface_setting = udi_api->getsetting();
    42fc:	01 90       	ld	r0, Z+
    42fe:	f0 81       	ld	r31, Z
    4300:	e0 2d       	mov	r30, r0
    4302:	86 81       	ldd	r24, Z+6	; 0x06
    4304:	97 81       	ldd	r25, Z+7	; 0x07
    4306:	fc 01       	movw	r30, r24
    4308:	19 95       	eicall
    430a:	80 93 f2 24 	sts	0x24F2, r24	; 0x8024f2 <udc_iface_setting>

	// Link value to payload pointer of request
	udd_set_setup_payload(&udc_iface_setting,1);
    430e:	61 e0       	ldi	r22, 0x01	; 1
    4310:	70 e0       	ldi	r23, 0x00	; 0
    4312:	82 ef       	ldi	r24, 0xF2	; 242
    4314:	94 e2       	ldi	r25, 0x24	; 36
    4316:	0e 94 3e 27 	call	0x4e7c	; 0x4e7c <udd_set_setup_payload>
    431a:	93 c1       	rjmp	.+806    	; 0x4642 <udc_process_setup+0x534>
			default:
				break;
			}
		}
#if (0!=USB_DEVICE_MAX_EP)
		if (USB_REQ_RECIP_ENDPOINT == Udd_setup_recipient()) {
    431c:	82 30       	cpi	r24, 0x02	; 2
    431e:	09 f0       	breq	.+2      	; 0x4322 <udc_process_setup+0x214>
    4320:	fe c0       	rjmp	.+508    	; 0x451e <udc_process_setup+0x410>
			// Standard Get Endpoint request
			switch (udd_g_ctrlreq.req.bRequest) {
    4322:	80 91 32 26 	lds	r24, 0x2632	; 0x802632 <udd_g_ctrlreq+0x1>
    4326:	81 11       	cpse	r24, r1
    4328:	f3 c0       	rjmp	.+486    	; 0x4510 <udc_process_setup+0x402>
 */
static bool udc_req_std_ep_get_status(void)
{
	static le16_t udc_ep_status;

	if (udd_g_ctrlreq.req.wLength != sizeof(udc_ep_status)) {
    432a:	22 30       	cpi	r18, 0x02	; 2
    432c:	31 05       	cpc	r19, r1
    432e:	09 f0       	breq	.+2      	; 0x4332 <udc_process_setup+0x224>
    4330:	2d c1       	rjmp	.+602    	; 0x458c <udc_process_setup+0x47e>
		return false;
	}

	udc_ep_status = udd_ep_is_halted(udd_g_ctrlreq.req.
    4332:	80 91 35 26 	lds	r24, 0x2635	; 0x802635 <udd_g_ctrlreq+0x4>
    4336:	0e 94 d6 27 	call	0x4fac	; 0x4fac <udd_ep_is_halted>
    433a:	90 e0       	ldi	r25, 0x00	; 0
    433c:	80 93 ea 24 	sts	0x24EA, r24	; 0x8024ea <udc_ep_status.4927>
    4340:	90 93 eb 24 	sts	0x24EB, r25	; 0x8024eb <udc_ep_status.4927+0x1>
			wIndex & 0xFF) ? CPU_TO_LE16(USB_EP_STATUS_HALTED) : 0;

	udd_set_setup_payload( (uint8_t *) & udc_ep_status,
    4344:	62 e0       	ldi	r22, 0x02	; 2
    4346:	70 e0       	ldi	r23, 0x00	; 0
    4348:	8a ee       	ldi	r24, 0xEA	; 234
    434a:	94 e2       	ldi	r25, 0x24	; 36
    434c:	0e 94 3e 27 	call	0x4e7c	; 0x4e7c <udd_set_setup_payload>
    4350:	78 c1       	rjmp	.+752    	; 0x4642 <udc_process_setup+0x534>
    4352:	8f 71       	andi	r24, 0x1F	; 31
			}
		}
#endif
	} else {
		// SET Standard Requests
		if (USB_REQ_RECIP_DEVICE == Udd_setup_recipient()) {
    4354:	09 f0       	breq	.+2      	; 0x4358 <udc_process_setup+0x24a>
    4356:	86 c0       	rjmp	.+268    	; 0x4464 <udc_process_setup+0x356>
			// Standard Set Device request
			switch (udd_g_ctrlreq.req.bRequest) {
    4358:	90 91 32 26 	lds	r25, 0x2632	; 0x802632 <udd_g_ctrlreq+0x1>
    435c:	93 30       	cpi	r25, 0x03	; 3
    435e:	09 f4       	brne	.+2      	; 0x4362 <udc_process_setup+0x254>
    4360:	d9 c0       	rjmp	.+434    	; 0x4514 <udc_process_setup+0x406>
    4362:	18 f4       	brcc	.+6      	; 0x436a <udc_process_setup+0x25c>
    4364:	91 30       	cpi	r25, 0x01	; 1
    4366:	a1 f0       	breq	.+40     	; 0x4390 <udc_process_setup+0x282>
    4368:	7d c0       	rjmp	.+250    	; 0x4464 <udc_process_setup+0x356>
    436a:	95 30       	cpi	r25, 0x05	; 5
    436c:	19 f0       	breq	.+6      	; 0x4374 <udc_process_setup+0x266>
    436e:	99 30       	cpi	r25, 0x09	; 9
    4370:	39 f1       	breq	.+78     	; 0x43c0 <udc_process_setup+0x2b2>
    4372:	78 c0       	rjmp	.+240    	; 0x4464 <udc_process_setup+0x356>
 *
 * \return true if success
 */
static bool udc_req_std_dev_set_address(void)
{
	if (udd_g_ctrlreq.req.wLength) {
    4374:	80 91 37 26 	lds	r24, 0x2637	; 0x802637 <udd_g_ctrlreq+0x6>
    4378:	90 91 38 26 	lds	r25, 0x2638	; 0x802638 <udd_g_ctrlreq+0x7>
    437c:	89 2b       	or	r24, r25
    437e:	09 f0       	breq	.+2      	; 0x4382 <udc_process_setup+0x274>
    4380:	05 c1       	rjmp	.+522    	; 0x458c <udc_process_setup+0x47e>
		return false;
	}

	// The address must be changed at the end of setup request after the handshake
	// then we use a callback to change address
	udd_g_ctrlreq.callback = udc_valid_address;
    4382:	88 e6       	ldi	r24, 0x68	; 104
    4384:	9f e1       	ldi	r25, 0x1F	; 31
    4386:	80 93 3d 26 	sts	0x263D, r24	; 0x80263d <udd_g_ctrlreq+0xc>
    438a:	90 93 3e 26 	sts	0x263E, r25	; 0x80263e <udd_g_ctrlreq+0xd>
    438e:	59 c1       	rjmp	.+690    	; 0x4642 <udc_process_setup+0x534>
 *
 * \return true if success
 */
static bool udc_req_std_dev_clear_feature(void)
{
	if (udd_g_ctrlreq.req.wLength) {
    4390:	80 91 37 26 	lds	r24, 0x2637	; 0x802637 <udd_g_ctrlreq+0x6>
    4394:	90 91 38 26 	lds	r25, 0x2638	; 0x802638 <udd_g_ctrlreq+0x7>
    4398:	89 2b       	or	r24, r25
    439a:	09 f0       	breq	.+2      	; 0x439e <udc_process_setup+0x290>
    439c:	f7 c0       	rjmp	.+494    	; 0x458c <udc_process_setup+0x47e>
		return false;
	}

	if (udd_g_ctrlreq.req.wValue == USB_DEV_FEATURE_REMOTE_WAKEUP) {
    439e:	80 91 33 26 	lds	r24, 0x2633	; 0x802633 <udd_g_ctrlreq+0x2>
    43a2:	90 91 34 26 	lds	r25, 0x2634	; 0x802634 <udd_g_ctrlreq+0x3>
    43a6:	01 97       	sbiw	r24, 0x01	; 1
    43a8:	09 f0       	breq	.+2      	; 0x43ac <udc_process_setup+0x29e>
    43aa:	f0 c0       	rjmp	.+480    	; 0x458c <udc_process_setup+0x47e>
		udc_device_status &= CPU_TO_LE16(~(uint32_t)USB_DEV_STATUS_REMOTEWAKEUP);
    43ac:	80 91 f4 24 	lds	r24, 0x24F4	; 0x8024f4 <udc_device_status>
    43b0:	90 91 f5 24 	lds	r25, 0x24F5	; 0x8024f5 <udc_device_status+0x1>
    43b4:	8d 7f       	andi	r24, 0xFD	; 253
    43b6:	80 93 f4 24 	sts	0x24F4, r24	; 0x8024f4 <udc_device_status>
    43ba:	90 93 f5 24 	sts	0x24F5, r25	; 0x8024f5 <udc_device_status+0x1>
    43be:	41 c1       	rjmp	.+642    	; 0x4642 <udc_process_setup+0x534>
static bool udc_req_std_dev_set_configuration(void)
{
	uint8_t iface_num;

	// Check request length
	if (udd_g_ctrlreq.req.wLength) {
    43c0:	80 91 37 26 	lds	r24, 0x2637	; 0x802637 <udd_g_ctrlreq+0x6>
    43c4:	90 91 38 26 	lds	r25, 0x2638	; 0x802638 <udd_g_ctrlreq+0x7>
    43c8:	89 2b       	or	r24, r25
    43ca:	09 f0       	breq	.+2      	; 0x43ce <udc_process_setup+0x2c0>
    43cc:	df c0       	rjmp	.+446    	; 0x458c <udc_process_setup+0x47e>
		return false;
	}
	// Authorize configuration only if the address is valid
	if (!udd_getaddress()) {
    43ce:	0e 94 23 27 	call	0x4e46	; 0x4e46 <udd_getaddress>
    43d2:	88 23       	and	r24, r24
    43d4:	09 f4       	brne	.+2      	; 0x43d8 <udc_process_setup+0x2ca>
    43d6:	a3 c0       	rjmp	.+326    	; 0x451e <udc_process_setup+0x410>
		}
	} else
#endif
	{
		// FS descriptor
		if ((udd_g_ctrlreq.req.wValue & 0xFF) >
    43d8:	20 91 33 26 	lds	r18, 0x2633	; 0x802633 <udd_g_ctrlreq+0x2>
    43dc:	30 91 34 26 	lds	r19, 0x2634	; 0x802634 <udd_g_ctrlreq+0x3>
    43e0:	33 27       	eor	r19, r19
				udc_config.confdev_lsfs->bNumConfigurations) {
    43e2:	e0 91 52 20 	lds	r30, 0x2052	; 0x802052 <udc_config>
    43e6:	f0 91 53 20 	lds	r31, 0x2053	; 0x802053 <udc_config+0x1>
		}
	} else
#endif
	{
		// FS descriptor
		if ((udd_g_ctrlreq.req.wValue & 0xFF) >
    43ea:	81 89       	ldd	r24, Z+17	; 0x11
    43ec:	90 e0       	ldi	r25, 0x00	; 0
    43ee:	82 17       	cp	r24, r18
    43f0:	93 07       	cpc	r25, r19
    43f2:	08 f4       	brcc	.+2      	; 0x43f6 <udc_process_setup+0x2e8>
    43f4:	94 c0       	rjmp	.+296    	; 0x451e <udc_process_setup+0x410>
			return false;
		}
	}

	// Reset current configuration
	udc_reset();
    43f6:	0e 94 2a 20 	call	0x4054	; 0x4054 <udc_reset>

	// Enable new configuration
	udc_num_configuration = udd_g_ctrlreq.req.wValue & 0xFF;
    43fa:	80 91 33 26 	lds	r24, 0x2633	; 0x802633 <udd_g_ctrlreq+0x2>
    43fe:	90 91 34 26 	lds	r25, 0x2634	; 0x802634 <udd_g_ctrlreq+0x3>
    4402:	80 93 f0 24 	sts	0x24F0, r24	; 0x8024f0 <udc_num_configuration>
	if (udc_num_configuration == 0) {
    4406:	88 23       	and	r24, r24
    4408:	09 f4       	brne	.+2      	; 0x440c <udc_process_setup+0x2fe>
    440a:	1b c1       	rjmp	.+566    	; 0x4642 <udc_process_setup+0x534>
		udc_ptr_conf = &udc_config.conf_hs[udc_num_configuration - 1];
	} else
#endif
	{
		// FS descriptor
		udc_ptr_conf = &udc_config.conf_lsfs[udc_num_configuration - 1];
    440c:	99 27       	eor	r25, r25
    440e:	81 50       	subi	r24, 0x01	; 1
    4410:	90 4c       	sbci	r25, 0xC0	; 192
    4412:	88 0f       	add	r24, r24
    4414:	99 1f       	adc	r25, r25
    4416:	88 0f       	add	r24, r24
    4418:	99 1f       	adc	r25, r25
    441a:	e0 91 54 20 	lds	r30, 0x2054	; 0x802054 <udc_config+0x2>
    441e:	f0 91 55 20 	lds	r31, 0x2055	; 0x802055 <udc_config+0x3>
    4422:	e8 0f       	add	r30, r24
    4424:	f9 1f       	adc	r31, r25
    4426:	e0 93 ee 24 	sts	0x24EE, r30	; 0x8024ee <udc_ptr_conf>
    442a:	f0 93 ef 24 	sts	0x24EF, r31	; 0x8024ef <udc_ptr_conf+0x1>
	}
	// Enable all interfaces of the selected configuration
	for (iface_num = 0; iface_num < udc_ptr_conf->desc->bNumInterfaces;
    442e:	01 90       	ld	r0, Z+
    4430:	f0 81       	ld	r31, Z
    4432:	e0 2d       	mov	r30, r0
    4434:	84 81       	ldd	r24, Z+4	; 0x04
    4436:	88 23       	and	r24, r24
    4438:	09 f4       	brne	.+2      	; 0x443c <udc_process_setup+0x32e>
    443a:	03 c1       	rjmp	.+518    	; 0x4642 <udc_process_setup+0x534>
    443c:	c0 e0       	ldi	r28, 0x00	; 0
			iface_num++) {
		if (!udc_iface_enable(iface_num, 0)) {
    443e:	60 e0       	ldi	r22, 0x00	; 0
    4440:	8c 2f       	mov	r24, r28
    4442:	0e 94 ed 1f 	call	0x3fda	; 0x3fda <udc_iface_enable>
    4446:	88 23       	and	r24, r24
    4448:	09 f4       	brne	.+2      	; 0x444c <udc_process_setup+0x33e>
    444a:	69 c0       	rjmp	.+210    	; 0x451e <udc_process_setup+0x410>
		// FS descriptor
		udc_ptr_conf = &udc_config.conf_lsfs[udc_num_configuration - 1];
	}
	// Enable all interfaces of the selected configuration
	for (iface_num = 0; iface_num < udc_ptr_conf->desc->bNumInterfaces;
			iface_num++) {
    444c:	cf 5f       	subi	r28, 0xFF	; 255
	{
		// FS descriptor
		udc_ptr_conf = &udc_config.conf_lsfs[udc_num_configuration - 1];
	}
	// Enable all interfaces of the selected configuration
	for (iface_num = 0; iface_num < udc_ptr_conf->desc->bNumInterfaces;
    444e:	e0 91 ee 24 	lds	r30, 0x24EE	; 0x8024ee <udc_ptr_conf>
    4452:	f0 91 ef 24 	lds	r31, 0x24EF	; 0x8024ef <udc_ptr_conf+0x1>
    4456:	01 90       	ld	r0, Z+
    4458:	f0 81       	ld	r31, Z
    445a:	e0 2d       	mov	r30, r0
    445c:	84 81       	ldd	r24, Z+4	; 0x04
    445e:	c8 17       	cp	r28, r24
    4460:	70 f3       	brcs	.-36     	; 0x443e <udc_process_setup+0x330>
    4462:	ef c0       	rjmp	.+478    	; 0x4642 <udc_process_setup+0x534>
			default:
				break;
			}
		}

		if (USB_REQ_RECIP_INTERFACE == Udd_setup_recipient()) {
    4464:	81 30       	cpi	r24, 0x01	; 1
    4466:	f9 f4       	brne	.+62     	; 0x44a6 <udc_process_setup+0x398>
			// Standard Set Interface request
			switch (udd_g_ctrlreq.req.bRequest) {
    4468:	90 91 32 26 	lds	r25, 0x2632	; 0x802632 <udd_g_ctrlreq+0x1>
    446c:	9b 30       	cpi	r25, 0x0B	; 11
    446e:	d9 f4       	brne	.+54     	; 0x44a6 <udc_process_setup+0x398>
 */
static bool udc_req_std_iface_set_setting(void)
{
	uint8_t iface_num, setting_num;

	if (udd_g_ctrlreq.req.wLength) {
    4470:	80 91 37 26 	lds	r24, 0x2637	; 0x802637 <udd_g_ctrlreq+0x6>
    4474:	90 91 38 26 	lds	r25, 0x2638	; 0x802638 <udd_g_ctrlreq+0x7>
    4478:	89 2b       	or	r24, r25
    447a:	09 f0       	breq	.+2      	; 0x447e <udc_process_setup+0x370>
    447c:	55 c0       	rjmp	.+170    	; 0x4528 <udc_process_setup+0x41a>
		return false; // Error in request
	}
	if (!udc_num_configuration) {
    447e:	80 91 f0 24 	lds	r24, 0x24F0	; 0x8024f0 <udc_num_configuration>
    4482:	88 23       	and	r24, r24
    4484:	09 f4       	brne	.+2      	; 0x4488 <udc_process_setup+0x37a>
    4486:	50 c0       	rjmp	.+160    	; 0x4528 <udc_process_setup+0x41a>
		return false; // The device is not is configured state yet
	}

	iface_num = udd_g_ctrlreq.req.wIndex & 0xFF;
    4488:	e1 e3       	ldi	r30, 0x31	; 49
    448a:	f6 e2       	ldi	r31, 0x26	; 38
    448c:	c4 81       	ldd	r28, Z+4	; 0x04
	setting_num = udd_g_ctrlreq.req.wValue & 0xFF;
    448e:	d2 81       	ldd	r29, Z+2	; 0x02

	// Disable current setting
	if (!udc_iface_disable(iface_num)) {
    4490:	8c 2f       	mov	r24, r28
    4492:	0e 94 a8 1f 	call	0x3f50	; 0x3f50 <udc_iface_disable>
    4496:	88 23       	and	r24, r24
    4498:	09 f4       	brne	.+2      	; 0x449c <udc_process_setup+0x38e>
    449a:	41 c0       	rjmp	.+130    	; 0x451e <udc_process_setup+0x410>
		return false;
	}

	// Enable new setting
	return udc_iface_enable(iface_num, setting_num);
    449c:	6d 2f       	mov	r22, r29
    449e:	8c 2f       	mov	r24, r28
    44a0:	0e 94 ed 1f 	call	0x3fda	; 0x3fda <udc_iface_enable>
    44a4:	3a c0       	rjmp	.+116    	; 0x451a <udc_process_setup+0x40c>
			default:
				break;
			}
		}
#if (0!=USB_DEVICE_MAX_EP)
		if (USB_REQ_RECIP_ENDPOINT == Udd_setup_recipient()) {
    44a6:	82 30       	cpi	r24, 0x02	; 2
    44a8:	d1 f5       	brne	.+116    	; 0x451e <udc_process_setup+0x410>
			// Standard Set Endpoint request
			switch (udd_g_ctrlreq.req.bRequest) {
    44aa:	80 91 32 26 	lds	r24, 0x2632	; 0x802632 <udd_g_ctrlreq+0x1>
    44ae:	81 30       	cpi	r24, 0x01	; 1
    44b0:	19 f0       	breq	.+6      	; 0x44b8 <udc_process_setup+0x3aa>
    44b2:	83 30       	cpi	r24, 0x03	; 3
    44b4:	a1 f0       	breq	.+40     	; 0x44de <udc_process_setup+0x3d0>
    44b6:	30 c0       	rjmp	.+96     	; 0x4518 <udc_process_setup+0x40a>
 *
 * \return true if success
 */
static bool udc_req_std_ep_clear_feature(void)
{
	if (udd_g_ctrlreq.req.wLength) {
    44b8:	80 91 37 26 	lds	r24, 0x2637	; 0x802637 <udd_g_ctrlreq+0x6>
    44bc:	90 91 38 26 	lds	r25, 0x2638	; 0x802638 <udd_g_ctrlreq+0x7>
    44c0:	89 2b       	or	r24, r25
    44c2:	09 f0       	breq	.+2      	; 0x44c6 <udc_process_setup+0x3b8>
    44c4:	63 c0       	rjmp	.+198    	; 0x458c <udc_process_setup+0x47e>
		return false;
	}

	if (udd_g_ctrlreq.req.wValue == USB_EP_FEATURE_HALT) {
    44c6:	80 91 33 26 	lds	r24, 0x2633	; 0x802633 <udd_g_ctrlreq+0x2>
    44ca:	90 91 34 26 	lds	r25, 0x2634	; 0x802634 <udd_g_ctrlreq+0x3>
    44ce:	89 2b       	or	r24, r25
    44d0:	09 f0       	breq	.+2      	; 0x44d4 <udc_process_setup+0x3c6>
    44d2:	5c c0       	rjmp	.+184    	; 0x458c <udc_process_setup+0x47e>
		return udd_ep_clear_halt(udd_g_ctrlreq.req.wIndex & 0xFF);
    44d4:	80 91 35 26 	lds	r24, 0x2635	; 0x802635 <udd_g_ctrlreq+0x4>
    44d8:	0e 94 f1 27 	call	0x4fe2	; 0x4fe2 <udd_ep_clear_halt>
    44dc:	1e c0       	rjmp	.+60     	; 0x451a <udc_process_setup+0x40c>
 * \return true if success
 */
#if (0!=USB_DEVICE_MAX_EP)
static bool udc_req_std_ep_set_feature(void)
{
	if (udd_g_ctrlreq.req.wLength) {
    44de:	80 91 37 26 	lds	r24, 0x2637	; 0x802637 <udd_g_ctrlreq+0x6>
    44e2:	90 91 38 26 	lds	r25, 0x2638	; 0x802638 <udd_g_ctrlreq+0x7>
    44e6:	89 2b       	or	r24, r25
    44e8:	09 f0       	breq	.+2      	; 0x44ec <udc_process_setup+0x3de>
    44ea:	50 c0       	rjmp	.+160    	; 0x458c <udc_process_setup+0x47e>
		return false;
	}
	if (udd_g_ctrlreq.req.wValue == USB_EP_FEATURE_HALT) {
    44ec:	80 91 33 26 	lds	r24, 0x2633	; 0x802633 <udd_g_ctrlreq+0x2>
    44f0:	90 91 34 26 	lds	r25, 0x2634	; 0x802634 <udd_g_ctrlreq+0x3>
    44f4:	89 2b       	or	r24, r25
    44f6:	09 f0       	breq	.+2      	; 0x44fa <udc_process_setup+0x3ec>
    44f8:	49 c0       	rjmp	.+146    	; 0x458c <udc_process_setup+0x47e>
		udd_ep_abort(udd_g_ctrlreq.req.wIndex & 0xFF);
    44fa:	c1 e3       	ldi	r28, 0x31	; 49
    44fc:	d6 e2       	ldi	r29, 0x26	; 38
    44fe:	8c 81       	ldd	r24, Y+4	; 0x04
    4500:	0e 94 02 29 	call	0x5204	; 0x5204 <udd_ep_abort>
		return udd_ep_set_halt(udd_g_ctrlreq.req.wIndex & 0xFF);
    4504:	8c 81       	ldd	r24, Y+4	; 0x04
    4506:	0e 94 6f 29 	call	0x52de	; 0x52de <udd_ep_set_halt>
    450a:	07 c0       	rjmp	.+14     	; 0x451a <udc_process_setup+0x40c>
		}
		break;

	default:
		// Unknown descriptor requested
		return false;
    450c:	80 e0       	ldi	r24, 0x00	; 0
    450e:	05 c0       	rjmp	.+10     	; 0x451a <udc_process_setup+0x40c>
				break;
			}
		}
#endif
	}
	return false;
    4510:	80 e0       	ldi	r24, 0x00	; 0
    4512:	03 c0       	rjmp	.+6      	; 0x451a <udc_process_setup+0x40c>
			case USB_REQ_SET_ADDRESS:
				return udc_req_std_dev_set_address();
			case USB_REQ_CLEAR_FEATURE:
				return udc_req_std_dev_clear_feature();
			case USB_REQ_SET_FEATURE:
				return udc_req_std_dev_set_feature();
    4514:	80 e0       	ldi	r24, 0x00	; 0
    4516:	01 c0       	rjmp	.+2      	; 0x451a <udc_process_setup+0x40c>
				break;
			}
		}
#endif
	}
	return false;
    4518:	80 e0       	ldi	r24, 0x00	; 0
		}
	}

	// If standard request then try to decode it in UDC
	if (Udd_setup_type() == USB_REQ_TYPE_STANDARD) {
		if (udc_reqstd()) {
    451a:	81 11       	cpse	r24, r1
    451c:	93 c0       	rjmp	.+294    	; 0x4644 <udc_process_setup+0x536>
			return true;
		}
	}

	// If interface request then try to decode it in UDI
	if (Udd_setup_recipient() == USB_REQ_RECIP_INTERFACE) {
    451e:	80 91 31 26 	lds	r24, 0x2631	; 0x802631 <udd_g_ctrlreq>
    4522:	8f 71       	andi	r24, 0x1F	; 31
    4524:	81 30       	cpi	r24, 0x01	; 1
    4526:	91 f5       	brne	.+100    	; 0x458c <udc_process_setup+0x47e>
static bool udc_req_iface(void)
{
	uint8_t iface_num;
	udi_api_t UDC_DESC_STORAGE *udi_api;

	if (0 == udc_num_configuration) {
    4528:	80 91 f0 24 	lds	r24, 0x24F0	; 0x8024f0 <udc_num_configuration>
    452c:	88 23       	and	r24, r24
    452e:	09 f4       	brne	.+2      	; 0x4532 <udc_process_setup+0x424>
    4530:	74 c0       	rjmp	.+232    	; 0x461a <udc_process_setup+0x50c>
		return false; // The device is not is configured state yet
	}
	// Check interface number
	iface_num = udd_g_ctrlreq.req.wIndex & 0xFF;
    4532:	00 91 35 26 	lds	r16, 0x2635	; 0x802635 <udd_g_ctrlreq+0x4>
    4536:	10 91 36 26 	lds	r17, 0x2636	; 0x802636 <udd_g_ctrlreq+0x5>
	if (iface_num >= udc_ptr_conf->desc->bNumInterfaces) {
    453a:	c0 91 ee 24 	lds	r28, 0x24EE	; 0x8024ee <udc_ptr_conf>
    453e:	d0 91 ef 24 	lds	r29, 0x24EF	; 0x8024ef <udc_ptr_conf+0x1>
    4542:	e8 81       	ld	r30, Y
    4544:	f9 81       	ldd	r31, Y+1	; 0x01
    4546:	84 81       	ldd	r24, Z+4	; 0x04
    4548:	08 17       	cp	r16, r24
    454a:	08 f0       	brcs	.+2      	; 0x454e <udc_process_setup+0x440>
    454c:	68 c0       	rjmp	.+208    	; 0x461e <udc_process_setup+0x510>
	}

	//* To update udc_ptr_iface with the selected interface in request
	// Select first alternate setting of interface to update udc_ptr_iface
	// before calling udi_api->getsetting()
	if (!udc_update_iface_desc(iface_num, 0)) {
    454e:	60 e0       	ldi	r22, 0x00	; 0
    4550:	80 2f       	mov	r24, r16
    4552:	0e 94 6e 1f 	call	0x3edc	; 0x3edc <udc_update_iface_desc>
    4556:	88 23       	and	r24, r24
    4558:	c9 f0       	breq	.+50     	; 0x458c <udc_process_setup+0x47e>
		return false;
	}
	// Select the interface with the current alternate setting
	udi_api = udc_ptr_conf->udi_apis[iface_num];
    455a:	f8 01       	movw	r30, r16
    455c:	ff 27       	eor	r31, r31
    455e:	cf 01       	movw	r24, r30
    4560:	88 0f       	add	r24, r24
    4562:	99 1f       	adc	r25, r25
    4564:	ea 81       	ldd	r30, Y+2	; 0x02
    4566:	fb 81       	ldd	r31, Y+3	; 0x03
    4568:	e8 0f       	add	r30, r24
    456a:	f9 1f       	adc	r31, r25
    456c:	c0 81       	ld	r28, Z
    456e:	d1 81       	ldd	r29, Z+1	; 0x01
	if (!udc_update_iface_desc(iface_num, udi_api->getsetting())) {
    4570:	ee 81       	ldd	r30, Y+6	; 0x06
    4572:	ff 81       	ldd	r31, Y+7	; 0x07
    4574:	19 95       	eicall
    4576:	68 2f       	mov	r22, r24
    4578:	80 2f       	mov	r24, r16
    457a:	0e 94 6e 1f 	call	0x3edc	; 0x3edc <udc_update_iface_desc>
    457e:	88 23       	and	r24, r24
    4580:	29 f0       	breq	.+10     	; 0x458c <udc_process_setup+0x47e>
		return false;
	}

	// Send the SETUP request to the UDI corresponding to the interface number
	return udi_api->setup();
    4582:	ec 81       	ldd	r30, Y+4	; 0x04
    4584:	fd 81       	ldd	r31, Y+5	; 0x05
    4586:	19 95       	eicall
		}
	}

	// If interface request then try to decode it in UDI
	if (Udd_setup_recipient() == USB_REQ_RECIP_INTERFACE) {
		if (udc_req_iface()) {
    4588:	81 11       	cpse	r24, r1
    458a:	5c c0       	rjmp	.+184    	; 0x4644 <udc_process_setup+0x536>
			return true;
		}
	}

	// If endpoint request then try to decode it in UDI
	if (Udd_setup_recipient() == USB_REQ_RECIP_ENDPOINT) {
    458c:	80 91 31 26 	lds	r24, 0x2631	; 0x802631 <udd_g_ctrlreq>
    4590:	8f 71       	andi	r24, 0x1F	; 31
    4592:	82 30       	cpi	r24, 0x02	; 2
    4594:	09 f0       	breq	.+2      	; 0x4598 <udc_process_setup+0x48a>
    4596:	45 c0       	rjmp	.+138    	; 0x4622 <udc_process_setup+0x514>
static bool udc_req_ep(void)
{
	uint8_t iface_num;
	udi_api_t UDC_DESC_STORAGE *udi_api;

	if (0 == udc_num_configuration) {
    4598:	80 91 f0 24 	lds	r24, 0x24F0	; 0x8024f0 <udc_num_configuration>
    459c:	88 23       	and	r24, r24
    459e:	b9 f1       	breq	.+110    	; 0x460e <udc_process_setup+0x500>
		return false; // The device is not is configured state yet
	}
	// Send this request on all enabled interfaces
	iface_num = udd_g_ctrlreq.req.wIndex & 0xFF;
	for (iface_num = 0; iface_num < udc_ptr_conf->desc->bNumInterfaces;
    45a0:	a0 91 ee 24 	lds	r26, 0x24EE	; 0x8024ee <udc_ptr_conf>
    45a4:	b0 91 ef 24 	lds	r27, 0x24EF	; 0x8024ef <udc_ptr_conf+0x1>
    45a8:	ed 91       	ld	r30, X+
    45aa:	fc 91       	ld	r31, X
    45ac:	11 97       	sbiw	r26, 0x01	; 1
    45ae:	84 81       	ldd	r24, Z+4	; 0x04
    45b0:	88 23       	and	r24, r24
    45b2:	79 f1       	breq	.+94     	; 0x4612 <udc_process_setup+0x504>
    45b4:	c0 e0       	ldi	r28, 0x00	; 0
			iface_num++) {
		// Select the interface with the current alternate setting
		udi_api = udc_ptr_conf->udi_apis[iface_num];
    45b6:	ec 2f       	mov	r30, r28
    45b8:	f0 e0       	ldi	r31, 0x00	; 0
    45ba:	ee 0f       	add	r30, r30
    45bc:	ff 1f       	adc	r31, r31
    45be:	12 96       	adiw	r26, 0x02	; 2
    45c0:	8d 91       	ld	r24, X+
    45c2:	9c 91       	ld	r25, X
    45c4:	13 97       	sbiw	r26, 0x03	; 3
    45c6:	e8 0f       	add	r30, r24
    45c8:	f9 1f       	adc	r31, r25
    45ca:	00 81       	ld	r16, Z
    45cc:	11 81       	ldd	r17, Z+1	; 0x01
		if (!udc_update_iface_desc(iface_num, udi_api->getsetting())) {
    45ce:	d8 01       	movw	r26, r16
    45d0:	16 96       	adiw	r26, 0x06	; 6
    45d2:	ed 91       	ld	r30, X+
    45d4:	fc 91       	ld	r31, X
    45d6:	17 97       	sbiw	r26, 0x07	; 7
    45d8:	19 95       	eicall
    45da:	68 2f       	mov	r22, r24
    45dc:	8c 2f       	mov	r24, r28
    45de:	0e 94 6e 1f 	call	0x3edc	; 0x3edc <udc_update_iface_desc>
    45e2:	88 23       	and	r24, r24
    45e4:	79 f1       	breq	.+94     	; 0x4644 <udc_process_setup+0x536>
			return false;
		}

		// Send the SETUP request to the UDI
		if (udi_api->setup()) {
    45e6:	d8 01       	movw	r26, r16
    45e8:	14 96       	adiw	r26, 0x04	; 4
    45ea:	ed 91       	ld	r30, X+
    45ec:	fc 91       	ld	r31, X
    45ee:	15 97       	sbiw	r26, 0x05	; 5
    45f0:	19 95       	eicall
    45f2:	81 11       	cpse	r24, r1
    45f4:	27 c0       	rjmp	.+78     	; 0x4644 <udc_process_setup+0x536>
		return false; // The device is not is configured state yet
	}
	// Send this request on all enabled interfaces
	iface_num = udd_g_ctrlreq.req.wIndex & 0xFF;
	for (iface_num = 0; iface_num < udc_ptr_conf->desc->bNumInterfaces;
			iface_num++) {
    45f6:	cf 5f       	subi	r28, 0xFF	; 255
	if (0 == udc_num_configuration) {
		return false; // The device is not is configured state yet
	}
	// Send this request on all enabled interfaces
	iface_num = udd_g_ctrlreq.req.wIndex & 0xFF;
	for (iface_num = 0; iface_num < udc_ptr_conf->desc->bNumInterfaces;
    45f8:	a0 91 ee 24 	lds	r26, 0x24EE	; 0x8024ee <udc_ptr_conf>
    45fc:	b0 91 ef 24 	lds	r27, 0x24EF	; 0x8024ef <udc_ptr_conf+0x1>
    4600:	ed 91       	ld	r30, X+
    4602:	fc 91       	ld	r31, X
    4604:	11 97       	sbiw	r26, 0x01	; 1
    4606:	94 81       	ldd	r25, Z+4	; 0x04
    4608:	c9 17       	cp	r28, r25
    460a:	a8 f2       	brcs	.-86     	; 0x45b6 <udc_process_setup+0x4a8>
    460c:	1b c0       	rjmp	.+54     	; 0x4644 <udc_process_setup+0x536>
{
	uint8_t iface_num;
	udi_api_t UDC_DESC_STORAGE *udi_api;

	if (0 == udc_num_configuration) {
		return false; // The device is not is configured state yet
    460e:	80 e0       	ldi	r24, 0x00	; 0
    4610:	19 c0       	rjmp	.+50     	; 0x4644 <udc_process_setup+0x536>
		// Send the SETUP request to the UDI
		if (udi_api->setup()) {
			return true;
		}
	}
	return false;
    4612:	80 e0       	ldi	r24, 0x00	; 0
    4614:	17 c0       	rjmp	.+46     	; 0x4644 <udc_process_setup+0x536>
	udd_g_ctrlreq.callback = NULL;
	udd_g_ctrlreq.over_under_run = NULL;

	if (Udd_setup_is_in()) {
		if (udd_g_ctrlreq.req.wLength == 0) {
			return false; // Error from USB host
    4616:	80 e0       	ldi	r24, 0x00	; 0
    4618:	15 c0       	rjmp	.+42     	; 0x4644 <udc_process_setup+0x536>
	// Here SETUP request unknown by UDC and UDIs
#ifdef USB_DEVICE_SPECIFIC_REQUEST
	// Try to decode it in specific callback
	return USB_DEVICE_SPECIFIC_REQUEST(); // Ex: Vendor request,...
#else
	return false;
    461a:	80 e0       	ldi	r24, 0x00	; 0
    461c:	13 c0       	rjmp	.+38     	; 0x4644 <udc_process_setup+0x536>
    461e:	80 e0       	ldi	r24, 0x00	; 0
    4620:	11 c0       	rjmp	.+34     	; 0x4644 <udc_process_setup+0x536>
    4622:	80 e0       	ldi	r24, 0x00	; 0
    4624:	0f c0       	rjmp	.+30     	; 0x4644 <udc_process_setup+0x536>
			return false; // Error from USB host
		}
	}

	// If standard request then try to decode it in UDC
	if (Udd_setup_type() == USB_REQ_TYPE_STANDARD) {
    4626:	98 2f       	mov	r25, r24
    4628:	90 76       	andi	r25, 0x60	; 96
    462a:	09 f0       	breq	.+2      	; 0x462e <udc_process_setup+0x520>
    462c:	78 cf       	rjmp	.-272    	; 0x451e <udc_process_setup+0x410>
    462e:	88 cd       	rjmp	.-1264   	; 0x4140 <udc_process_setup+0x32>
    4630:	98 2f       	mov	r25, r24
    4632:	90 76       	andi	r25, 0x60	; 96
    4634:	09 f0       	breq	.+2      	; 0x4638 <udc_process_setup+0x52a>
    4636:	73 cf       	rjmp	.-282    	; 0x451e <udc_process_setup+0x410>
    4638:	8c ce       	rjmp	.-744    	; 0x4352 <udc_process_setup+0x244>
		str = udc_string_manufacturer_name;
		break;
#endif
#ifdef USB_DEVICE_PRODUCT_NAME
	case 2:
		str_length = USB_DEVICE_PRODUCT_NAME_SIZE;
    463a:	3d e0       	ldi	r19, 0x0D	; 13
		str = udc_string_product_name;
    463c:	ea e3       	ldi	r30, 0x3A	; 58
    463e:	f0 e2       	ldi	r31, 0x20	; 32
    4640:	ff cd       	rjmp	.-1026   	; 0x4240 <udc_process_setup+0x132>
	}

	// If standard request then try to decode it in UDC
	if (Udd_setup_type() == USB_REQ_TYPE_STANDARD) {
		if (udc_reqstd()) {
			return true;
    4642:	81 e0       	ldi	r24, 0x01	; 1
	// Try to decode it in specific callback
	return USB_DEVICE_SPECIFIC_REQUEST(); // Ex: Vendor request,...
#else
	return false;
#endif
}
    4644:	df 91       	pop	r29
    4646:	cf 91       	pop	r28
    4648:	1f 91       	pop	r17
    464a:	0f 91       	pop	r16
    464c:	08 95       	ret

0000464e <udd_sleep_mode>:
/*! \brief Authorize or not the CPU powerdown mode
 *
 * \param b_enable   true to authorize powerdown mode
 */
static void udd_sleep_mode(bool b_idle)
{
    464e:	cf 93       	push	r28
    4650:	df 93       	push	r29
    4652:	1f 92       	push	r1
    4654:	1f 92       	push	r1
    4656:	cd b7       	in	r28, 0x3d	; 61
    4658:	de b7       	in	r29, 0x3e	; 62
	if (!b_idle && udd_b_idle) {
    465a:	81 11       	cpse	r24, r1
    465c:	26 c0       	rjmp	.+76     	; 0x46aa <udd_sleep_mode+0x5c>
    465e:	90 91 30 26 	lds	r25, 0x2630	; 0x802630 <udd_b_idle>
    4662:	99 23       	and	r25, r25
    4664:	f9 f0       	breq	.+62     	; 0x46a4 <udd_sleep_mode+0x56>
static inline void sleepmgr_unlock_mode(enum sleepmgr_mode mode)
{
#ifdef CONFIG_SLEEPMGR_ENABLE
	irqflags_t flags;

	if(sleepmgr_locks[mode] == 0) {
    4666:	90 91 42 26 	lds	r25, 0x2642	; 0x802642 <sleepmgr_locks+0x1>
    466a:	91 11       	cpse	r25, r1
    466c:	01 c0       	rjmp	.+2      	; 0x4670 <udd_sleep_mode+0x22>
    466e:	ff cf       	rjmp	.-2      	; 0x466e <udd_sleep_mode+0x20>

typedef uint8_t irqflags_t;

static inline irqflags_t cpu_irq_save(void)
{
	volatile irqflags_t flags = SREG;
    4670:	9f b7       	in	r25, 0x3f	; 63
    4672:	9a 83       	std	Y+2, r25	; 0x02
	cpu_irq_disable();
    4674:	f8 94       	cli
	return flags;
    4676:	2a 81       	ldd	r18, Y+2	; 0x02
	}

	// Enter a critical section
	flags = cpu_irq_save();

	--sleepmgr_locks[mode];
    4678:	e1 e4       	ldi	r30, 0x41	; 65
    467a:	f6 e2       	ldi	r31, 0x26	; 38
    467c:	91 81       	ldd	r25, Z+1	; 0x01
    467e:	91 50       	subi	r25, 0x01	; 1
    4680:	91 83       	std	Z+1, r25	; 0x01
}

static inline void cpu_irq_restore(irqflags_t flags)
{
	barrier();
	SREG = flags;
    4682:	2f bf       	out	0x3f, r18	; 63
    4684:	0f c0       	rjmp	.+30     	; 0x46a4 <udd_sleep_mode+0x56>
static inline void sleepmgr_lock_mode(enum sleepmgr_mode mode)
{
#ifdef CONFIG_SLEEPMGR_ENABLE
	irqflags_t flags;

	if(sleepmgr_locks[mode] >= 0xff) {
    4686:	90 91 42 26 	lds	r25, 0x2642	; 0x802642 <sleepmgr_locks+0x1>
    468a:	9f 3f       	cpi	r25, 0xFF	; 255
    468c:	09 f4       	brne	.+2      	; 0x4690 <udd_sleep_mode+0x42>
    468e:	ff cf       	rjmp	.-2      	; 0x468e <udd_sleep_mode+0x40>

typedef uint8_t irqflags_t;

static inline irqflags_t cpu_irq_save(void)
{
	volatile irqflags_t flags = SREG;
    4690:	9f b7       	in	r25, 0x3f	; 63
    4692:	99 83       	std	Y+1, r25	; 0x01
	cpu_irq_disable();
    4694:	f8 94       	cli
	return flags;
    4696:	29 81       	ldd	r18, Y+1	; 0x01
	}

	// Enter a critical section
	flags = cpu_irq_save();

	++sleepmgr_locks[mode];
    4698:	e1 e4       	ldi	r30, 0x41	; 65
    469a:	f6 e2       	ldi	r31, 0x26	; 38
    469c:	91 81       	ldd	r25, Z+1	; 0x01
    469e:	9f 5f       	subi	r25, 0xFF	; 255
    46a0:	91 83       	std	Z+1, r25	; 0x01
}

static inline void cpu_irq_restore(irqflags_t flags)
{
	barrier();
	SREG = flags;
    46a2:	2f bf       	out	0x3f, r18	; 63
		sleepmgr_unlock_mode(USBC_SLEEP_MODE_USB_IDLE);
	}
	if (b_idle && !udd_b_idle) {
		sleepmgr_lock_mode(USBC_SLEEP_MODE_USB_IDLE);
	}
	udd_b_idle = b_idle;
    46a4:	80 93 30 26 	sts	0x2630, r24	; 0x802630 <udd_b_idle>
}
    46a8:	05 c0       	rjmp	.+10     	; 0x46b4 <udd_sleep_mode+0x66>
static void udd_sleep_mode(bool b_idle)
{
	if (!b_idle && udd_b_idle) {
		sleepmgr_unlock_mode(USBC_SLEEP_MODE_USB_IDLE);
	}
	if (b_idle && !udd_b_idle) {
    46aa:	90 91 30 26 	lds	r25, 0x2630	; 0x802630 <udd_b_idle>
    46ae:	99 23       	and	r25, r25
    46b0:	51 f3       	breq	.-44     	; 0x4686 <udd_sleep_mode+0x38>
    46b2:	f8 cf       	rjmp	.-16     	; 0x46a4 <udd_sleep_mode+0x56>
		sleepmgr_lock_mode(USBC_SLEEP_MODE_USB_IDLE);
	}
	udd_b_idle = b_idle;
}
    46b4:	0f 90       	pop	r0
    46b6:	0f 90       	pop	r0
    46b8:	df 91       	pop	r29
    46ba:	cf 91       	pop	r28
    46bc:	08 95       	ret

000046be <udd_ctrl_init>:

//--------------------------------------------------------
//--- INTERNAL ROUTINES TO MANAGED THE CONTROL ENDPOINT

static void udd_ctrl_init(void)
{
    46be:	0f 93       	push	r16
	udd_disable_overflow_interrupt();
    46c0:	e8 ec       	ldi	r30, 0xC8	; 200
    46c2:	f4 e0       	ldi	r31, 0x04	; 4
    46c4:	80 81       	ld	r24, Z
    46c6:	8f 7d       	andi	r24, 0xDF	; 223
    46c8:	80 83       	st	Z, r24
	udd_disable_underflow_interrupt();
    46ca:	80 81       	ld	r24, Z
    46cc:	8f 7d       	andi	r24, 0xDF	; 223
    46ce:	80 83       	st	Z, r24

	// Clear status flag from control endpoints
	// Mandatory for ATxmega128A1 Rev. K
	udd_control_in_set_NACK0();
    46d0:	e8 ef       	ldi	r30, 0xF8	; 248
    46d2:	f5 e2       	ldi	r31, 0x25	; 37
    46d4:	02 e0       	ldi	r16, 0x02	; 2
    46d6:	05 93       	las	Z, r16
	udd_control_in_set_bytecnt(0);
    46d8:	10 92 fa 25 	sts	0x25FA, r1	; 0x8025fa <udd_sram+0x1a>
    46dc:	10 92 fb 25 	sts	0x25FB, r1	; 0x8025fb <udd_sram+0x1b>
	udd_control_in_ack_tc();
    46e0:	00 e2       	ldi	r16, 0x20	; 32
    46e2:	06 93       	lac	Z, r16
	udd_control_ack_in_underflow();
    46e4:	00 e4       	ldi	r16, 0x40	; 64
    46e6:	06 93       	lac	Z, r16
	udd_control_ack_out_overflow();
    46e8:	e0 ef       	ldi	r30, 0xF0	; 240
    46ea:	f5 e2       	ldi	r31, 0x25	; 37
    46ec:	00 e4       	ldi	r16, 0x40	; 64
    46ee:	06 93       	lac	Z, r16

	udd_g_ctrlreq.callback = NULL;
    46f0:	e1 e3       	ldi	r30, 0x31	; 49
    46f2:	f6 e2       	ldi	r31, 0x26	; 38
    46f4:	14 86       	std	Z+12, r1	; 0x0c
    46f6:	15 86       	std	Z+13, r1	; 0x0d
	udd_g_ctrlreq.over_under_run = NULL;
    46f8:	16 86       	std	Z+14, r1	; 0x0e
    46fa:	17 86       	std	Z+15, r1	; 0x0f
	udd_g_ctrlreq.payload_size = 0;
    46fc:	12 86       	std	Z+10, r1	; 0x0a
    46fe:	13 86       	std	Z+11, r1	; 0x0b
	udd_ep_control_state = UDD_EPCTRL_SETUP;
    4700:	10 92 df 25 	sts	0x25DF, r1	; 0x8025df <udd_ep_control_state>
}
    4704:	0f 91       	pop	r16
    4706:	08 95       	ret

00004708 <udd_ctrl_stall_data>:
		udd_control_out_enable_stall();
	}
}

static void udd_ctrl_stall_data(void)
{
    4708:	0f 93       	push	r16
	// Stall all packets on IN & OUT control endpoint
	udd_ep_control_state = UDD_EPCTRL_STALL_REQ;
    470a:	85 e0       	ldi	r24, 0x05	; 5
    470c:	80 93 df 25 	sts	0x25DF, r24	; 0x8025df <udd_ep_control_state>
	udd_control_in_enable_stall();
    4710:	e9 ef       	ldi	r30, 0xF9	; 249
    4712:	f5 e2       	ldi	r31, 0x25	; 37
    4714:	04 e0       	ldi	r16, 0x04	; 4
    4716:	05 93       	las	Z, r16
	udd_control_out_enable_stall();
    4718:	e1 ef       	ldi	r30, 0xF1	; 241
    471a:	f5 e2       	ldi	r31, 0x25	; 37
    471c:	04 e0       	ldi	r16, 0x04	; 4
    471e:	05 93       	las	Z, r16
}
    4720:	0f 91       	pop	r16
    4722:	08 95       	ret

00004724 <udd_ctrl_send_zlp_in>:

static void udd_ctrl_send_zlp_in(void)
{
    4724:	0f 93       	push	r16
	udd_ep_control_state = UDD_EPCTRL_HANDSHAKE_WAIT_IN_ZLP;
    4726:	83 e0       	ldi	r24, 0x03	; 3
    4728:	80 93 df 25 	sts	0x25DF, r24	; 0x8025df <udd_ep_control_state>
	// Valid and sent empty IN packet on control endpoint
	udd_control_in_set_bytecnt(0);
    472c:	10 92 fa 25 	sts	0x25FA, r1	; 0x8025fa <udd_sram+0x1a>
    4730:	10 92 fb 25 	sts	0x25FB, r1	; 0x8025fb <udd_sram+0x1b>
	udd_control_in_clear_NACK0();
    4734:	e8 ef       	ldi	r30, 0xF8	; 248
    4736:	f5 e2       	ldi	r31, 0x25	; 37
    4738:	02 e0       	ldi	r16, 0x02	; 2
    473a:	06 93       	lac	Z, r16
}
    473c:	0f 91       	pop	r16
    473e:	08 95       	ret

00004740 <udd_ctrl_endofrequest>:
}

static void udd_ctrl_endofrequest(void)
{
	// If a callback is registered then call it
	if (udd_g_ctrlreq.callback) {
    4740:	e0 91 3d 26 	lds	r30, 0x263D	; 0x80263d <udd_g_ctrlreq+0xc>
    4744:	f0 91 3e 26 	lds	r31, 0x263E	; 0x80263e <udd_g_ctrlreq+0xd>
    4748:	30 97       	sbiw	r30, 0x00	; 0
    474a:	09 f0       	breq	.+2      	; 0x474e <udd_ctrl_endofrequest+0xe>
		udd_g_ctrlreq.callback();
    474c:	19 95       	eicall
    474e:	08 95       	ret

00004750 <udd_ctrl_in_sent>:
		udd_control_out_ack_tc();
	}
}

static void udd_ctrl_in_sent(void)
{
    4750:	0f 93       	push	r16
    4752:	cf 93       	push	r28
    4754:	df 93       	push	r29
	static bool b_shortpacket = false;
	uint16_t nb_remain;

	if (UDD_EPCTRL_HANDSHAKE_WAIT_IN_ZLP == udd_ep_control_state) {
    4756:	80 91 df 25 	lds	r24, 0x25DF	; 0x8025df <udd_ep_control_state>
    475a:	83 30       	cpi	r24, 0x03	; 3
    475c:	29 f4       	brne	.+10     	; 0x4768 <udd_ctrl_in_sent+0x18>
		// ZLP on IN is sent, then valid end of setup request
		udd_ctrl_endofrequest();
    475e:	0e 94 a0 23 	call	0x4740	; 0x4740 <udd_ctrl_endofrequest>
		// Reinitializes control endpoint management
		udd_ctrl_init();
    4762:	0e 94 5f 23 	call	0x46be	; 0x46be <udd_ctrl_init>
		return;
    4766:	5e c0       	rjmp	.+188    	; 0x4824 <udd_ctrl_in_sent+0xd4>
	}
	Assert(udd_ep_control_state == UDD_EPCTRL_DATA_IN);

	nb_remain = udd_g_ctrlreq.payload_size - udd_ctrl_payload_nb_trans;
    4768:	80 91 db 25 	lds	r24, 0x25DB	; 0x8025db <udd_ctrl_payload_nb_trans>
    476c:	90 91 dc 25 	lds	r25, 0x25DC	; 0x8025dc <udd_ctrl_payload_nb_trans+0x1>
    4770:	c0 91 3b 26 	lds	r28, 0x263B	; 0x80263b <udd_g_ctrlreq+0xa>
    4774:	d0 91 3c 26 	lds	r29, 0x263C	; 0x80263c <udd_g_ctrlreq+0xb>
    4778:	c8 1b       	sub	r28, r24
    477a:	d9 0b       	sbc	r29, r25
	if (0 == nb_remain) {
    477c:	71 f5       	brne	.+92     	; 0x47da <udd_ctrl_in_sent+0x8a>
		// Update number of total data sending by previous playload buffer
		udd_ctrl_prev_payload_nb_trans += udd_ctrl_payload_nb_trans;
    477e:	20 91 dd 25 	lds	r18, 0x25DD	; 0x8025dd <udd_ctrl_prev_payload_nb_trans>
    4782:	30 91 de 25 	lds	r19, 0x25DE	; 0x8025de <udd_ctrl_prev_payload_nb_trans+0x1>
    4786:	82 0f       	add	r24, r18
    4788:	93 1f       	adc	r25, r19
    478a:	80 93 dd 25 	sts	0x25DD, r24	; 0x8025dd <udd_ctrl_prev_payload_nb_trans>
    478e:	90 93 de 25 	sts	0x25DE, r25	; 0x8025de <udd_ctrl_prev_payload_nb_trans+0x1>
		if ((udd_g_ctrlreq.req.wLength == udd_ctrl_prev_payload_nb_trans)
    4792:	20 91 37 26 	lds	r18, 0x2637	; 0x802637 <udd_g_ctrlreq+0x6>
    4796:	30 91 38 26 	lds	r19, 0x2638	; 0x802638 <udd_g_ctrlreq+0x7>
    479a:	82 17       	cp	r24, r18
    479c:	93 07       	cpc	r25, r19
    479e:	21 f0       	breq	.+8      	; 0x47a8 <udd_ctrl_in_sent+0x58>
				|| b_shortpacket) {
    47a0:	80 91 f6 24 	lds	r24, 0x24F6	; 0x8024f6 <b_shortpacket.5638>
    47a4:	88 23       	and	r24, r24
    47a6:	41 f0       	breq	.+16     	; 0x47b8 <udd_ctrl_in_sent+0x68>
	udd_control_in_clear_NACK0();
}

static void udd_ctrl_send_zlp_out(void)
{
	udd_ep_control_state = UDD_EPCTRL_HANDSHAKE_WAIT_OUT_ZLP;
    47a8:	84 e0       	ldi	r24, 0x04	; 4
    47aa:	80 93 df 25 	sts	0x25DF, r24	; 0x8025df <udd_ep_control_state>
	// Valid reception of OUT packet on control endpoint
	udd_control_out_clear_NACK0();
    47ae:	e0 ef       	ldi	r30, 0xF0	; 240
    47b0:	f5 e2       	ldi	r31, 0x25	; 37
    47b2:	02 e0       	ldi	r16, 0x02	; 2
    47b4:	06 93       	lac	Z, r16
    47b6:	36 c0       	rjmp	.+108    	; 0x4824 <udd_ctrl_in_sent+0xd4>
			// Generate an OUT ZLP for handshake phase.
			udd_ctrl_send_zlp_out();
			return;
		}
		// Need of new buffer because the data phase is not complete
		if ((!udd_g_ctrlreq.over_under_run)
    47b8:	e0 91 3f 26 	lds	r30, 0x263F	; 0x80263f <udd_g_ctrlreq+0xe>
    47bc:	f0 91 40 26 	lds	r31, 0x2640	; 0x802640 <udd_g_ctrlreq+0xf>
    47c0:	30 97       	sbiw	r30, 0x00	; 0
    47c2:	99 f0       	breq	.+38     	; 0x47ea <udd_ctrl_in_sent+0x9a>
				|| (!udd_g_ctrlreq.over_under_run())) {
    47c4:	19 95       	eicall
    47c6:	88 23       	and	r24, r24
    47c8:	81 f0       	breq	.+32     	; 0x47ea <udd_ctrl_in_sent+0x9a>
			// Underrun then send zlp on IN
			// nb_remain == 0 allows to send a IN ZLP
		} else {
			// A new payload buffer is given
			udd_ctrl_payload_nb_trans = 0;
    47ca:	10 92 db 25 	sts	0x25DB, r1	; 0x8025db <udd_ctrl_payload_nb_trans>
    47ce:	10 92 dc 25 	sts	0x25DC, r1	; 0x8025dc <udd_ctrl_payload_nb_trans+0x1>
			nb_remain = udd_g_ctrlreq.payload_size;
    47d2:	c0 91 3b 26 	lds	r28, 0x263B	; 0x80263b <udd_g_ctrlreq+0xa>
    47d6:	d0 91 3c 26 	lds	r29, 0x263C	; 0x80263c <udd_g_ctrlreq+0xb>
		}
	}
	// Continue transfer an send next data
	if (nb_remain >= USB_DEVICE_EP_CTRL_SIZE) {
    47da:	c0 34       	cpi	r28, 0x40	; 64
    47dc:	d1 05       	cpc	r29, r1
    47de:	28 f0       	brcs	.+10     	; 0x47ea <udd_ctrl_in_sent+0x9a>
		nb_remain = USB_DEVICE_EP_CTRL_SIZE;
		b_shortpacket = false;
    47e0:	10 92 f6 24 	sts	0x24F6, r1	; 0x8024f6 <b_shortpacket.5638>
			nb_remain = udd_g_ctrlreq.payload_size;
		}
	}
	// Continue transfer an send next data
	if (nb_remain >= USB_DEVICE_EP_CTRL_SIZE) {
		nb_remain = USB_DEVICE_EP_CTRL_SIZE;
    47e4:	c0 e4       	ldi	r28, 0x40	; 64
    47e6:	d0 e0       	ldi	r29, 0x00	; 0
    47e8:	03 c0       	rjmp	.+6      	; 0x47f0 <udd_ctrl_in_sent+0xa0>
		b_shortpacket = false;
	} else {
		b_shortpacket = true;
    47ea:	81 e0       	ldi	r24, 0x01	; 1
    47ec:	80 93 f6 24 	sts	0x24F6, r24	; 0x8024f6 <b_shortpacket.5638>
	}
	udd_control_in_set_bytecnt(nb_remain);
    47f0:	e0 ee       	ldi	r30, 0xE0	; 224
    47f2:	f5 e2       	ldi	r31, 0x25	; 37
    47f4:	c2 8f       	std	Z+26, r28	; 0x1a
    47f6:	d3 8f       	std	Z+27, r29	; 0x1b

	// Link payload buffer directly on USB hardware
	udd_control_in_set_buf(udd_g_ctrlreq.payload + udd_ctrl_payload_nb_trans);
    47f8:	80 91 db 25 	lds	r24, 0x25DB	; 0x8025db <udd_ctrl_payload_nb_trans>
    47fc:	90 91 dc 25 	lds	r25, 0x25DC	; 0x8025dc <udd_ctrl_payload_nb_trans+0x1>
    4800:	20 91 39 26 	lds	r18, 0x2639	; 0x802639 <udd_g_ctrlreq+0x8>
    4804:	30 91 3a 26 	lds	r19, 0x263A	; 0x80263a <udd_g_ctrlreq+0x9>
    4808:	28 0f       	add	r18, r24
    480a:	39 1f       	adc	r19, r25
    480c:	24 8f       	std	Z+28, r18	; 0x1c
    480e:	35 8f       	std	Z+29, r19	; 0x1d
	udd_ctrl_payload_nb_trans += nb_remain;
    4810:	c8 0f       	add	r28, r24
    4812:	d9 1f       	adc	r29, r25
    4814:	c0 93 db 25 	sts	0x25DB, r28	; 0x8025db <udd_ctrl_payload_nb_trans>
    4818:	d0 93 dc 25 	sts	0x25DC, r29	; 0x8025dc <udd_ctrl_payload_nb_trans+0x1>

	// Valid and sent the data available in control endpoint buffer
	udd_control_in_clear_NACK0();
    481c:	e8 ef       	ldi	r30, 0xF8	; 248
    481e:	f5 e2       	ldi	r31, 0x25	; 37
    4820:	02 e0       	ldi	r16, 0x02	; 2
    4822:	06 93       	lac	Z, r16
}
    4824:	df 91       	pop	r29
    4826:	cf 91       	pop	r28
    4828:	0f 91       	pop	r16
    482a:	08 95       	ret

0000482c <udd_ep_get_size>:
#if (0!=USB_DEVICE_MAX_EP)

static uint16_t udd_ep_get_size(UDD_EP_t * ep_ctrl)
{
	// Translate hardware defines to USB endpoint size
	switch (udd_endpoint_get_size_field(ep_ctrl)) {
    482c:	fc 01       	movw	r30, r24
    482e:	81 81       	ldd	r24, Z+1	; 0x01
    4830:	e8 2f       	mov	r30, r24
    4832:	e7 70       	andi	r30, 0x07	; 7
    4834:	8e 2f       	mov	r24, r30
    4836:	90 e0       	ldi	r25, 0x00	; 0
    4838:	fc 01       	movw	r30, r24
    483a:	31 97       	sbiw	r30, 0x01	; 1
    483c:	e7 30       	cpi	r30, 0x07	; 7
    483e:	f1 05       	cpc	r31, r1
    4840:	d8 f4       	brcc	.+54     	; 0x4878 <udd_ep_get_size+0x4c>
    4842:	88 27       	eor	r24, r24
    4844:	e6 52       	subi	r30, 0x26	; 38
    4846:	fe 4f       	sbci	r31, 0xFE	; 254
    4848:	8f 4f       	sbci	r24, 0xFF	; 255
    484a:	0c 94 df 30 	jmp	0x61be	; 0x61be <__tablejump2__>
	default:
	case USB_EP_BUFSIZE_8_gc:
		return 8;
	case USB_EP_BUFSIZE_16_gc:
		return 16;
    484e:	80 e1       	ldi	r24, 0x10	; 16
    4850:	90 e0       	ldi	r25, 0x00	; 0
    4852:	08 95       	ret
	case USB_EP_BUFSIZE_32_gc:
		return 32;
    4854:	80 e2       	ldi	r24, 0x20	; 32
    4856:	90 e0       	ldi	r25, 0x00	; 0
    4858:	08 95       	ret
	case USB_EP_BUFSIZE_64_gc:
		return 64;
    485a:	80 e4       	ldi	r24, 0x40	; 64
    485c:	90 e0       	ldi	r25, 0x00	; 0
    485e:	08 95       	ret
	case USB_EP_BUFSIZE_128_gc:
		return 128;
    4860:	80 e8       	ldi	r24, 0x80	; 128
    4862:	90 e0       	ldi	r25, 0x00	; 0
    4864:	08 95       	ret
	case USB_EP_BUFSIZE_256_gc:
		return 256;
    4866:	80 e0       	ldi	r24, 0x00	; 0
    4868:	91 e0       	ldi	r25, 0x01	; 1
    486a:	08 95       	ret
	case USB_EP_BUFSIZE_512_gc:
		return 512;
    486c:	80 e0       	ldi	r24, 0x00	; 0
    486e:	92 e0       	ldi	r25, 0x02	; 2
    4870:	08 95       	ret
	case USB_EP_BUFSIZE_1023_gc:
		return 1023;
    4872:	8f ef       	ldi	r24, 0xFF	; 255
    4874:	93 e0       	ldi	r25, 0x03	; 3
    4876:	08 95       	ret
{
	// Translate hardware defines to USB endpoint size
	switch (udd_endpoint_get_size_field(ep_ctrl)) {
	default:
	case USB_EP_BUFSIZE_8_gc:
		return 8;
    4878:	88 e0       	ldi	r24, 0x08	; 8
    487a:	90 e0       	ldi	r25, 0x00	; 0
	case USB_EP_BUFSIZE_512_gc:
		return 512;
	case USB_EP_BUFSIZE_1023_gc:
		return 1023;
	}
}
    487c:	08 95       	ret

0000487e <udd_ep_get_job>:

static udd_ep_job_t *udd_ep_get_job(udd_ep_id_t ep)
{
	return &udd_ep_job[(2 * (ep & USB_EP_ADDR_MASK) +
    487e:	28 2f       	mov	r18, r24
    4880:	2f 70       	andi	r18, 0x0F	; 15
    4882:	30 e0       	ldi	r19, 0x00	; 0
    4884:	22 0f       	add	r18, r18
    4886:	33 1f       	adc	r19, r19
    4888:	08 2e       	mov	r0, r24
    488a:	00 0c       	add	r0, r0
    488c:	99 0b       	sbc	r25, r25
    488e:	88 27       	eor	r24, r24
    4890:	99 0f       	add	r25, r25
    4892:	88 1f       	adc	r24, r24
    4894:	99 27       	eor	r25, r25
    4896:	82 0f       	add	r24, r18
    4898:	93 1f       	adc	r25, r19
    489a:	02 97       	sbiw	r24, 0x02	; 2
    489c:	9c 01       	movw	r18, r24
    489e:	22 0f       	add	r18, r18
    48a0:	33 1f       	adc	r19, r19
    48a2:	22 0f       	add	r18, r18
    48a4:	33 1f       	adc	r19, r19
    48a6:	22 0f       	add	r18, r18
    48a8:	33 1f       	adc	r19, r19
    48aa:	82 0f       	add	r24, r18
    48ac:	93 1f       	adc	r25, r19
		((ep & USB_EP_DIR_IN) ? 1 : 0)) - 2];
}
    48ae:	89 58       	subi	r24, 0x89	; 137
    48b0:	9a 4d       	sbci	r25, 0xDA	; 218
    48b2:	08 95       	ret

000048b4 <udd_ctrl_interrupt_tc_setup>:
	}
	return false;
}

static bool udd_ctrl_interrupt_tc_setup(void)
{
    48b4:	0f 93       	push	r16
    48b6:	cf 93       	push	r28
	if (!udd_is_setup_event()) {
    48b8:	80 91 cc 04 	lds	r24, 0x04CC	; 0x8004cc <__TEXT_REGION_LENGTH__+0x7004cc>
    48bc:	80 ff       	sbrs	r24, 0
    48be:	6a c0       	rjmp	.+212    	; 0x4994 <udd_ctrl_interrupt_tc_setup+0xe0>
		return false;
	}
	udd_ack_setup_event();
    48c0:	81 e0       	ldi	r24, 0x01	; 1
    48c2:	80 93 cc 04 	sts	0x04CC, r24	; 0x8004cc <__TEXT_REGION_LENGTH__+0x7004cc>

	// Clear eventually previous stall events
	udd_control_out_ack_stall();
    48c6:	e0 ef       	ldi	r30, 0xF0	; 240
    48c8:	f5 e2       	ldi	r31, 0x25	; 37
    48ca:	00 e8       	ldi	r16, 0x80	; 128
    48cc:	06 93       	lac	Z, r16
	udd_control_in_ack_stall();
    48ce:	e8 ef       	ldi	r30, 0xF8	; 248
    48d0:	f5 e2       	ldi	r31, 0x25	; 37
    48d2:	00 e8       	ldi	r16, 0x80	; 128
    48d4:	06 93       	lac	Z, r16
	udd_ack_stall_event();
    48d6:	80 93 ca 04 	sts	0x04CA, r24	; 0x8004ca <__TEXT_REGION_LENGTH__+0x7004ca>

	Assert(udd_control_setup()); // A setup must be received on control endpoint

	// Ack SETUP packet and decode request
	udd_control_ack_setup();
    48da:	e0 ef       	ldi	r30, 0xF0	; 240
    48dc:	f5 e2       	ldi	r31, 0x25	; 37
    48de:	00 e1       	ldi	r16, 0x10	; 16
    48e0:	06 93       	lac	Z, r16
	udd_ep_control_state = UDD_EPCTRL_SETUP;
}

static void udd_ctrl_setup_received(void)
{
	if (UDD_EPCTRL_SETUP != udd_ep_control_state) {
    48e2:	80 91 df 25 	lds	r24, 0x25DF	; 0x8025df <udd_ep_control_state>
    48e6:	88 23       	and	r24, r24
    48e8:	39 f0       	breq	.+14     	; 0x48f8 <udd_ctrl_interrupt_tc_setup+0x44>
		if ((UDD_EPCTRL_HANDSHAKE_WAIT_IN_ZLP == udd_ep_control_state)
    48ea:	83 50       	subi	r24, 0x03	; 3
    48ec:	82 30       	cpi	r24, 0x02	; 2
    48ee:	10 f4       	brcc	.+4      	; 0x48f4 <udd_ctrl_interrupt_tc_setup+0x40>
				|| (UDD_EPCTRL_HANDSHAKE_WAIT_OUT_ZLP == udd_ep_control_state)) {
			// Accept that ZLP event can be hidden by setup packet event
			// in case of setup packet sending quickly after a ZLP
			udd_ctrl_endofrequest();
    48f0:	0e 94 a0 23 	call	0x4740	; 0x4740 <udd_ctrl_endofrequest>
		}
		// Reinitializes control endpoint management
		udd_ctrl_init();
    48f4:	0e 94 5f 23 	call	0x46be	; 0x46be <udd_ctrl_init>
	}
	// Fill setup request structure
	if (8 != udd_control_out_get_bytecnt())
    48f8:	80 91 f2 25 	lds	r24, 0x25F2	; 0x8025f2 <udd_sram+0x12>
    48fc:	90 91 f3 25 	lds	r25, 0x25F3	; 0x8025f3 <udd_sram+0x13>
    4900:	08 97       	sbiw	r24, 0x08	; 8
    4902:	09 f0       	breq	.+2      	; 0x4906 <udd_ctrl_interrupt_tc_setup+0x52>
    4904:	49 c0       	rjmp	.+146    	; 0x4998 <udd_ctrl_interrupt_tc_setup+0xe4>
		return; // Error data number don't correspond to SETUP packet
	memcpy((uint8_t *) & udd_g_ctrlreq.req, udd_ctrl_buffer, 8);
    4906:	88 e0       	ldi	r24, 0x08	; 8
    4908:	eb e9       	ldi	r30, 0x9B	; 155
    490a:	f5 e2       	ldi	r31, 0x25	; 37
    490c:	a1 e3       	ldi	r26, 0x31	; 49
    490e:	b6 e2       	ldi	r27, 0x26	; 38
    4910:	01 90       	ld	r0, Z+
    4912:	0d 92       	st	X+, r0
    4914:	8a 95       	dec	r24
    4916:	e1 f7       	brne	.-8      	; 0x4910 <udd_ctrl_interrupt_tc_setup+0x5c>

	// To detect a protocol error on setup, enable nak interrupt on IN/OUT of control endpoint
	udd_enable_overflow_interrupt();
    4918:	e8 ec       	ldi	r30, 0xC8	; 200
    491a:	f4 e0       	ldi	r31, 0x04	; 4
    491c:	80 81       	ld	r24, Z
    491e:	80 62       	ori	r24, 0x20	; 32
    4920:	80 83       	st	Z, r24
	udd_enable_underflow_interrupt();
    4922:	80 81       	ld	r24, Z
    4924:	80 62       	ori	r24, 0x20	; 32
    4926:	80 83       	st	Z, r24

	// Decode setup request
	if (udc_process_setup() == false) {
    4928:	0e 94 87 20 	call	0x410e	; 0x410e <udc_process_setup>
    492c:	c8 2f       	mov	r28, r24
    492e:	81 11       	cpse	r24, r1
    4930:	04 c0       	rjmp	.+8      	; 0x493a <udd_ctrl_interrupt_tc_setup+0x86>
		// Setup request unknown then stall it
		udd_ctrl_stall_data();
    4932:	0e 94 84 23 	call	0x4708	; 0x4708 <udd_ctrl_stall_data>
	Assert(udd_control_setup()); // A setup must be received on control endpoint

	// Ack SETUP packet and decode request
	udd_control_ack_setup();
	udd_ctrl_setup_received();
	return true;
    4936:	c1 e0       	ldi	r28, 0x01	; 1
    4938:	30 c0       	rjmp	.+96     	; 0x499a <udd_ctrl_interrupt_tc_setup+0xe6>
		// Setup request unknown then stall it
		udd_ctrl_stall_data();
		return;
	}

	if (Udd_setup_is_in()) {
    493a:	80 91 31 26 	lds	r24, 0x2631	; 0x802631 <udd_g_ctrlreq>
    493e:	88 23       	and	r24, r24
    4940:	74 f4       	brge	.+28     	; 0x495e <udd_ctrl_interrupt_tc_setup+0xaa>
		udd_ctrl_prev_payload_nb_trans = 0;
    4942:	10 92 dd 25 	sts	0x25DD, r1	; 0x8025dd <udd_ctrl_prev_payload_nb_trans>
    4946:	10 92 de 25 	sts	0x25DE, r1	; 0x8025de <udd_ctrl_prev_payload_nb_trans+0x1>
		udd_ctrl_payload_nb_trans = 0;
    494a:	10 92 db 25 	sts	0x25DB, r1	; 0x8025db <udd_ctrl_payload_nb_trans>
    494e:	10 92 dc 25 	sts	0x25DC, r1	; 0x8025dc <udd_ctrl_payload_nb_trans+0x1>
		udd_ep_control_state = UDD_EPCTRL_DATA_IN;
    4952:	82 e0       	ldi	r24, 0x02	; 2
    4954:	80 93 df 25 	sts	0x25DF, r24	; 0x8025df <udd_ep_control_state>
		udd_ctrl_in_sent(); // Send first data transfer
    4958:	0e 94 a8 23 	call	0x4750	; 0x4750 <udd_ctrl_in_sent>
    495c:	1e c0       	rjmp	.+60     	; 0x499a <udd_ctrl_interrupt_tc_setup+0xe6>
	} else {
		if (0 == udd_g_ctrlreq.req.wLength) {
    495e:	80 91 37 26 	lds	r24, 0x2637	; 0x802637 <udd_g_ctrlreq+0x6>
    4962:	90 91 38 26 	lds	r25, 0x2638	; 0x802638 <udd_g_ctrlreq+0x7>
    4966:	89 2b       	or	r24, r25
    4968:	19 f4       	brne	.+6      	; 0x4970 <udd_ctrl_interrupt_tc_setup+0xbc>
			// No data phase requested
			// Send IN ZLP to ACK setup request
			udd_ctrl_send_zlp_in();
    496a:	0e 94 92 23 	call	0x4724	; 0x4724 <udd_ctrl_send_zlp_in>
    496e:	15 c0       	rjmp	.+42     	; 0x499a <udd_ctrl_interrupt_tc_setup+0xe6>
			return;
		}
		// OUT data phase requested
		udd_ctrl_prev_payload_nb_trans = 0;
    4970:	10 92 dd 25 	sts	0x25DD, r1	; 0x8025dd <udd_ctrl_prev_payload_nb_trans>
    4974:	10 92 de 25 	sts	0x25DE, r1	; 0x8025de <udd_ctrl_prev_payload_nb_trans+0x1>
		udd_ctrl_payload_nb_trans = 0;
    4978:	10 92 db 25 	sts	0x25DB, r1	; 0x8025db <udd_ctrl_payload_nb_trans>
    497c:	10 92 dc 25 	sts	0x25DC, r1	; 0x8025dc <udd_ctrl_payload_nb_trans+0x1>
		udd_ep_control_state = UDD_EPCTRL_DATA_OUT;
    4980:	81 e0       	ldi	r24, 0x01	; 1
    4982:	80 93 df 25 	sts	0x25DF, r24	; 0x8025df <udd_ep_control_state>
		// Clear packet to receive first packet
		udd_control_out_clear_NACK0();
    4986:	e0 ef       	ldi	r30, 0xF0	; 240
    4988:	f5 e2       	ldi	r31, 0x25	; 37
    498a:	02 e0       	ldi	r16, 0x02	; 2
    498c:	06 93       	lac	Z, r16
		udd_control_out_ack_tc();
    498e:	00 e2       	ldi	r16, 0x20	; 32
    4990:	06 93       	lac	Z, r16
    4992:	03 c0       	rjmp	.+6      	; 0x499a <udd_ctrl_interrupt_tc_setup+0xe6>
}

static bool udd_ctrl_interrupt_tc_setup(void)
{
	if (!udd_is_setup_event()) {
		return false;
    4994:	c0 e0       	ldi	r28, 0x00	; 0
    4996:	01 c0       	rjmp	.+2      	; 0x499a <udd_ctrl_interrupt_tc_setup+0xe6>
	Assert(udd_control_setup()); // A setup must be received on control endpoint

	// Ack SETUP packet and decode request
	udd_control_ack_setup();
	udd_ctrl_setup_received();
	return true;
    4998:	c1 e0       	ldi	r28, 0x01	; 1
}
    499a:	8c 2f       	mov	r24, r28
    499c:	cf 91       	pop	r28
    499e:	0f 91       	pop	r16
    49a0:	08 95       	ret

000049a2 <udd_ep_trans_complet>:
	}
	return (USB_DEVICE_MAX_EP >= ep);
}

static void udd_ep_trans_complet(udd_ep_id_t ep)
{
    49a2:	8f 92       	push	r8
    49a4:	9f 92       	push	r9
    49a6:	af 92       	push	r10
    49a8:	bf 92       	push	r11
    49aa:	df 92       	push	r13
    49ac:	ef 92       	push	r14
    49ae:	ff 92       	push	r15
    49b0:	0f 93       	push	r16
    49b2:	1f 93       	push	r17
    49b4:	cf 93       	push	r28
    49b6:	df 93       	push	r29
    49b8:	d8 2e       	mov	r13, r24
	UDD_EP_t *ep_ctrl;
	udd_ep_job_t *ptr_job;
	uint16_t ep_size, nb_trans;
	iram_size_t next_trans;

	ptr_job = udd_ep_get_job(ep);
    49ba:	0e 94 3f 24 	call	0x487e	; 0x487e <udd_ep_get_job>
    49be:	8c 01       	movw	r16, r24
	udd_endpoint_set_control(ep_ctrl, (uint8_t) type | (uint8_t) size);
}

static UDD_EP_t *udd_ep_get_ctrl(udd_ep_id_t ep)
{
	return &udd_sram.ep_ctrl[(2 * (ep & USB_EP_ADDR_MASK) +
    49c0:	cd 2d       	mov	r28, r13
    49c2:	cf 70       	andi	r28, 0x0F	; 15
    49c4:	d0 e0       	ldi	r29, 0x00	; 0
    49c6:	ce 01       	movw	r24, r28
    49c8:	88 0f       	add	r24, r24
    49ca:	99 1f       	adc	r25, r25
    49cc:	cd 2d       	mov	r28, r13
    49ce:	0d 2c       	mov	r0, r13
    49d0:	00 0c       	add	r0, r0
    49d2:	dd 0b       	sbc	r29, r29
    49d4:	cc 27       	eor	r28, r28
    49d6:	dd 0f       	add	r29, r29
    49d8:	cc 1f       	adc	r28, r28
    49da:	dd 27       	eor	r29, r29
    49dc:	c8 0f       	add	r28, r24
    49de:	d9 1f       	adc	r29, r25
    49e0:	ce 01       	movw	r24, r28
    49e2:	88 0f       	add	r24, r24
    49e4:	99 1f       	adc	r25, r25
    49e6:	88 0f       	add	r24, r24
    49e8:	99 1f       	adc	r25, r25
    49ea:	88 0f       	add	r24, r24
    49ec:	99 1f       	adc	r25, r25
    49ee:	9c 01       	movw	r18, r24
    49f0:	20 51       	subi	r18, 0x10	; 16
    49f2:	3a 4d       	sbci	r19, 0xDA	; 218
    49f4:	79 01       	movw	r14, r18
	uint16_t ep_size, nb_trans;
	iram_size_t next_trans;

	ptr_job = udd_ep_get_job(ep);
	ep_ctrl = udd_ep_get_ctrl(ep);
	ep_size = udd_ep_get_size(ep_ctrl);
    49f6:	c9 01       	movw	r24, r18
    49f8:	0e 94 16 24 	call	0x482c	; 0x482c <udd_ep_get_size>
    49fc:	4c 01       	movw	r8, r24

	if (USB_EP_DIR_IN == (ep & USB_EP_DIR_IN)) {
    49fe:	dd 20       	and	r13, r13
    4a00:	0c f0       	brlt	.+2      	; 0x4a04 <udd_ep_trans_complet+0x62>
    4a02:	72 c0       	rjmp	.+228    	; 0x4ae8 <udd_ep_trans_complet+0x146>
		// Transfer complete on IN
		nb_trans = udd_endpoint_in_nb_sent(ep_ctrl);
    4a04:	fe 01       	movw	r30, r28
    4a06:	ee 0f       	add	r30, r30
    4a08:	ff 1f       	adc	r31, r31
    4a0a:	ee 0f       	add	r30, r30
    4a0c:	ff 1f       	adc	r31, r31
    4a0e:	ee 0f       	add	r30, r30
    4a10:	ff 1f       	adc	r31, r31
    4a12:	e0 52       	subi	r30, 0x20	; 32
    4a14:	fa 4d       	sbci	r31, 0xDA	; 218
    4a16:	26 89       	ldd	r18, Z+22	; 0x16
    4a18:	37 89       	ldd	r19, Z+23	; 0x17

		// Update number of data transfered
		ptr_job->nb_trans += nb_trans;
    4a1a:	d8 01       	movw	r26, r16
    4a1c:	15 96       	adiw	r26, 0x05	; 5
    4a1e:	8d 91       	ld	r24, X+
    4a20:	9c 91       	ld	r25, X
    4a22:	16 97       	sbiw	r26, 0x06	; 6
    4a24:	82 0f       	add	r24, r18
    4a26:	93 1f       	adc	r25, r19
    4a28:	15 96       	adiw	r26, 0x05	; 5
    4a2a:	8d 93       	st	X+, r24
    4a2c:	9c 93       	st	X, r25
    4a2e:	16 97       	sbiw	r26, 0x06	; 6

		// Need to send other data
		if (ptr_job->nb_trans != ptr_job->buf_size) {
    4a30:	13 96       	adiw	r26, 0x03	; 3
    4a32:	2d 91       	ld	r18, X+
    4a34:	3c 91       	ld	r19, X
    4a36:	14 97       	sbiw	r26, 0x04	; 4
    4a38:	82 17       	cp	r24, r18
    4a3a:	93 07       	cpc	r25, r19
    4a3c:	09 f4       	brne	.+2      	; 0x4a40 <udd_ep_trans_complet+0x9e>
    4a3e:	3e c0       	rjmp	.+124    	; 0x4abc <udd_ep_trans_complet+0x11a>
			next_trans = ptr_job->buf_size - ptr_job->nb_trans;
    4a40:	28 1b       	sub	r18, r24
    4a42:	39 0b       	sbc	r19, r25
			if (UDD_ENDPOINT_MAX_TRANS < next_trans) {
    4a44:	21 15       	cp	r18, r1
    4a46:	b4 e0       	ldi	r27, 0x04	; 4
    4a48:	3b 07       	cpc	r19, r27
    4a4a:	40 f0       	brcs	.+16     	; 0x4a5c <udd_ep_trans_complet+0xba>
				// The USB hardware support a maximum
				// transfer size of UDD_ENDPOINT_MAX_TRANS Bytes
				next_trans = UDD_ENDPOINT_MAX_TRANS -
    4a4c:	2f ef       	ldi	r18, 0xFF	; 255
    4a4e:	33 e0       	ldi	r19, 0x03	; 3
    4a50:	c9 01       	movw	r24, r18
    4a52:	b4 01       	movw	r22, r8
    4a54:	0e 94 76 30 	call	0x60ec	; 0x60ec <__udivmodhi4>
    4a58:	28 1b       	sub	r18, r24
    4a5a:	39 0b       	sbc	r19, r25
					(UDD_ENDPOINT_MAX_TRANS % ep_size);
			}
			// Need ZLP, if requested and last packet is not a short packet
			ptr_job->b_shortpacket = ptr_job->b_shortpacket
				&& (0==(next_trans % ep_size));
    4a5c:	f8 01       	movw	r30, r16
    4a5e:	80 81       	ld	r24, Z
    4a60:	81 ff       	sbrs	r24, 1
    4a62:	0a c0       	rjmp	.+20     	; 0x4a78 <udd_ep_trans_complet+0xd6>
    4a64:	c9 01       	movw	r24, r18
    4a66:	b4 01       	movw	r22, r8
    4a68:	0e 94 76 30 	call	0x60ec	; 0x60ec <__udivmodhi4>
    4a6c:	41 e0       	ldi	r20, 0x01	; 1
    4a6e:	89 2b       	or	r24, r25
    4a70:	09 f0       	breq	.+2      	; 0x4a74 <udd_ep_trans_complet+0xd2>
    4a72:	40 e0       	ldi	r20, 0x00	; 0
    4a74:	84 2f       	mov	r24, r20
    4a76:	01 c0       	rjmp	.+2      	; 0x4a7a <udd_ep_trans_complet+0xd8>
    4a78:	80 e0       	ldi	r24, 0x00	; 0
				// transfer size of UDD_ENDPOINT_MAX_TRANS Bytes
				next_trans = UDD_ENDPOINT_MAX_TRANS -
					(UDD_ENDPOINT_MAX_TRANS % ep_size);
			}
			// Need ZLP, if requested and last packet is not a short packet
			ptr_job->b_shortpacket = ptr_job->b_shortpacket
    4a7a:	d8 01       	movw	r26, r16
    4a7c:	9c 91       	ld	r25, X
    4a7e:	80 fb       	bst	r24, 0
    4a80:	91 f9       	bld	r25, 1
    4a82:	9c 93       	st	X, r25
				&& (0==(next_trans % ep_size));
			udd_endpoint_in_reset_nb_sent(ep_ctrl);
    4a84:	cc 0f       	add	r28, r28
    4a86:	dd 1f       	adc	r29, r29
    4a88:	cc 0f       	add	r28, r28
    4a8a:	dd 1f       	adc	r29, r29
    4a8c:	cc 0f       	add	r28, r28
    4a8e:	dd 1f       	adc	r29, r29
    4a90:	c0 52       	subi	r28, 0x20	; 32
    4a92:	da 4d       	sbci	r29, 0xDA	; 218
    4a94:	1e 8a       	std	Y+22, r1	; 0x16
    4a96:	1f 8a       	std	Y+23, r1	; 0x17
			udd_endpoint_in_set_bytecnt(ep_ctrl, next_trans);
    4a98:	2a 8b       	std	Y+18, r18	; 0x12
    4a9a:	3b 8b       	std	Y+19, r19	; 0x13
			// Link the user buffer directly on USB hardware DMA
			udd_endpoint_set_buf(ep_ctrl, &ptr_job->buf[ptr_job->nb_trans]);
    4a9c:	11 96       	adiw	r26, 0x01	; 1
    4a9e:	2d 91       	ld	r18, X+
    4aa0:	3c 91       	ld	r19, X
    4aa2:	12 97       	sbiw	r26, 0x02	; 2
    4aa4:	15 96       	adiw	r26, 0x05	; 5
    4aa6:	8d 91       	ld	r24, X+
    4aa8:	9c 91       	ld	r25, X
    4aaa:	16 97       	sbiw	r26, 0x06	; 6
    4aac:	82 0f       	add	r24, r18
    4aae:	93 1f       	adc	r25, r19
    4ab0:	8c 8b       	std	Y+20, r24	; 0x14
    4ab2:	9d 8b       	std	Y+21, r25	; 0x15
			udd_endpoint_clear_NACK0(ep_ctrl);
    4ab4:	f7 01       	movw	r30, r14
    4ab6:	02 e0       	ldi	r16, 0x02	; 2
    4ab8:	06 93       	lac	Z, r16
			return;
    4aba:	ca c0       	rjmp	.+404    	; 0x4c50 <udd_ep_trans_complet+0x2ae>
		}

		// Need to send a ZLP after all data transfer
		if (ptr_job->b_shortpacket) {
    4abc:	d8 01       	movw	r26, r16
    4abe:	8c 91       	ld	r24, X
    4ac0:	81 ff       	sbrs	r24, 1
    4ac2:	b3 c0       	rjmp	.+358    	; 0x4c2a <udd_ep_trans_complet+0x288>
			ptr_job->b_shortpacket = false;
    4ac4:	8d 7f       	andi	r24, 0xFD	; 253
    4ac6:	8c 93       	st	X, r24
			udd_endpoint_in_reset_nb_sent(ep_ctrl);
    4ac8:	cc 0f       	add	r28, r28
    4aca:	dd 1f       	adc	r29, r29
    4acc:	cc 0f       	add	r28, r28
    4ace:	dd 1f       	adc	r29, r29
    4ad0:	cc 0f       	add	r28, r28
    4ad2:	dd 1f       	adc	r29, r29
    4ad4:	c0 52       	subi	r28, 0x20	; 32
    4ad6:	da 4d       	sbci	r29, 0xDA	; 218
    4ad8:	1e 8a       	std	Y+22, r1	; 0x16
    4ada:	1f 8a       	std	Y+23, r1	; 0x17
			udd_endpoint_in_set_bytecnt(ep_ctrl, 0);
    4adc:	1a 8a       	std	Y+18, r1	; 0x12
    4ade:	1b 8a       	std	Y+19, r1	; 0x13
			udd_endpoint_clear_NACK0(ep_ctrl);
    4ae0:	f7 01       	movw	r30, r14
    4ae2:	02 e0       	ldi	r16, 0x02	; 2
    4ae4:	06 93       	lac	Z, r16
			return;
    4ae6:	b4 c0       	rjmp	.+360    	; 0x4c50 <udd_ep_trans_complet+0x2ae>
		}
	}
	else
	{
		// Transfer complete on OUT
		nb_trans = udd_endpoint_out_nb_receiv(ep_ctrl);
    4ae8:	fe 01       	movw	r30, r28
    4aea:	ee 0f       	add	r30, r30
    4aec:	ff 1f       	adc	r31, r31
    4aee:	ee 0f       	add	r30, r30
    4af0:	ff 1f       	adc	r31, r31
    4af2:	ee 0f       	add	r30, r30
    4af4:	ff 1f       	adc	r31, r31
    4af6:	e0 52       	subi	r30, 0x20	; 32
    4af8:	fa 4d       	sbci	r31, 0xDA	; 218
    4afa:	a2 88       	ldd	r10, Z+18	; 0x12
    4afc:	b3 88       	ldd	r11, Z+19	; 0x13

		// Can be necessary to copy data receive from cache buffer to user buffer
		if (ptr_job->b_use_out_cache_buffer) {
    4afe:	d8 01       	movw	r26, r16
    4b00:	8c 91       	ld	r24, X
    4b02:	82 ff       	sbrs	r24, 2
    4b04:	1b c0       	rjmp	.+54     	; 0x4b3c <udd_ep_trans_complet+0x19a>
			memcpy(&ptr_job->buf[ptr_job->nb_trans]
    4b06:	11 96       	adiw	r26, 0x01	; 1
    4b08:	ed 91       	ld	r30, X+
    4b0a:	fc 91       	ld	r31, X
    4b0c:	12 97       	sbiw	r26, 0x02	; 2
    4b0e:	15 96       	adiw	r26, 0x05	; 5
    4b10:	2d 91       	ld	r18, X+
    4b12:	3c 91       	ld	r19, X
    4b14:	16 97       	sbiw	r26, 0x06	; 6
    4b16:	13 96       	adiw	r26, 0x03	; 3
    4b18:	8d 91       	ld	r24, X+
    4b1a:	9c 91       	ld	r25, X
    4b1c:	14 97       	sbiw	r26, 0x04	; 4
    4b1e:	b4 01       	movw	r22, r8
    4b20:	0e 94 76 30 	call	0x60ec	; 0x60ec <__udivmodhi4>
    4b24:	b0 e4       	ldi	r27, 0x40	; 64
    4b26:	db 9e       	mul	r13, r27
    4b28:	b0 01       	movw	r22, r0
    4b2a:	11 24       	eor	r1, r1
    4b2c:	69 54       	subi	r22, 0x49	; 73
    4b2e:	7b 4d       	sbci	r23, 0xDB	; 219
    4b30:	ac 01       	movw	r20, r24
    4b32:	cf 01       	movw	r24, r30
    4b34:	82 0f       	add	r24, r18
    4b36:	93 1f       	adc	r25, r19
    4b38:	0e 94 11 31 	call	0x6222	; 0x6222 <memcpy>
				, udd_ep_out_cache_buffer[ep - 1]
				, ptr_job->buf_size % ep_size);
		}

		// Update number of data transfered
		ptr_job->nb_trans += nb_trans;
    4b3c:	f8 01       	movw	r30, r16
    4b3e:	25 81       	ldd	r18, Z+5	; 0x05
    4b40:	36 81       	ldd	r19, Z+6	; 0x06
    4b42:	2a 0d       	add	r18, r10
    4b44:	3b 1d       	adc	r19, r11
    4b46:	25 83       	std	Z+5, r18	; 0x05
    4b48:	36 83       	std	Z+6, r19	; 0x06
		if (ptr_job->nb_trans > ptr_job->buf_size) {
    4b4a:	83 81       	ldd	r24, Z+3	; 0x03
    4b4c:	94 81       	ldd	r25, Z+4	; 0x04
    4b4e:	82 17       	cp	r24, r18
    4b50:	93 07       	cpc	r25, r19
    4b52:	68 f4       	brcc	.+26     	; 0x4b6e <udd_ep_trans_complet+0x1cc>
			ptr_job->nb_trans = ptr_job->buf_size;
    4b54:	85 83       	std	Z+5, r24	; 0x05
    4b56:	96 83       	std	Z+6, r25	; 0x06
		}

		// If all previous data requested are received and user buffer not full
		// then need to receive other data
		if ((nb_trans == udd_endpoint_out_get_nbbyte_requested(ep_ctrl))
    4b58:	cc 0f       	add	r28, r28
    4b5a:	dd 1f       	adc	r29, r29
    4b5c:	cc 0f       	add	r28, r28
    4b5e:	dd 1f       	adc	r29, r29
    4b60:	cc 0f       	add	r28, r28
    4b62:	dd 1f       	adc	r29, r29
    4b64:	c0 52       	subi	r28, 0x20	; 32
    4b66:	da 4d       	sbci	r29, 0xDA	; 218
    4b68:	8e 89       	ldd	r24, Y+22	; 0x16
    4b6a:	9f 89       	ldd	r25, Y+23	; 0x17
    4b6c:	5e c0       	rjmp	.+188    	; 0x4c2a <udd_ep_trans_complet+0x288>
    4b6e:	fe 01       	movw	r30, r28
    4b70:	ee 0f       	add	r30, r30
    4b72:	ff 1f       	adc	r31, r31
    4b74:	ee 0f       	add	r30, r30
    4b76:	ff 1f       	adc	r31, r31
    4b78:	ee 0f       	add	r30, r30
    4b7a:	ff 1f       	adc	r31, r31
    4b7c:	e0 52       	subi	r30, 0x20	; 32
    4b7e:	fa 4d       	sbci	r31, 0xDA	; 218
    4b80:	46 89       	ldd	r20, Z+22	; 0x16
    4b82:	57 89       	ldd	r21, Z+23	; 0x17
    4b84:	a4 16       	cp	r10, r20
    4b86:	b5 06       	cpc	r11, r21
    4b88:	09 f0       	breq	.+2      	; 0x4b8c <udd_ep_trans_complet+0x1ea>
    4b8a:	4f c0       	rjmp	.+158    	; 0x4c2a <udd_ep_trans_complet+0x288>
			&& (ptr_job->nb_trans != ptr_job->buf_size)) {
    4b8c:	28 17       	cp	r18, r24
    4b8e:	39 07       	cpc	r19, r25
    4b90:	09 f4       	brne	.+2      	; 0x4b94 <udd_ep_trans_complet+0x1f2>
    4b92:	4b c0       	rjmp	.+150    	; 0x4c2a <udd_ep_trans_complet+0x288>
			next_trans = ptr_job->buf_size - ptr_job->nb_trans;
    4b94:	ac 01       	movw	r20, r24
    4b96:	42 1b       	sub	r20, r18
    4b98:	53 0b       	sbc	r21, r19
    4b9a:	9a 01       	movw	r18, r20
			if (UDD_ENDPOINT_MAX_TRANS < next_trans) {
    4b9c:	21 15       	cp	r18, r1
    4b9e:	54 e0       	ldi	r21, 0x04	; 4
    4ba0:	35 07       	cpc	r19, r21
    4ba2:	48 f0       	brcs	.+18     	; 0x4bb6 <udd_ep_trans_complet+0x214>
				// The USB hardware support a maximum transfer size
				// of UDD_ENDPOINT_MAX_TRANS Bytes
				next_trans = UDD_ENDPOINT_MAX_TRANS
    4ba4:	2f ef       	ldi	r18, 0xFF	; 255
    4ba6:	33 e0       	ldi	r19, 0x03	; 3
    4ba8:	c9 01       	movw	r24, r18
    4baa:	b4 01       	movw	r22, r8
    4bac:	0e 94 76 30 	call	0x60ec	; 0x60ec <__udivmodhi4>
    4bb0:	28 1b       	sub	r18, r24
    4bb2:	39 0b       	sbc	r19, r25
    4bb4:	06 c0       	rjmp	.+12     	; 0x4bc2 <udd_ep_trans_complet+0x220>
					- (UDD_ENDPOINT_MAX_TRANS % ep_size);
			} else {
				next_trans -= next_trans % ep_size;
    4bb6:	c9 01       	movw	r24, r18
    4bb8:	b4 01       	movw	r22, r8
    4bba:	0e 94 76 30 	call	0x60ec	; 0x60ec <__udivmodhi4>
    4bbe:	28 1b       	sub	r18, r24
    4bc0:	39 0b       	sbc	r19, r25
			}

			udd_endpoint_out_reset_nb_received(ep_ctrl);
    4bc2:	fe 01       	movw	r30, r28
    4bc4:	ee 0f       	add	r30, r30
    4bc6:	ff 1f       	adc	r31, r31
    4bc8:	ee 0f       	add	r30, r30
    4bca:	ff 1f       	adc	r31, r31
    4bcc:	ee 0f       	add	r30, r30
    4bce:	ff 1f       	adc	r31, r31
    4bd0:	e0 52       	subi	r30, 0x20	; 32
    4bd2:	fa 4d       	sbci	r31, 0xDA	; 218
    4bd4:	12 8a       	std	Z+18, r1	; 0x12
    4bd6:	13 8a       	std	Z+19, r1	; 0x13
			if (next_trans < ep_size) {
    4bd8:	28 15       	cp	r18, r8
    4bda:	39 05       	cpc	r19, r9
    4bdc:	78 f4       	brcc	.+30     	; 0x4bfc <udd_ep_trans_complet+0x25a>
				// Use the cache buffer for Bulk or Interrupt size endpoint
				ptr_job->b_use_out_cache_buffer = true;
    4bde:	d8 01       	movw	r26, r16
    4be0:	8c 91       	ld	r24, X
    4be2:	84 60       	ori	r24, 0x04	; 4
    4be4:	8c 93       	st	X, r24
				udd_endpoint_set_buf( ep_ctrl,
    4be6:	b0 e4       	ldi	r27, 0x40	; 64
    4be8:	db 9e       	mul	r13, r27
    4bea:	c0 01       	movw	r24, r0
    4bec:	11 24       	eor	r1, r1
    4bee:	89 54       	subi	r24, 0x49	; 73
    4bf0:	9b 4d       	sbci	r25, 0xDB	; 219
    4bf2:	84 8b       	std	Z+20, r24	; 0x14
    4bf4:	95 8b       	std	Z+21, r25	; 0x15
					udd_ep_out_cache_buffer[ep - 1]);
				udd_endpoint_out_set_nbbyte(ep_ctrl, ep_size);
    4bf6:	86 8a       	std	Z+22, r8	; 0x16
    4bf8:	97 8a       	std	Z+23, r9	; 0x17
    4bfa:	13 c0       	rjmp	.+38     	; 0x4c22 <udd_ep_trans_complet+0x280>
			} else {
				// Link the user buffer directly on USB hardware DMA
				udd_endpoint_set_buf(ep_ctrl, &ptr_job->buf[ptr_job->nb_trans]);
    4bfc:	f8 01       	movw	r30, r16
    4bfe:	41 81       	ldd	r20, Z+1	; 0x01
    4c00:	52 81       	ldd	r21, Z+2	; 0x02
    4c02:	85 81       	ldd	r24, Z+5	; 0x05
    4c04:	96 81       	ldd	r25, Z+6	; 0x06
    4c06:	84 0f       	add	r24, r20
    4c08:	95 1f       	adc	r25, r21
    4c0a:	cc 0f       	add	r28, r28
    4c0c:	dd 1f       	adc	r29, r29
    4c0e:	cc 0f       	add	r28, r28
    4c10:	dd 1f       	adc	r29, r29
    4c12:	cc 0f       	add	r28, r28
    4c14:	dd 1f       	adc	r29, r29
    4c16:	c0 52       	subi	r28, 0x20	; 32
    4c18:	da 4d       	sbci	r29, 0xDA	; 218
    4c1a:	8c 8b       	std	Y+20, r24	; 0x14
    4c1c:	9d 8b       	std	Y+21, r25	; 0x15
				udd_endpoint_out_set_nbbyte(ep_ctrl, next_trans);
    4c1e:	2e 8b       	std	Y+22, r18	; 0x16
    4c20:	3f 8b       	std	Y+23, r19	; 0x17
			}
			// Start transfer
			udd_endpoint_clear_NACK0(ep_ctrl);
    4c22:	f7 01       	movw	r30, r14
    4c24:	02 e0       	ldi	r16, 0x02	; 2
    4c26:	06 93       	lac	Z, r16
			return;
    4c28:	13 c0       	rjmp	.+38     	; 0x4c50 <udd_ep_trans_complet+0x2ae>
		}
	}

	// Job complete then call callback
	if (ptr_job->busy) {
    4c2a:	d8 01       	movw	r26, r16
    4c2c:	8c 91       	ld	r24, X
    4c2e:	80 ff       	sbrs	r24, 0
    4c30:	0f c0       	rjmp	.+30     	; 0x4c50 <udd_ep_trans_complet+0x2ae>
		ptr_job->busy = false;
    4c32:	8e 7f       	andi	r24, 0xFE	; 254
    4c34:	8c 93       	st	X, r24
		if (NULL != ptr_job->call_trans) {
    4c36:	17 96       	adiw	r26, 0x07	; 7
    4c38:	ed 91       	ld	r30, X+
    4c3a:	fc 91       	ld	r31, X
    4c3c:	18 97       	sbiw	r26, 0x08	; 8
    4c3e:	30 97       	sbiw	r30, 0x00	; 0
    4c40:	39 f0       	breq	.+14     	; 0x4c50 <udd_ep_trans_complet+0x2ae>
			ptr_job->call_trans(UDD_EP_TRANSFER_OK,
    4c42:	15 96       	adiw	r26, 0x05	; 5
    4c44:	6d 91       	ld	r22, X+
    4c46:	7c 91       	ld	r23, X
    4c48:	16 97       	sbiw	r26, 0x06	; 6
    4c4a:	4d 2d       	mov	r20, r13
    4c4c:	80 e0       	ldi	r24, 0x00	; 0
    4c4e:	19 95       	eicall
				ptr_job->nb_trans,
				ep);
		}
	}
	return;
}
    4c50:	df 91       	pop	r29
    4c52:	cf 91       	pop	r28
    4c54:	1f 91       	pop	r17
    4c56:	0f 91       	pop	r16
    4c58:	ff 90       	pop	r15
    4c5a:	ef 90       	pop	r14
    4c5c:	df 90       	pop	r13
    4c5e:	bf 90       	pop	r11
    4c60:	af 90       	pop	r10
    4c62:	9f 90       	pop	r9
    4c64:	8f 90       	pop	r8
    4c66:	08 95       	ret

00004c68 <udd_disable>:
	cpu_irq_restore(flags);
}


void udd_disable(void)
{
    4c68:	1f 93       	push	r17
    4c6a:	cf 93       	push	r28
    4c6c:	df 93       	push	r29
    4c6e:	1f 92       	push	r1
    4c70:	1f 92       	push	r1
    4c72:	cd b7       	in	r28, 0x3d	; 61
    4c74:	de b7       	in	r29, 0x3e	; 62

typedef uint8_t irqflags_t;

static inline irqflags_t cpu_irq_save(void)
{
	volatile irqflags_t flags = SREG;
    4c76:	8f b7       	in	r24, 0x3f	; 63
    4c78:	89 83       	std	Y+1, r24	; 0x01
	cpu_irq_disable();
    4c7a:	f8 94       	cli
	return flags;
    4c7c:	19 81       	ldd	r17, Y+1	; 0x01
	irqflags_t flags;
	flags = cpu_irq_save();
	udd_detach_device();
    4c7e:	e1 ec       	ldi	r30, 0xC1	; 193
    4c80:	f4 e0       	ldi	r31, 0x04	; 4
    4c82:	80 81       	ld	r24, Z
    4c84:	8e 7f       	andi	r24, 0xFE	; 254
    4c86:	80 83       	st	Z, r24
	// Disable interface
	USB_CTRLA = 0;
    4c88:	10 92 c0 04 	sts	0x04C0, r1	; 0x8004c0 <__TEXT_REGION_LENGTH__+0x7004c0>
	USB_CTRLB = 0;
    4c8c:	10 82       	st	Z, r1
	sysclk_disable_usb();
    4c8e:	0e 94 90 2c 	call	0x5920	; 0x5920 <sysclk_disable_usb>
	udd_sleep_mode(false);
    4c92:	80 e0       	ldi	r24, 0x00	; 0
    4c94:	0e 94 27 23 	call	0x464e	; 0x464e <udd_sleep_mode>
static inline void sleepmgr_unlock_mode(enum sleepmgr_mode mode)
{
#ifdef CONFIG_SLEEPMGR_ENABLE
	irqflags_t flags;

	if(sleepmgr_locks[mode] == 0) {
    4c98:	80 91 46 26 	lds	r24, 0x2646	; 0x802646 <sleepmgr_locks+0x5>
    4c9c:	81 11       	cpse	r24, r1
    4c9e:	01 c0       	rjmp	.+2      	; 0x4ca2 <udd_disable+0x3a>
    4ca0:	ff cf       	rjmp	.-2      	; 0x4ca0 <udd_disable+0x38>

typedef uint8_t irqflags_t;

static inline irqflags_t cpu_irq_save(void)
{
	volatile irqflags_t flags = SREG;
    4ca2:	8f b7       	in	r24, 0x3f	; 63
    4ca4:	8a 83       	std	Y+2, r24	; 0x02
	cpu_irq_disable();
    4ca6:	f8 94       	cli
	return flags;
    4ca8:	9a 81       	ldd	r25, Y+2	; 0x02
	}

	// Enter a critical section
	flags = cpu_irq_save();

	--sleepmgr_locks[mode];
    4caa:	e1 e4       	ldi	r30, 0x41	; 65
    4cac:	f6 e2       	ldi	r31, 0x26	; 38
    4cae:	85 81       	ldd	r24, Z+5	; 0x05
    4cb0:	81 50       	subi	r24, 0x01	; 1
    4cb2:	85 83       	std	Z+5, r24	; 0x05
}

static inline void cpu_irq_restore(irqflags_t flags)
{
	barrier();
	SREG = flags;
    4cb4:	9f bf       	out	0x3f, r25	; 63
    4cb6:	1f bf       	out	0x3f, r17	; 63
#ifndef UDD_NO_SLEEP_MGR
	sleepmgr_unlock_mode(USBC_SLEEP_MODE_USB_SUSPEND);
#endif
	cpu_irq_restore(flags);
}
    4cb8:	0f 90       	pop	r0
    4cba:	0f 90       	pop	r0
    4cbc:	df 91       	pop	r29
    4cbe:	cf 91       	pop	r28
    4cc0:	1f 91       	pop	r17
    4cc2:	08 95       	ret

00004cc4 <udd_include_vbus_monitoring>:

bool udd_include_vbus_monitoring(void)
{
	return false; // No Vbus monitoring
}
    4cc4:	80 e0       	ldi	r24, 0x00	; 0
    4cc6:	08 95       	ret

00004cc8 <udd_attach>:

void udd_attach(void)
{
    4cc8:	1f 93       	push	r17
    4cca:	cf 93       	push	r28
    4ccc:	df 93       	push	r29
    4cce:	1f 92       	push	r1
    4cd0:	cd b7       	in	r28, 0x3d	; 61
    4cd2:	de b7       	in	r29, 0x3e	; 62

typedef uint8_t irqflags_t;

static inline irqflags_t cpu_irq_save(void)
{
	volatile irqflags_t flags = SREG;
    4cd4:	8f b7       	in	r24, 0x3f	; 63
    4cd6:	89 83       	std	Y+1, r24	; 0x01
	cpu_irq_disable();
    4cd8:	f8 94       	cli
	return flags;
    4cda:	19 81       	ldd	r17, Y+1	; 0x01
	irqflags_t flags;
	flags = cpu_irq_save();

	// At startup the USB bus state is unknown,
	// therefore the state is considered IDLE to not miss any USB event
	udd_sleep_mode(true);
    4cdc:	81 e0       	ldi	r24, 0x01	; 1
    4cde:	0e 94 27 23 	call	0x464e	; 0x464e <udd_sleep_mode>

	udd_ack_suspend_event();
    4ce2:	ea ec       	ldi	r30, 0xCA	; 202
    4ce4:	f4 e0       	ldi	r31, 0x04	; 4
    4ce6:	80 e4       	ldi	r24, 0x40	; 64
    4ce8:	80 83       	st	Z, r24
	udd_ack_resume_event();
    4cea:	80 e2       	ldi	r24, 0x20	; 32
    4cec:	80 83       	st	Z, r24
	udd_attach_device();
    4cee:	e1 ec       	ldi	r30, 0xC1	; 193
    4cf0:	f4 e0       	ldi	r31, 0x04	; 4
    4cf2:	80 81       	ld	r24, Z
    4cf4:	81 60       	ori	r24, 0x01	; 1
    4cf6:	80 83       	st	Z, r24
	// Enable main USB interrupts
	udd_enable_tc_interrupt();
    4cf8:	a9 ec       	ldi	r26, 0xC9	; 201
    4cfa:	b4 e0       	ldi	r27, 0x04	; 4
    4cfc:	8c 91       	ld	r24, X
    4cfe:	82 60       	ori	r24, 0x02	; 2
    4d00:	8c 93       	st	X, r24
	udd_enable_busevt_interrupt();
    4d02:	e8 ec       	ldi	r30, 0xC8	; 200
    4d04:	f4 e0       	ldi	r31, 0x04	; 4
    4d06:	80 81       	ld	r24, Z
    4d08:	80 64       	ori	r24, 0x40	; 64
    4d0a:	80 83       	st	Z, r24
	udd_enable_setup_interrupt();
    4d0c:	8c 91       	ld	r24, X
    4d0e:	81 60       	ori	r24, 0x01	; 1
    4d10:	8c 93       	st	X, r24
	udd_enable_start_of_frame_interrupt();
    4d12:	80 81       	ld	r24, Z
    4d14:	80 68       	ori	r24, 0x80	; 128
    4d16:	80 83       	st	Z, r24
}

static inline void cpu_irq_restore(irqflags_t flags)
{
	barrier();
	SREG = flags;
    4d18:	1f bf       	out	0x3f, r17	; 63

	cpu_irq_restore(flags);
}
    4d1a:	0f 90       	pop	r0
    4d1c:	df 91       	pop	r29
    4d1e:	cf 91       	pop	r28
    4d20:	1f 91       	pop	r17
    4d22:	08 95       	ret

00004d24 <udd_enable>:
#endif // (0!=USB_DEVICE_MAX_EP)
//@}


void udd_enable(void)
{
    4d24:	0f 93       	push	r16
    4d26:	1f 93       	push	r17
    4d28:	cf 93       	push	r28
    4d2a:	df 93       	push	r29
    4d2c:	1f 92       	push	r1
    4d2e:	1f 92       	push	r1
    4d30:	cd b7       	in	r28, 0x3d	; 61
    4d32:	de b7       	in	r29, 0x3e	; 62
# if CONFIG_OSC_AUTOCAL_RC32MHZ_REF_OSC == OSC_ID_USBSOF
	// RC oscillator calibration via USB Start Of Frame is not available
	// in low speed mode.
	// Thus, the calibration is disabled
	// when USB interface start in low speed mode
	DFLLRC32M.CTRL = 0;
    4d34:	00 e6       	ldi	r16, 0x60	; 96
    4d36:	10 e0       	ldi	r17, 0x00	; 0
    4d38:	f8 01       	movw	r30, r16
    4d3a:	10 82       	st	Z, r1
	// The USB hardware need of 6MHz in low speed mode
	sysclk_enable_usb(6);
	udd_set_low_speed();
#else
	// The USB hardware need of 48MHz in full speed mode
	sysclk_enable_usb(48);
    4d3c:	80 e3       	ldi	r24, 0x30	; 48
    4d3e:	0e 94 49 2c 	call	0x5892	; 0x5892 <sysclk_enable_usb>
	udd_set_full_speed();
    4d42:	e0 ec       	ldi	r30, 0xC0	; 192
    4d44:	f4 e0       	ldi	r31, 0x04	; 4
    4d46:	80 81       	ld	r24, Z
    4d48:	80 64       	ori	r24, 0x40	; 64
    4d4a:	80 83       	st	Z, r24
// The XMEGA_A1U does not support the RC calibration through Keepalive (Low speed).
#if (!defined USB_DEVICE_LOW_SPEED) || (!XMEGA_A1U)
# ifdef CONFIG_OSC_AUTOCAL_RC32MHZ_REF_OSC
#   if CONFIG_OSC_AUTOCAL_RC32MHZ_REF_OSC == OSC_ID_USBSOF
	// The SOF calibration can be enabled
	DFLLRC32M.CTRL = DFLL_ENABLE_bm;
    4d4c:	81 e0       	ldi	r24, 0x01	; 1
    4d4e:	f8 01       	movw	r30, r16
    4d50:	80 83       	st	Z, r24

typedef uint8_t irqflags_t;

static inline irqflags_t cpu_irq_save(void)
{
	volatile irqflags_t flags = SREG;
    4d52:	8f b7       	in	r24, 0x3f	; 63
    4d54:	8a 83       	std	Y+2, r24	; 0x02
	cpu_irq_disable();
    4d56:	f8 94       	cli
	return flags;
    4d58:	1a 81       	ldd	r17, Y+2	; 0x02

	flags = cpu_irq_save();

	// Reset endpoints table
	for (i = 0; i < ((USB_DEVICE_MAX_EP + 1) * 2); i++) {
		udd_sram.ep_ctrl[i].CTRL = 0;
    4d5a:	e0 ee       	ldi	r30, 0xE0	; 224
    4d5c:	f5 e2       	ldi	r31, 0x25	; 37
    4d5e:	11 8a       	std	Z+17, r1	; 0x11
    4d60:	11 8e       	std	Z+25, r1	; 0x19
    4d62:	11 a2       	std	Z+33, r1	; 0x21
    4d64:	11 a6       	std	Z+41, r1	; 0x29
    4d66:	11 aa       	std	Z+49, r1	; 0x31
    4d68:	11 ae       	std	Z+57, r1	; 0x39
	}
#if (0!=USB_DEVICE_MAX_EP)
	// Reset internal variables
	for (i = 0; i < (USB_DEVICE_MAX_EP * 2); i++) {
		udd_ep_job[i].busy = false;
    4d6a:	e7 e7       	ldi	r30, 0x77	; 119
    4d6c:	f5 e2       	ldi	r31, 0x25	; 37
    4d6e:	80 81       	ld	r24, Z
    4d70:	8e 7f       	andi	r24, 0xFE	; 254
    4d72:	80 83       	st	Z, r24
    4d74:	e0 e8       	ldi	r30, 0x80	; 128
    4d76:	f5 e2       	ldi	r31, 0x25	; 37
    4d78:	80 81       	ld	r24, Z
    4d7a:	8e 7f       	andi	r24, 0xFE	; 254
    4d7c:	80 83       	st	Z, r24
    4d7e:	e9 e8       	ldi	r30, 0x89	; 137
    4d80:	f5 e2       	ldi	r31, 0x25	; 37
    4d82:	80 81       	ld	r24, Z
    4d84:	8e 7f       	andi	r24, 0xFE	; 254
    4d86:	80 83       	st	Z, r24
    4d88:	e2 e9       	ldi	r30, 0x92	; 146
    4d8a:	f5 e2       	ldi	r31, 0x25	; 37
    4d8c:	80 81       	ld	r24, Z
    4d8e:	8e 7f       	andi	r24, 0xFE	; 254
    4d90:	80 83       	st	Z, r24
 *
 * \param address Byte offset into the signature row
 */
static inline uint8_t nvm_read_production_signature_row(uint8_t address)
{
	return nvm_read_byte(NVM_CMD_READ_CALIB_ROW_gc, address);
    4d92:	6a e1       	ldi	r22, 0x1A	; 26
    4d94:	70 e0       	ldi	r23, 0x00	; 0
    4d96:	82 e0       	ldi	r24, 0x02	; 2
    4d98:	0e 94 36 30 	call	0x606c	; 0x606c <nvm_read_byte>
#ifdef USB_PAD_USER_CAL0
	USB_CAL0 = USB_PAD_USER_CAL0;
#else
	cal = nvm_read_production_signature_row
			(nvm_get_production_signature_row_offset(USBCAL0));
	if (cal != 0xFF) {
    4d9c:	8f 3f       	cpi	r24, 0xFF	; 255
    4d9e:	19 f0       	breq	.+6      	; 0x4da6 <udd_enable+0x82>
		USB_CAL0 = cal;
    4da0:	80 93 fa 04 	sts	0x04FA, r24	; 0x8004fa <__TEXT_REGION_LENGTH__+0x7004fa>
    4da4:	03 c0       	rjmp	.+6      	; 0x4dac <udd_enable+0x88>
	} else {
		USB_CAL0 = 0x1F;
    4da6:	8f e1       	ldi	r24, 0x1F	; 31
    4da8:	80 93 fa 04 	sts	0x04FA, r24	; 0x8004fa <__TEXT_REGION_LENGTH__+0x7004fa>
    4dac:	6b e1       	ldi	r22, 0x1B	; 27
    4dae:	70 e0       	ldi	r23, 0x00	; 0
    4db0:	82 e0       	ldi	r24, 0x02	; 2
    4db2:	0e 94 36 30 	call	0x606c	; 0x606c <nvm_read_byte>
#ifdef USB_PAD_USER_CAL1
	USB_CAL1 = USB_PAD_USER_CAL1;
#else
	cal = nvm_read_production_signature_row
			(nvm_get_production_signature_row_offset(USBCAL1));
	if (cal != 0xFF) {
    4db6:	8f 3f       	cpi	r24, 0xFF	; 255
    4db8:	19 f0       	breq	.+6      	; 0x4dc0 <udd_enable+0x9c>
		USB_CAL1 = cal;
    4dba:	80 93 fb 04 	sts	0x04FB, r24	; 0x8004fb <__TEXT_REGION_LENGTH__+0x7004fb>
    4dbe:	03 c0       	rjmp	.+6      	; 0x4dc6 <udd_enable+0xa2>
	} else {
		USB_CAL1 = 0x1F;
    4dc0:	8f e1       	ldi	r24, 0x1F	; 31
    4dc2:	80 93 fb 04 	sts	0x04FB, r24	; 0x8004fb <__TEXT_REGION_LENGTH__+0x7004fb>
	}
#endif

	//** Enable USB hardware
	usb_pad_init();
	udd_set_nb_max_ep(USB_DEVICE_MAX_EP);
    4dc6:	e0 ec       	ldi	r30, 0xC0	; 192
    4dc8:	f4 e0       	ldi	r31, 0x04	; 4
    4dca:	80 81       	ld	r24, Z
    4dcc:	82 60       	ori	r24, 0x02	; 2
    4dce:	80 83       	st	Z, r24
	udd_enable_interface();
    4dd0:	80 81       	ld	r24, Z
    4dd2:	80 68       	ori	r24, 0x80	; 128
    4dd4:	80 83       	st	Z, r24
	udd_enable_store_frame_number();
    4dd6:	80 81       	ld	r24, Z
    4dd8:	80 61       	ori	r24, 0x10	; 16
    4dda:	80 83       	st	Z, r24
#if XMEGA_A1U
	Assert(((uint16_t)(&udd_sram) & 0x0F) == 0); /* check align on 16bit */
#else
	Assert(((uint16_t)(&udd_sram) & 0x01) == 0); /* check align on WORD */
#endif
	udd_set_ep_table_addr(udd_sram.ep_ctrl);
    4ddc:	80 ef       	ldi	r24, 0xF0	; 240
    4dde:	95 e2       	ldi	r25, 0x25	; 37
    4de0:	86 83       	std	Z+6, r24	; 0x06
    4de2:	97 83       	std	Z+7, r25	; 0x07
	// Enable TC fifo management
	udd_enable_fifo();
    4de4:	80 81       	ld	r24, Z
    4de6:	80 62       	ori	r24, 0x20	; 32
    4de8:	80 83       	st	Z, r24
	udd_reset_fifo();
    4dea:	8f ef       	ldi	r24, 0xFF	; 255
    4dec:	80 93 c5 04 	sts	0x04C5, r24	; 0x8004c5 <__TEXT_REGION_LENGTH__+0x7004c5>
	// Enable Interrupt USB Device
	udd_enable_interrupt(UDD_USB_INT_LEVEL);
    4df0:	e8 ec       	ldi	r30, 0xC8	; 200
    4df2:	f4 e0       	ldi	r31, 0x04	; 4
    4df4:	80 81       	ld	r24, Z
    4df6:	81 60       	ori	r24, 0x01	; 1
    4df8:	80 83       	st	Z, r24

#ifndef UDD_NO_SLEEP_MGR
	// Initialize the sleep mode authorized for the USB suspend mode
	udd_b_idle = false;
    4dfa:	10 92 30 26 	sts	0x2630, r1	; 0x802630 <udd_b_idle>
static inline void sleepmgr_lock_mode(enum sleepmgr_mode mode)
{
#ifdef CONFIG_SLEEPMGR_ENABLE
	irqflags_t flags;

	if(sleepmgr_locks[mode] >= 0xff) {
    4dfe:	80 91 46 26 	lds	r24, 0x2646	; 0x802646 <sleepmgr_locks+0x5>
    4e02:	8f 3f       	cpi	r24, 0xFF	; 255
    4e04:	09 f4       	brne	.+2      	; 0x4e08 <udd_enable+0xe4>
    4e06:	ff cf       	rjmp	.-2      	; 0x4e06 <udd_enable+0xe2>

typedef uint8_t irqflags_t;

static inline irqflags_t cpu_irq_save(void)
{
	volatile irqflags_t flags = SREG;
    4e08:	8f b7       	in	r24, 0x3f	; 63
    4e0a:	89 83       	std	Y+1, r24	; 0x01
	cpu_irq_disable();
    4e0c:	f8 94       	cli
	return flags;
    4e0e:	99 81       	ldd	r25, Y+1	; 0x01
	}

	// Enter a critical section
	flags = cpu_irq_save();

	++sleepmgr_locks[mode];
    4e10:	e1 e4       	ldi	r30, 0x41	; 65
    4e12:	f6 e2       	ldi	r31, 0x26	; 38
    4e14:	85 81       	ldd	r24, Z+5	; 0x05
    4e16:	8f 5f       	subi	r24, 0xFF	; 255
    4e18:	85 83       	std	Z+5, r24	; 0x05
}

static inline void cpu_irq_restore(irqflags_t flags)
{
	barrier();
	SREG = flags;
    4e1a:	9f bf       	out	0x3f, r25	; 63
	sleepmgr_lock_mode(USBC_SLEEP_MODE_USB_SUSPEND);
#endif

#ifndef USB_DEVICE_ATTACH_AUTO_DISABLE
	udd_attach();
    4e1c:	0e 94 64 26 	call	0x4cc8	; 0x4cc8 <udd_attach>
    4e20:	1f bf       	out	0x3f, r17	; 63
#endif
	cpu_irq_restore(flags);
}
    4e22:	0f 90       	pop	r0
    4e24:	0f 90       	pop	r0
    4e26:	df 91       	pop	r29
    4e28:	cf 91       	pop	r28
    4e2a:	1f 91       	pop	r17
    4e2c:	0f 91       	pop	r16
    4e2e:	08 95       	ret

00004e30 <udd_detach>:
}

void udd_detach(void)
{
	// Detach device from the bus
	udd_detach_device();
    4e30:	e1 ec       	ldi	r30, 0xC1	; 193
    4e32:	f4 e0       	ldi	r31, 0x04	; 4
    4e34:	80 81       	ld	r24, Z
    4e36:	8e 7f       	andi	r24, 0xFE	; 254
    4e38:	80 83       	st	Z, r24
    4e3a:	08 95       	ret

00004e3c <udd_is_high_speed>:
}

bool udd_is_high_speed(void)
{
	return false;
}
    4e3c:	80 e0       	ldi	r24, 0x00	; 0
    4e3e:	08 95       	ret

00004e40 <udd_set_address>:

void udd_set_address(uint8_t address)
{
	udd_set_device_address(address);
    4e40:	80 93 c3 04 	sts	0x04C3, r24	; 0x8004c3 <__TEXT_REGION_LENGTH__+0x7004c3>
    4e44:	08 95       	ret

00004e46 <udd_getaddress>:
}

uint8_t udd_getaddress(void)
{
	return udd_get_device_address();
    4e46:	80 91 c3 04 	lds	r24, 0x04C3	; 0x8004c3 <__TEXT_REGION_LENGTH__+0x7004c3>
}
    4e4a:	08 95       	ret

00004e4c <udd_get_frame_number>:

uint16_t udd_get_frame_number(void)
{
	return udd_sram.frame_number;
    4e4c:	80 91 20 26 	lds	r24, 0x2620	; 0x802620 <udd_sram+0x40>
    4e50:	90 91 21 26 	lds	r25, 0x2621	; 0x802621 <udd_sram+0x41>
}
    4e54:	08 95       	ret

00004e56 <udd_get_micro_frame_number>:

uint16_t udd_get_micro_frame_number(void)
{
	return 0;
}
    4e56:	80 e0       	ldi	r24, 0x00	; 0
    4e58:	90 e0       	ldi	r25, 0x00	; 0
    4e5a:	08 95       	ret

00004e5c <udd_send_remotewakeup>:

void udd_send_remotewakeup(void)
{
#ifndef UDD_NO_SLEEP_MGR
	if (!udd_b_idle)
    4e5c:	80 91 30 26 	lds	r24, 0x2630	; 0x802630 <udd_b_idle>
    4e60:	81 11       	cpse	r24, r1
    4e62:	0b c0       	rjmp	.+22     	; 0x4e7a <udd_send_remotewakeup+0x1e>
#endif
	{
		udd_sleep_mode(true); // Enter in IDLE mode
    4e64:	81 e0       	ldi	r24, 0x01	; 1
    4e66:	0e 94 27 23 	call	0x464e	; 0x464e <udd_sleep_mode>
		udd_send_remote_wake_up();
    4e6a:	e1 ec       	ldi	r30, 0xC1	; 193
    4e6c:	f4 e0       	ldi	r31, 0x04	; 4
    4e6e:	80 81       	ld	r24, Z
    4e70:	8b 7f       	andi	r24, 0xFB	; 251
    4e72:	80 83       	st	Z, r24
    4e74:	80 81       	ld	r24, Z
    4e76:	84 60       	ori	r24, 0x04	; 4
    4e78:	80 83       	st	Z, r24
    4e7a:	08 95       	ret

00004e7c <udd_set_setup_payload>:
	}
}

void udd_set_setup_payload( uint8_t *payload, uint16_t payload_size )
{
	udd_g_ctrlreq.payload = payload;
    4e7c:	e1 e3       	ldi	r30, 0x31	; 49
    4e7e:	f6 e2       	ldi	r31, 0x26	; 38
    4e80:	80 87       	std	Z+8, r24	; 0x08
    4e82:	91 87       	std	Z+9, r25	; 0x09
	udd_g_ctrlreq.payload_size = payload_size;
    4e84:	62 87       	std	Z+10, r22	; 0x0a
    4e86:	73 87       	std	Z+11, r23	; 0x0b
    4e88:	08 95       	ret

00004e8a <udd_ep_alloc>:
	udd_endpoint_set_control(ep_ctrl, (uint8_t) type | (uint8_t) size);
}

static UDD_EP_t *udd_ep_get_ctrl(udd_ep_id_t ep)
{
	return &udd_sram.ep_ctrl[(2 * (ep & USB_EP_ADDR_MASK) +
    4e8a:	28 2f       	mov	r18, r24
    4e8c:	2f 70       	andi	r18, 0x0F	; 15
    4e8e:	30 e0       	ldi	r19, 0x00	; 0
    4e90:	22 0f       	add	r18, r18
    4e92:	33 1f       	adc	r19, r19
    4e94:	08 2e       	mov	r0, r24
    4e96:	00 0c       	add	r0, r0
    4e98:	99 0b       	sbc	r25, r25
    4e9a:	88 27       	eor	r24, r24
    4e9c:	99 0f       	add	r25, r25
    4e9e:	88 1f       	adc	r24, r24
    4ea0:	99 27       	eor	r25, r25
    4ea2:	82 0f       	add	r24, r18
    4ea4:	93 1f       	adc	r25, r19
{
	UDD_EP_t *ep_ctrl;
	Assert(udd_ep_is_valid(ep));

	ep_ctrl = udd_ep_get_ctrl(ep);
	if (udd_endpoint_is_enable(ep_ctrl)) {
    4ea6:	fc 01       	movw	r30, r24
    4ea8:	ee 0f       	add	r30, r30
    4eaa:	ff 1f       	adc	r31, r31
    4eac:	ee 0f       	add	r30, r30
    4eae:	ff 1f       	adc	r31, r31
    4eb0:	ee 0f       	add	r30, r30
    4eb2:	ff 1f       	adc	r31, r31
    4eb4:	e0 52       	subi	r30, 0x20	; 32
    4eb6:	fa 4d       	sbci	r31, 0xDA	; 218
    4eb8:	21 89       	ldd	r18, Z+17	; 0x11
    4eba:	20 7c       	andi	r18, 0xC0	; 192
    4ebc:	09 f0       	breq	.+2      	; 0x4ec0 <udd_ep_alloc+0x36>
    4ebe:	72 c0       	rjmp	.+228    	; 0x4fa4 <udd_ep_alloc+0x11a>
	USB_EP_BUFSIZE_t size;
	UDD_EP_t *ep_ctrl;

#if (0!=USB_DEVICE_MAX_EP)
	// Translate USB attribute to hardware defines
	switch (bmAttributes & USB_EP_TYPE_MASK) {
    4ec0:	63 70       	andi	r22, 0x03	; 3
    4ec2:	61 30       	cpi	r22, 0x01	; 1
    4ec4:	11 f0       	breq	.+4      	; 0x4eca <udd_ep_alloc+0x40>
    4ec6:	18 f4       	brcc	.+6      	; 0x4ece <udd_ep_alloc+0x44>
    4ec8:	04 c0       	rjmp	.+8      	; 0x4ed2 <udd_ep_alloc+0x48>
	case USB_EP_TYPE_CONTROL:
		type = USB_EP_TYPE_CONTROL_gc;
		break;
	case USB_EP_TYPE_ISOCHRONOUS:
		type = USB_EP_TYPE_ISOCHRONOUS_gc;
    4eca:	60 ec       	ldi	r22, 0xC0	; 192
    4ecc:	03 c0       	rjmp	.+6      	; 0x4ed4 <udd_ep_alloc+0x4a>
		break;
	case USB_EP_TYPE_BULK:
	case USB_EP_TYPE_INTERRUPT: //interrupt behaves as bulk
		type = USB_EP_TYPE_BULK_gc;
    4ece:	60 e8       	ldi	r22, 0x80	; 128
    4ed0:	01 c0       	rjmp	.+2      	; 0x4ed4 <udd_ep_alloc+0x4a>

#if (0!=USB_DEVICE_MAX_EP)
	// Translate USB attribute to hardware defines
	switch (bmAttributes & USB_EP_TYPE_MASK) {
	case USB_EP_TYPE_CONTROL:
		type = USB_EP_TYPE_CONTROL_gc;
    4ed2:	60 e4       	ldi	r22, 0x40	; 64
#else
	type = USB_EP_TYPE_CONTROL_gc;
#endif

	// Translate USB endpoint size to hardware defines
	switch (MaxEndpointSize) {
    4ed4:	40 38       	cpi	r20, 0x80	; 128
    4ed6:	51 05       	cpc	r21, r1
    4ed8:	e9 f0       	breq	.+58     	; 0x4f14 <udd_ep_alloc+0x8a>
    4eda:	50 f4       	brcc	.+20     	; 0x4ef0 <udd_ep_alloc+0x66>
    4edc:	40 32       	cpi	r20, 0x20	; 32
    4ede:	51 05       	cpc	r21, r1
    4ee0:	a9 f0       	breq	.+42     	; 0x4f0c <udd_ep_alloc+0x82>
    4ee2:	40 34       	cpi	r20, 0x40	; 64
    4ee4:	51 05       	cpc	r21, r1
    4ee6:	a1 f0       	breq	.+40     	; 0x4f10 <udd_ep_alloc+0x86>
    4ee8:	40 31       	cpi	r20, 0x10	; 16
    4eea:	51 05       	cpc	r21, r1
    4eec:	d9 f4       	brne	.+54     	; 0x4f24 <udd_ep_alloc+0x9a>
    4eee:	0c c0       	rjmp	.+24     	; 0x4f08 <udd_ep_alloc+0x7e>
    4ef0:	41 15       	cp	r20, r1
    4ef2:	22 e0       	ldi	r18, 0x02	; 2
    4ef4:	52 07       	cpc	r21, r18
    4ef6:	91 f0       	breq	.+36     	; 0x4f1c <udd_ep_alloc+0x92>
    4ef8:	4f 3f       	cpi	r20, 0xFF	; 255
    4efa:	23 e0       	ldi	r18, 0x03	; 3
    4efc:	52 07       	cpc	r21, r18
    4efe:	81 f0       	breq	.+32     	; 0x4f20 <udd_ep_alloc+0x96>
    4f00:	41 15       	cp	r20, r1
    4f02:	51 40       	sbci	r21, 0x01	; 1
    4f04:	79 f4       	brne	.+30     	; 0x4f24 <udd_ep_alloc+0x9a>
    4f06:	08 c0       	rjmp	.+16     	; 0x4f18 <udd_ep_alloc+0x8e>
		Assert(false); // Wrong value
	case 8:
		size = USB_EP_BUFSIZE_8_gc;
		break;
	case 16:
		size = USB_EP_BUFSIZE_16_gc;
    4f08:	21 e0       	ldi	r18, 0x01	; 1
    4f0a:	0d c0       	rjmp	.+26     	; 0x4f26 <udd_ep_alloc+0x9c>
		break;
	case 32:
		size = USB_EP_BUFSIZE_32_gc;
    4f0c:	22 e0       	ldi	r18, 0x02	; 2
    4f0e:	0b c0       	rjmp	.+22     	; 0x4f26 <udd_ep_alloc+0x9c>
		break;
	case 64:
		size = USB_EP_BUFSIZE_64_gc;
    4f10:	23 e0       	ldi	r18, 0x03	; 3
    4f12:	09 c0       	rjmp	.+18     	; 0x4f26 <udd_ep_alloc+0x9c>
		break;
#if (0!=USB_DEVICE_MAX_EP)
	case 128:
		size = USB_EP_BUFSIZE_128_gc;
    4f14:	24 e0       	ldi	r18, 0x04	; 4
    4f16:	07 c0       	rjmp	.+14     	; 0x4f26 <udd_ep_alloc+0x9c>
		break;
	case 256:
		size = USB_EP_BUFSIZE_256_gc;
    4f18:	25 e0       	ldi	r18, 0x05	; 5
    4f1a:	05 c0       	rjmp	.+10     	; 0x4f26 <udd_ep_alloc+0x9c>
		break;
	case 512:
		size = USB_EP_BUFSIZE_512_gc;
    4f1c:	26 e0       	ldi	r18, 0x06	; 6
    4f1e:	03 c0       	rjmp	.+6      	; 0x4f26 <udd_ep_alloc+0x9c>
		break;
	case 1023:
		size =USB_EP_BUFSIZE_1023_gc;
    4f20:	27 e0       	ldi	r18, 0x07	; 7
    4f22:	01 c0       	rjmp	.+2      	; 0x4f26 <udd_ep_alloc+0x9c>
	// Translate USB endpoint size to hardware defines
	switch (MaxEndpointSize) {
	default:
		Assert(false); // Wrong value
	case 8:
		size = USB_EP_BUFSIZE_8_gc;
    4f24:	20 e0       	ldi	r18, 0x00	; 0
#endif
	}

	// Enable endpoint
	ep_ctrl = udd_ep_get_ctrl(ep);
	udd_endpoint_disable(ep_ctrl);
    4f26:	fc 01       	movw	r30, r24
    4f28:	ee 0f       	add	r30, r30
    4f2a:	ff 1f       	adc	r31, r31
    4f2c:	ee 0f       	add	r30, r30
    4f2e:	ff 1f       	adc	r31, r31
    4f30:	ee 0f       	add	r30, r30
    4f32:	ff 1f       	adc	r31, r31
    4f34:	e0 52       	subi	r30, 0x20	; 32
    4f36:	fa 4d       	sbci	r31, 0xDA	; 218
    4f38:	11 8a       	std	Z+17, r1	; 0x11
	udd_endpoint_clear_status(ep_ctrl);
    4f3a:	dc 01       	movw	r26, r24
    4f3c:	aa 0f       	add	r26, r26
    4f3e:	bb 1f       	adc	r27, r27
    4f40:	aa 0f       	add	r26, r26
    4f42:	bb 1f       	adc	r27, r27
    4f44:	aa 0f       	add	r26, r26
    4f46:	bb 1f       	adc	r27, r27
    4f48:	a0 51       	subi	r26, 0x10	; 16
    4f4a:	ba 4d       	sbci	r27, 0xDA	; 218
    4f4c:	36 e0       	ldi	r19, 0x06	; 6
    4f4e:	3c 93       	st	X, r19
	udd_endpoint_set_control(ep_ctrl, (uint8_t) type | (uint8_t) size);
    4f50:	26 2b       	or	r18, r22
    4f52:	21 8b       	std	Z+17, r18	; 0x11
		return false; // Already allocated
	}
	udd_ep_init(ep, bmAttributes, MaxEndpointSize);

	// Do not use multipacket mode with isochronous 1023 bytes endpoint
	if (udd_endpoint_get_type(ep_ctrl)==USB_EP_TYPE_ISOCHRONOUS_gc
    4f54:	fc 01       	movw	r30, r24
    4f56:	ee 0f       	add	r30, r30
    4f58:	ff 1f       	adc	r31, r31
    4f5a:	ee 0f       	add	r30, r30
    4f5c:	ff 1f       	adc	r31, r31
    4f5e:	ee 0f       	add	r30, r30
    4f60:	ff 1f       	adc	r31, r31
    4f62:	e0 52       	subi	r30, 0x20	; 32
    4f64:	fa 4d       	sbci	r31, 0xDA	; 218
    4f66:	21 89       	ldd	r18, Z+17	; 0x11
    4f68:	20 7c       	andi	r18, 0xC0	; 192
    4f6a:	20 3c       	cpi	r18, 0xC0	; 192
    4f6c:	69 f4       	brne	.+26     	; 0x4f88 <udd_ep_alloc+0xfe>
			&& (udd_endpoint_get_size_field(ep_ctrl)
    4f6e:	fc 01       	movw	r30, r24
    4f70:	ee 0f       	add	r30, r30
    4f72:	ff 1f       	adc	r31, r31
    4f74:	ee 0f       	add	r30, r30
    4f76:	ff 1f       	adc	r31, r31
    4f78:	ee 0f       	add	r30, r30
    4f7a:	ff 1f       	adc	r31, r31
    4f7c:	e0 52       	subi	r30, 0x20	; 32
    4f7e:	fa 4d       	sbci	r31, 0xDA	; 218
    4f80:	21 89       	ldd	r18, Z+17	; 0x11
    4f82:	27 70       	andi	r18, 0x07	; 7
    4f84:	27 30       	cpi	r18, 0x07	; 7
    4f86:	81 f0       	breq	.+32     	; 0x4fa8 <udd_ep_alloc+0x11e>
			==USB_EP_BUFSIZE_1023_gc)) {
		return true;
	}

	udd_endpoint_set_multipacket(ep_ctrl);
    4f88:	88 0f       	add	r24, r24
    4f8a:	99 1f       	adc	r25, r25
    4f8c:	88 0f       	add	r24, r24
    4f8e:	99 1f       	adc	r25, r25
    4f90:	88 0f       	add	r24, r24
    4f92:	99 1f       	adc	r25, r25
    4f94:	fc 01       	movw	r30, r24
    4f96:	e0 52       	subi	r30, 0x20	; 32
    4f98:	fa 4d       	sbci	r31, 0xDA	; 218
    4f9a:	81 89       	ldd	r24, Z+17	; 0x11
    4f9c:	80 62       	ori	r24, 0x20	; 32
    4f9e:	81 8b       	std	Z+17, r24	; 0x11
	return true;
    4fa0:	81 e0       	ldi	r24, 0x01	; 1
    4fa2:	08 95       	ret
	UDD_EP_t *ep_ctrl;
	Assert(udd_ep_is_valid(ep));

	ep_ctrl = udd_ep_get_ctrl(ep);
	if (udd_endpoint_is_enable(ep_ctrl)) {
		return false; // Already allocated
    4fa4:	80 e0       	ldi	r24, 0x00	; 0
    4fa6:	08 95       	ret

	// Do not use multipacket mode with isochronous 1023 bytes endpoint
	if (udd_endpoint_get_type(ep_ctrl)==USB_EP_TYPE_ISOCHRONOUS_gc
			&& (udd_endpoint_get_size_field(ep_ctrl)
			==USB_EP_BUFSIZE_1023_gc)) {
		return true;
    4fa8:	81 e0       	ldi	r24, 0x01	; 1
	}

	udd_endpoint_set_multipacket(ep_ctrl);
	return true;
}
    4faa:	08 95       	ret

00004fac <udd_ep_is_halted>:
	udd_endpoint_set_control(ep_ctrl, (uint8_t) type | (uint8_t) size);
}

static UDD_EP_t *udd_ep_get_ctrl(udd_ep_id_t ep)
{
	return &udd_sram.ep_ctrl[(2 * (ep & USB_EP_ADDR_MASK) +
    4fac:	e8 2f       	mov	r30, r24
    4fae:	ef 70       	andi	r30, 0x0F	; 15
    4fb0:	f0 e0       	ldi	r31, 0x00	; 0
    4fb2:	ee 0f       	add	r30, r30
    4fb4:	ff 1f       	adc	r31, r31
    4fb6:	08 2e       	mov	r0, r24
    4fb8:	00 0c       	add	r0, r0
    4fba:	99 0b       	sbc	r25, r25
    4fbc:	88 27       	eor	r24, r24
    4fbe:	99 0f       	add	r25, r25
    4fc0:	88 1f       	adc	r24, r24
    4fc2:	99 27       	eor	r25, r25
    4fc4:	e8 0f       	add	r30, r24
    4fc6:	f9 1f       	adc	r31, r25
{
	UDD_EP_t *ep_ctrl;
	Assert(udd_ep_is_valid(ep));

	ep_ctrl = udd_ep_get_ctrl(ep);
	return (udd_endpoint_is_stall(ep_ctrl));
    4fc8:	ee 0f       	add	r30, r30
    4fca:	ff 1f       	adc	r31, r31
    4fcc:	ee 0f       	add	r30, r30
    4fce:	ff 1f       	adc	r31, r31
    4fd0:	ee 0f       	add	r30, r30
    4fd2:	ff 1f       	adc	r31, r31
    4fd4:	e0 52       	subi	r30, 0x20	; 32
    4fd6:	fa 4d       	sbci	r31, 0xDA	; 218
    4fd8:	81 89       	ldd	r24, Z+17	; 0x11
}
    4fda:	82 fb       	bst	r24, 2
    4fdc:	88 27       	eor	r24, r24
    4fde:	80 f9       	bld	r24, 0
    4fe0:	08 95       	ret

00004fe2 <udd_ep_clear_halt>:
	udd_ep_abort(ep);
	return true;
}

bool udd_ep_clear_halt(udd_ep_id_t ep)
{
    4fe2:	0f 93       	push	r16
	udd_endpoint_set_control(ep_ctrl, (uint8_t) type | (uint8_t) size);
}

static UDD_EP_t *udd_ep_get_ctrl(udd_ep_id_t ep)
{
	return &udd_sram.ep_ctrl[(2 * (ep & USB_EP_ADDR_MASK) +
    4fe4:	28 2f       	mov	r18, r24
    4fe6:	2f 70       	andi	r18, 0x0F	; 15
    4fe8:	30 e0       	ldi	r19, 0x00	; 0
    4fea:	a9 01       	movw	r20, r18
    4fec:	44 0f       	add	r20, r20
    4fee:	55 1f       	adc	r21, r21
    4ff0:	28 2f       	mov	r18, r24
    4ff2:	08 2e       	mov	r0, r24
    4ff4:	00 0c       	add	r0, r0
    4ff6:	33 0b       	sbc	r19, r19
    4ff8:	22 27       	eor	r18, r18
    4ffa:	33 0f       	add	r19, r19
    4ffc:	22 1f       	adc	r18, r18
    4ffe:	33 27       	eor	r19, r19
    5000:	24 0f       	add	r18, r20
    5002:	35 1f       	adc	r19, r21
	udd_ep_job_t *ptr_job;
	UDD_EP_t *ep_ctrl;
	Assert(udd_ep_is_valid(ep));

	ep_ctrl = udd_ep_get_ctrl(ep);
	udd_endpoint_clear_dtgl(ep_ctrl);
    5004:	f9 01       	movw	r30, r18
    5006:	ee 0f       	add	r30, r30
    5008:	ff 1f       	adc	r31, r31
    500a:	ee 0f       	add	r30, r30
    500c:	ff 1f       	adc	r31, r31
    500e:	ee 0f       	add	r30, r30
    5010:	ff 1f       	adc	r31, r31
    5012:	e0 51       	subi	r30, 0x10	; 16
    5014:	fa 4d       	sbci	r31, 0xDA	; 218
    5016:	01 e0       	ldi	r16, 0x01	; 1
    5018:	06 93       	lac	Z, r16
	if (!udd_endpoint_is_stall(ep_ctrl)) {
    501a:	f9 01       	movw	r30, r18
    501c:	ee 0f       	add	r30, r30
    501e:	ff 1f       	adc	r31, r31
    5020:	ee 0f       	add	r30, r30
    5022:	ff 1f       	adc	r31, r31
    5024:	ee 0f       	add	r30, r30
    5026:	ff 1f       	adc	r31, r31
    5028:	e0 52       	subi	r30, 0x20	; 32
    502a:	fa 4d       	sbci	r31, 0xDA	; 218
    502c:	91 89       	ldd	r25, Z+17	; 0x11
    502e:	92 ff       	sbrs	r25, 2
    5030:	18 c0       	rjmp	.+48     	; 0x5062 <udd_ep_clear_halt+0x80>
		return true; // No stall on going
	}
	udd_endpoint_disable_stall(ep_ctrl);
    5032:	22 0f       	add	r18, r18
    5034:	33 1f       	adc	r19, r19
    5036:	22 0f       	add	r18, r18
    5038:	33 1f       	adc	r19, r19
    503a:	22 0f       	add	r18, r18
    503c:	33 1f       	adc	r19, r19
    503e:	f9 01       	movw	r30, r18
    5040:	e0 52       	subi	r30, 0x20	; 32
    5042:	fa 4d       	sbci	r31, 0xDA	; 218
    5044:	91 89       	ldd	r25, Z+17	; 0x11
    5046:	9b 7f       	andi	r25, 0xFB	; 251
    5048:	91 8b       	std	Z+17, r25	; 0x11

	// If a job is register on clear halt action
	// then execute callback
	ptr_job = udd_ep_get_job(ep);
    504a:	0e 94 3f 24 	call	0x487e	; 0x487e <udd_ep_get_job>
    504e:	fc 01       	movw	r30, r24
	if (ptr_job->busy == true) {
    5050:	80 81       	ld	r24, Z
    5052:	80 ff       	sbrs	r24, 0
    5054:	06 c0       	rjmp	.+12     	; 0x5062 <udd_ep_clear_halt+0x80>
		ptr_job->busy = false;
    5056:	8e 7f       	andi	r24, 0xFE	; 254
    5058:	80 83       	st	Z, r24
		ptr_job->call_nohalt();
    505a:	07 80       	ldd	r0, Z+7	; 0x07
    505c:	f0 85       	ldd	r31, Z+8	; 0x08
    505e:	e0 2d       	mov	r30, r0
    5060:	19 95       	eicall
	}
	return true;
}
    5062:	81 e0       	ldi	r24, 0x01	; 1
    5064:	0f 91       	pop	r16
    5066:	08 95       	ret

00005068 <udd_ep_run>:

bool udd_ep_run(udd_ep_id_t ep, bool b_shortpacket, uint8_t * buf,
		iram_size_t buf_size, udd_callback_trans_t callback)
{
    5068:	6f 92       	push	r6
    506a:	7f 92       	push	r7
    506c:	8f 92       	push	r8
    506e:	9f 92       	push	r9
    5070:	af 92       	push	r10
    5072:	bf 92       	push	r11
    5074:	cf 92       	push	r12
    5076:	df 92       	push	r13
    5078:	ef 92       	push	r14
    507a:	ff 92       	push	r15
    507c:	0f 93       	push	r16
    507e:	1f 93       	push	r17
    5080:	cf 93       	push	r28
    5082:	df 93       	push	r29
    5084:	1f 92       	push	r1
    5086:	cd b7       	in	r28, 0x3d	; 61
    5088:	de b7       	in	r29, 0x3e	; 62
    508a:	78 2e       	mov	r7, r24
    508c:	66 2e       	mov	r6, r22
    508e:	4a 01       	movw	r8, r20
    5090:	59 01       	movw	r10, r18
	UDD_EP_t *ep_ctrl;

	Assert(udd_ep_is_valid(ep));

	// Get control & job about this endpoint
	ptr_job = udd_ep_get_job(ep);
    5092:	0e 94 3f 24 	call	0x487e	; 0x487e <udd_ep_get_job>
    5096:	6c 01       	movw	r12, r24
}

static UDD_EP_t *udd_ep_get_ctrl(udd_ep_id_t ep)
{
	return &udd_sram.ep_ctrl[(2 * (ep & USB_EP_ADDR_MASK) +
			((ep & USB_EP_DIR_IN) ? 1 : 0))];
    5098:	27 2d       	mov	r18, r7
	udd_endpoint_set_control(ep_ctrl, (uint8_t) type | (uint8_t) size);
}

static UDD_EP_t *udd_ep_get_ctrl(udd_ep_id_t ep)
{
	return &udd_sram.ep_ctrl[(2 * (ep & USB_EP_ADDR_MASK) +
    509a:	87 2d       	mov	r24, r7
    509c:	8f 70       	andi	r24, 0x0F	; 15
    509e:	e8 2e       	mov	r14, r24
    50a0:	f1 2c       	mov	r15, r1
    50a2:	c7 01       	movw	r24, r14
    50a4:	88 0f       	add	r24, r24
    50a6:	99 1f       	adc	r25, r25
    50a8:	e7 2c       	mov	r14, r7
    50aa:	07 2c       	mov	r0, r7
    50ac:	00 0c       	add	r0, r0
    50ae:	ff 08       	sbc	r15, r15
    50b0:	ee 24       	eor	r14, r14
    50b2:	ff 0c       	add	r15, r15
    50b4:	ee 1c       	adc	r14, r14
    50b6:	ff 24       	eor	r15, r15
    50b8:	e8 0e       	add	r14, r24
    50ba:	f9 1e       	adc	r15, r25

	// Get control & job about this endpoint
	ptr_job = udd_ep_get_job(ep);
	ep_ctrl = udd_ep_get_ctrl(ep);

	if (!udd_endpoint_is_enable(ep_ctrl)) {
    50bc:	f7 01       	movw	r30, r14
    50be:	ee 0f       	add	r30, r30
    50c0:	ff 1f       	adc	r31, r31
    50c2:	ee 0f       	add	r30, r30
    50c4:	ff 1f       	adc	r31, r31
    50c6:	ee 0f       	add	r30, r30
    50c8:	ff 1f       	adc	r31, r31
    50ca:	e0 52       	subi	r30, 0x20	; 32
    50cc:	fa 4d       	sbci	r31, 0xDA	; 218
    50ce:	81 89       	ldd	r24, Z+17	; 0x11
    50d0:	80 7c       	andi	r24, 0xC0	; 192
    50d2:	09 f4       	brne	.+2      	; 0x50d6 <udd_ep_run+0x6e>
    50d4:	84 c0       	rjmp	.+264    	; 0x51de <udd_ep_run+0x176>
		return false; // Endpoint not allocated
	}
	if (udd_endpoint_get_type(ep_ctrl)!=USB_EP_TYPE_ISOCHRONOUS_gc
    50d6:	f7 01       	movw	r30, r14
    50d8:	ee 0f       	add	r30, r30
    50da:	ff 1f       	adc	r31, r31
    50dc:	ee 0f       	add	r30, r30
    50de:	ff 1f       	adc	r31, r31
    50e0:	ee 0f       	add	r30, r30
    50e2:	ff 1f       	adc	r31, r31
    50e4:	e0 52       	subi	r30, 0x20	; 32
    50e6:	fa 4d       	sbci	r31, 0xDA	; 218
    50e8:	81 89       	ldd	r24, Z+17	; 0x11
    50ea:	80 7c       	andi	r24, 0xC0	; 192
    50ec:	80 3c       	cpi	r24, 0xC0	; 192
    50ee:	61 f0       	breq	.+24     	; 0x5108 <udd_ep_run+0xa0>
		&& udd_endpoint_is_stall(ep_ctrl)) {
    50f0:	f7 01       	movw	r30, r14
    50f2:	ee 0f       	add	r30, r30
    50f4:	ff 1f       	adc	r31, r31
    50f6:	ee 0f       	add	r30, r30
    50f8:	ff 1f       	adc	r31, r31
    50fa:	ee 0f       	add	r30, r30
    50fc:	ff 1f       	adc	r31, r31
    50fe:	e0 52       	subi	r30, 0x20	; 32
    5100:	fa 4d       	sbci	r31, 0xDA	; 218
    5102:	81 89       	ldd	r24, Z+17	; 0x11
    5104:	82 fd       	sbrc	r24, 2
    5106:	6d c0       	rjmp	.+218    	; 0x51e2 <udd_ep_run+0x17a>

typedef uint8_t irqflags_t;

static inline irqflags_t cpu_irq_save(void)
{
	volatile irqflags_t flags = SREG;
    5108:	8f b7       	in	r24, 0x3f	; 63
    510a:	89 83       	std	Y+1, r24	; 0x01
	cpu_irq_disable();
    510c:	f8 94       	cli
	return flags;
    510e:	89 81       	ldd	r24, Y+1	; 0x01
		return false; // Endpoint is halted
	}
	flags = cpu_irq_save();
	if (ptr_job->busy == true) {
    5110:	f6 01       	movw	r30, r12
    5112:	90 81       	ld	r25, Z
    5114:	90 ff       	sbrs	r25, 0
    5116:	03 c0       	rjmp	.+6      	; 0x511e <udd_ep_run+0xb6>
}

static inline void cpu_irq_restore(irqflags_t flags)
{
	barrier();
	SREG = flags;
    5118:	8f bf       	out	0x3f, r24	; 63
		cpu_irq_restore(flags);
		return false; // Job already on going
    511a:	80 e0       	ldi	r24, 0x00	; 0
    511c:	63 c0       	rjmp	.+198    	; 0x51e4 <udd_ep_run+0x17c>
	}
	ptr_job->busy = true;
    511e:	f6 01       	movw	r30, r12
    5120:	90 81       	ld	r25, Z
    5122:	91 60       	ori	r25, 0x01	; 1
    5124:	90 83       	st	Z, r25
    5126:	8f bf       	out	0x3f, r24	; 63
	cpu_irq_restore(flags);


	// Update Job information
	ptr_job->buf = buf;
    5128:	81 82       	std	Z+1, r8	; 0x01
    512a:	92 82       	std	Z+2, r9	; 0x02
	ptr_job->buf_size = buf_size;
    512c:	a3 82       	std	Z+3, r10	; 0x03
    512e:	b4 82       	std	Z+4, r11	; 0x04
	ptr_job->nb_trans = 0;
    5130:	15 82       	std	Z+5, r1	; 0x05
    5132:	16 82       	std	Z+6, r1	; 0x06
	ptr_job->call_trans = callback;
    5134:	07 83       	std	Z+7, r16	; 0x07
    5136:	10 87       	std	Z+8, r17	; 0x08
	// Need to enable shortpacket to send a ZLP (buf_size==0)
	ptr_job->b_shortpacket = b_shortpacket || (buf_size==0);
    5138:	61 10       	cpse	r6, r1
    513a:	06 c0       	rjmp	.+12     	; 0x5148 <udd_ep_run+0xe0>
    513c:	91 e0       	ldi	r25, 0x01	; 1
    513e:	a1 14       	cp	r10, r1
    5140:	b1 04       	cpc	r11, r1
    5142:	19 f0       	breq	.+6      	; 0x514a <udd_ep_run+0xe2>
    5144:	90 e0       	ldi	r25, 0x00	; 0
    5146:	01 c0       	rjmp	.+2      	; 0x514a <udd_ep_run+0xe2>
    5148:	91 e0       	ldi	r25, 0x01	; 1
    514a:	f6 01       	movw	r30, r12
    514c:	80 81       	ld	r24, Z
    514e:	90 fb       	bst	r25, 0
    5150:	81 f9       	bld	r24, 1
	ptr_job->b_use_out_cache_buffer = false;
    5152:	8b 7f       	andi	r24, 0xFB	; 251
    5154:	80 83       	st	Z, r24

	// Initialize value to simulate a empty transfer
	if (USB_EP_DIR_IN == (ep & USB_EP_DIR_IN)) {
    5156:	22 23       	and	r18, r18
    5158:	64 f4       	brge	.+24     	; 0x5172 <udd_ep_run+0x10a>
		udd_endpoint_in_reset_nb_sent(ep_ctrl);
    515a:	f7 01       	movw	r30, r14
    515c:	ee 0f       	add	r30, r30
    515e:	ff 1f       	adc	r31, r31
    5160:	ee 0f       	add	r30, r30
    5162:	ff 1f       	adc	r31, r31
    5164:	ee 0f       	add	r30, r30
    5166:	ff 1f       	adc	r31, r31
    5168:	e0 52       	subi	r30, 0x20	; 32
    516a:	fa 4d       	sbci	r31, 0xDA	; 218
    516c:	16 8a       	std	Z+22, r1	; 0x16
    516e:	17 8a       	std	Z+23, r1	; 0x17
    5170:	31 c0       	rjmp	.+98     	; 0x51d4 <udd_ep_run+0x16c>
	}
	else
	{
		if ((USB_EP_TYPE_ISOCHRONOUS_gc == udd_endpoint_get_type(ep_ctrl))
    5172:	f7 01       	movw	r30, r14
    5174:	ee 0f       	add	r30, r30
    5176:	ff 1f       	adc	r31, r31
    5178:	ee 0f       	add	r30, r30
    517a:	ff 1f       	adc	r31, r31
    517c:	ee 0f       	add	r30, r30
    517e:	ff 1f       	adc	r31, r31
    5180:	e0 52       	subi	r30, 0x20	; 32
    5182:	fa 4d       	sbci	r31, 0xDA	; 218
    5184:	81 89       	ldd	r24, Z+17	; 0x11
    5186:	80 7c       	andi	r24, 0xC0	; 192
    5188:	80 3c       	cpi	r24, 0xC0	; 192
    518a:	b9 f4       	brne	.+46     	; 0x51ba <udd_ep_run+0x152>
	udd_endpoint_set_control(ep_ctrl, (uint8_t) type | (uint8_t) size);
}

static UDD_EP_t *udd_ep_get_ctrl(udd_ep_id_t ep)
{
	return &udd_sram.ep_ctrl[(2 * (ep & USB_EP_ADDR_MASK) +
    518c:	c7 01       	movw	r24, r14
    518e:	88 0f       	add	r24, r24
    5190:	99 1f       	adc	r25, r25
    5192:	88 0f       	add	r24, r24
    5194:	99 1f       	adc	r25, r25
    5196:	88 0f       	add	r24, r24
    5198:	99 1f       	adc	r25, r25
		udd_endpoint_in_reset_nb_sent(ep_ctrl);
	}
	else
	{
		if ((USB_EP_TYPE_ISOCHRONOUS_gc == udd_endpoint_get_type(ep_ctrl))
		&& (0 != (buf_size % udd_ep_get_size(ep_ctrl)))) {
    519a:	80 51       	subi	r24, 0x10	; 16
    519c:	9a 4d       	sbci	r25, 0xDA	; 218
    519e:	0e 94 16 24 	call	0x482c	; 0x482c <udd_ep_get_size>
    51a2:	bc 01       	movw	r22, r24
    51a4:	c5 01       	movw	r24, r10
    51a6:	0e 94 76 30 	call	0x60ec	; 0x60ec <__udivmodhi4>
    51aa:	89 2b       	or	r24, r25
    51ac:	31 f0       	breq	.+12     	; 0x51ba <udd_ep_run+0x152>
			// The user must use a buffer size modulo endpoint size
			ptr_job->busy = false;
    51ae:	f6 01       	movw	r30, r12
    51b0:	80 81       	ld	r24, Z
    51b2:	8e 7f       	andi	r24, 0xFE	; 254
    51b4:	80 83       	st	Z, r24
			return false;
    51b6:	80 e0       	ldi	r24, 0x00	; 0
    51b8:	15 c0       	rjmp	.+42     	; 0x51e4 <udd_ep_run+0x17c>
		}
		udd_endpoint_out_reset_nb_received(ep_ctrl);
    51ba:	f7 01       	movw	r30, r14
    51bc:	ee 0f       	add	r30, r30
    51be:	ff 1f       	adc	r31, r31
    51c0:	ee 0f       	add	r30, r30
    51c2:	ff 1f       	adc	r31, r31
    51c4:	ee 0f       	add	r30, r30
    51c6:	ff 1f       	adc	r31, r31
    51c8:	e0 52       	subi	r30, 0x20	; 32
    51ca:	fa 4d       	sbci	r31, 0xDA	; 218
    51cc:	12 8a       	std	Z+18, r1	; 0x12
    51ce:	13 8a       	std	Z+19, r1	; 0x13
		udd_endpoint_out_set_nbbyte(ep_ctrl, 0);
    51d0:	16 8a       	std	Z+22, r1	; 0x16
    51d2:	17 8a       	std	Z+23, r1	; 0x17
	}
	// Request next transfer
	udd_ep_trans_complet(ep);
    51d4:	87 2d       	mov	r24, r7
    51d6:	0e 94 d1 24 	call	0x49a2	; 0x49a2 <udd_ep_trans_complet>
	return true;
    51da:	81 e0       	ldi	r24, 0x01	; 1
    51dc:	03 c0       	rjmp	.+6      	; 0x51e4 <udd_ep_run+0x17c>
	// Get control & job about this endpoint
	ptr_job = udd_ep_get_job(ep);
	ep_ctrl = udd_ep_get_ctrl(ep);

	if (!udd_endpoint_is_enable(ep_ctrl)) {
		return false; // Endpoint not allocated
    51de:	80 e0       	ldi	r24, 0x00	; 0
    51e0:	01 c0       	rjmp	.+2      	; 0x51e4 <udd_ep_run+0x17c>
	}
	if (udd_endpoint_get_type(ep_ctrl)!=USB_EP_TYPE_ISOCHRONOUS_gc
		&& udd_endpoint_is_stall(ep_ctrl)) {
		return false; // Endpoint is halted
    51e2:	80 e0       	ldi	r24, 0x00	; 0
		udd_endpoint_out_set_nbbyte(ep_ctrl, 0);
	}
	// Request next transfer
	udd_ep_trans_complet(ep);
	return true;
}
    51e4:	0f 90       	pop	r0
    51e6:	df 91       	pop	r29
    51e8:	cf 91       	pop	r28
    51ea:	1f 91       	pop	r17
    51ec:	0f 91       	pop	r16
    51ee:	ff 90       	pop	r15
    51f0:	ef 90       	pop	r14
    51f2:	df 90       	pop	r13
    51f4:	cf 90       	pop	r12
    51f6:	bf 90       	pop	r11
    51f8:	af 90       	pop	r10
    51fa:	9f 90       	pop	r9
    51fc:	8f 90       	pop	r8
    51fe:	7f 90       	pop	r7
    5200:	6f 90       	pop	r6
    5202:	08 95       	ret

00005204 <udd_ep_abort>:

void udd_ep_abort(udd_ep_id_t ep)
{
    5204:	ff 92       	push	r15
    5206:	0f 93       	push	r16
    5208:	1f 93       	push	r17
    520a:	cf 93       	push	r28
    520c:	df 93       	push	r29
    520e:	18 2f       	mov	r17, r24
	udd_endpoint_set_control(ep_ctrl, (uint8_t) type | (uint8_t) size);
}

static UDD_EP_t *udd_ep_get_ctrl(udd_ep_id_t ep)
{
	return &udd_sram.ep_ctrl[(2 * (ep & USB_EP_ADDR_MASK) +
    5210:	c8 2f       	mov	r28, r24
    5212:	cf 70       	andi	r28, 0x0F	; 15
    5214:	d0 e0       	ldi	r29, 0x00	; 0
    5216:	ce 01       	movw	r24, r28
    5218:	88 0f       	add	r24, r24
    521a:	99 1f       	adc	r25, r25
    521c:	c1 2f       	mov	r28, r17
    521e:	01 2e       	mov	r0, r17
    5220:	00 0c       	add	r0, r0
    5222:	dd 0b       	sbc	r29, r29
    5224:	cc 27       	eor	r28, r28
    5226:	dd 0f       	add	r29, r29
    5228:	cc 1f       	adc	r28, r28
    522a:	dd 27       	eor	r29, r29
    522c:	c8 0f       	add	r28, r24
    522e:	d9 1f       	adc	r29, r25
	UDD_EP_t *ep_ctrl;
	udd_ep_job_t *ptr_job;
	Assert(udd_ep_is_valid(ep));

	ep_ctrl = udd_ep_get_ctrl(ep);
	ptr_job = udd_ep_get_job(ep);
    5230:	81 2f       	mov	r24, r17
    5232:	0e 94 3f 24 	call	0x487e	; 0x487e <udd_ep_get_job>
    5236:	dc 01       	movw	r26, r24

	// Stop transfer
	udd_endpoint_set_NACK0(ep_ctrl);
    5238:	fe 01       	movw	r30, r28
    523a:	ee 0f       	add	r30, r30
    523c:	ff 1f       	adc	r31, r31
    523e:	ee 0f       	add	r30, r30
    5240:	ff 1f       	adc	r31, r31
    5242:	ee 0f       	add	r30, r30
    5244:	ff 1f       	adc	r31, r31
    5246:	e0 51       	subi	r30, 0x10	; 16
    5248:	fa 4d       	sbci	r31, 0xDA	; 218
    524a:	02 e0       	ldi	r16, 0x02	; 2
    524c:	05 93       	las	Z, r16
	if (ptr_job->busy == false) {
    524e:	8c 91       	ld	r24, X
    5250:	80 ff       	sbrs	r24, 0
    5252:	22 c0       	rjmp	.+68     	; 0x5298 <udd_ep_abort+0x94>
		return; // No job on going
	}
	ptr_job->busy = false;
    5254:	8e 7f       	andi	r24, 0xFE	; 254
    5256:	8c 93       	st	X, r24
	if (NULL != ptr_job->call_trans) {
    5258:	17 96       	adiw	r26, 0x07	; 7
    525a:	ed 91       	ld	r30, X+
    525c:	fc 91       	ld	r31, X
    525e:	18 97       	sbiw	r26, 0x08	; 8
    5260:	30 97       	sbiw	r30, 0x00	; 0
    5262:	d1 f0       	breq	.+52     	; 0x5298 <udd_ep_abort+0x94>
		ptr_job->call_trans(UDD_EP_TRANSFER_ABORT,
    5264:	11 23       	and	r17, r17
    5266:	5c f4       	brge	.+22     	; 0x527e <udd_ep_abort+0x7a>
    5268:	cc 0f       	add	r28, r28
    526a:	dd 1f       	adc	r29, r29
    526c:	cc 0f       	add	r28, r28
    526e:	dd 1f       	adc	r29, r29
    5270:	cc 0f       	add	r28, r28
    5272:	dd 1f       	adc	r29, r29
    5274:	c0 52       	subi	r28, 0x20	; 32
    5276:	da 4d       	sbci	r29, 0xDA	; 218
    5278:	6e 89       	ldd	r22, Y+22	; 0x16
    527a:	7f 89       	ldd	r23, Y+23	; 0x17
    527c:	0a c0       	rjmp	.+20     	; 0x5292 <udd_ep_abort+0x8e>
    527e:	cc 0f       	add	r28, r28
    5280:	dd 1f       	adc	r29, r29
    5282:	cc 0f       	add	r28, r28
    5284:	dd 1f       	adc	r29, r29
    5286:	cc 0f       	add	r28, r28
    5288:	dd 1f       	adc	r29, r29
    528a:	c0 52       	subi	r28, 0x20	; 32
    528c:	da 4d       	sbci	r29, 0xDA	; 218
    528e:	6a 89       	ldd	r22, Y+18	; 0x12
    5290:	7b 89       	ldd	r23, Y+19	; 0x13
    5292:	41 2f       	mov	r20, r17
    5294:	81 e0       	ldi	r24, 0x01	; 1
    5296:	19 95       	eicall
				(ep & USB_EP_DIR_IN) ?
				udd_endpoint_in_nb_sent(ep_ctrl)
				: udd_endpoint_out_nb_receiv(ep_ctrl),
				ep);
	}
}
    5298:	df 91       	pop	r29
    529a:	cf 91       	pop	r28
    529c:	1f 91       	pop	r17
    529e:	0f 91       	pop	r16
    52a0:	ff 90       	pop	r15
    52a2:	08 95       	ret

000052a4 <udd_ep_free>:
	udd_endpoint_set_multipacket(ep_ctrl);
	return true;
}

void udd_ep_free(udd_ep_id_t ep)
{
    52a4:	cf 93       	push	r28
    52a6:	c8 2f       	mov	r28, r24
	UDD_EP_t *ep_ctrl;
	Assert(udd_ep_is_valid(ep));

	udd_ep_abort(ep);
    52a8:	0e 94 02 29 	call	0x5204	; 0x5204 <udd_ep_abort>
	udd_endpoint_set_control(ep_ctrl, (uint8_t) type | (uint8_t) size);
}

static UDD_EP_t *udd_ep_get_ctrl(udd_ep_id_t ep)
{
	return &udd_sram.ep_ctrl[(2 * (ep & USB_EP_ADDR_MASK) +
    52ac:	ec 2f       	mov	r30, r28
    52ae:	ef 70       	andi	r30, 0x0F	; 15
    52b0:	f0 e0       	ldi	r31, 0x00	; 0
    52b2:	ee 0f       	add	r30, r30
    52b4:	ff 1f       	adc	r31, r31
    52b6:	8c 2f       	mov	r24, r28
    52b8:	cc 0f       	add	r28, r28
    52ba:	99 0b       	sbc	r25, r25
    52bc:	88 27       	eor	r24, r24
    52be:	99 0f       	add	r25, r25
    52c0:	88 1f       	adc	r24, r24
    52c2:	99 27       	eor	r25, r25
    52c4:	e8 0f       	add	r30, r24
    52c6:	f9 1f       	adc	r31, r25
	UDD_EP_t *ep_ctrl;
	Assert(udd_ep_is_valid(ep));

	udd_ep_abort(ep);
	ep_ctrl = udd_ep_get_ctrl(ep);
	udd_endpoint_disable(ep_ctrl);
    52c8:	ee 0f       	add	r30, r30
    52ca:	ff 1f       	adc	r31, r31
    52cc:	ee 0f       	add	r30, r30
    52ce:	ff 1f       	adc	r31, r31
    52d0:	ee 0f       	add	r30, r30
    52d2:	ff 1f       	adc	r31, r31
    52d4:	e0 52       	subi	r30, 0x20	; 32
    52d6:	fa 4d       	sbci	r31, 0xDA	; 218
    52d8:	11 8a       	std	Z+17, r1	; 0x11
}
    52da:	cf 91       	pop	r28
    52dc:	08 95       	ret

000052de <udd_ep_set_halt>:
	udd_endpoint_set_control(ep_ctrl, (uint8_t) type | (uint8_t) size);
}

static UDD_EP_t *udd_ep_get_ctrl(udd_ep_id_t ep)
{
	return &udd_sram.ep_ctrl[(2 * (ep & USB_EP_ADDR_MASK) +
    52de:	e8 2f       	mov	r30, r24
    52e0:	ef 70       	andi	r30, 0x0F	; 15
    52e2:	f0 e0       	ldi	r31, 0x00	; 0
    52e4:	ee 0f       	add	r30, r30
    52e6:	ff 1f       	adc	r31, r31
    52e8:	28 2f       	mov	r18, r24
    52ea:	08 2e       	mov	r0, r24
    52ec:	00 0c       	add	r0, r0
    52ee:	33 0b       	sbc	r19, r19
    52f0:	22 27       	eor	r18, r18
    52f2:	33 0f       	add	r19, r19
    52f4:	22 1f       	adc	r18, r18
    52f6:	33 27       	eor	r19, r19
    52f8:	e2 0f       	add	r30, r18
    52fa:	f3 1f       	adc	r31, r19
{
	UDD_EP_t *ep_ctrl;
	Assert(udd_ep_is_valid(ep));

	ep_ctrl = udd_ep_get_ctrl(ep);
	udd_endpoint_enable_stall(ep_ctrl);
    52fc:	ee 0f       	add	r30, r30
    52fe:	ff 1f       	adc	r31, r31
    5300:	ee 0f       	add	r30, r30
    5302:	ff 1f       	adc	r31, r31
    5304:	ee 0f       	add	r30, r30
    5306:	ff 1f       	adc	r31, r31
    5308:	e0 52       	subi	r30, 0x20	; 32
    530a:	fa 4d       	sbci	r31, 0xDA	; 218
    530c:	91 89       	ldd	r25, Z+17	; 0x11
    530e:	94 60       	ori	r25, 0x04	; 4
    5310:	91 8b       	std	Z+17, r25	; 0x11

	udd_ep_abort(ep);
    5312:	0e 94 02 29 	call	0x5204	; 0x5204 <udd_ep_abort>
	return true;
}
    5316:	81 e0       	ldi	r24, 0x01	; 1
    5318:	08 95       	ret

0000531a <udd_ep_wait_stall_clear>:
	}
}

bool udd_ep_wait_stall_clear(udd_ep_id_t ep,
		udd_callback_halt_cleared_t callback)
{
    531a:	0f 93       	push	r16
    531c:	1f 93       	push	r17
    531e:	cf 93       	push	r28
    5320:	df 93       	push	r29
    5322:	8b 01       	movw	r16, r22
	udd_endpoint_set_control(ep_ctrl, (uint8_t) type | (uint8_t) size);
}

static UDD_EP_t *udd_ep_get_ctrl(udd_ep_id_t ep)
{
	return &udd_sram.ep_ctrl[(2 * (ep & USB_EP_ADDR_MASK) +
    5324:	c8 2f       	mov	r28, r24
    5326:	cf 70       	andi	r28, 0x0F	; 15
    5328:	d0 e0       	ldi	r29, 0x00	; 0
    532a:	cc 0f       	add	r28, r28
    532c:	dd 1f       	adc	r29, r29
    532e:	28 2f       	mov	r18, r24
    5330:	08 2e       	mov	r0, r24
    5332:	00 0c       	add	r0, r0
    5334:	33 0b       	sbc	r19, r19
    5336:	22 27       	eor	r18, r18
    5338:	33 0f       	add	r19, r19
    533a:	22 1f       	adc	r18, r18
    533c:	33 27       	eor	r19, r19
    533e:	c2 0f       	add	r28, r18
    5340:	d3 1f       	adc	r29, r19
	udd_ep_job_t *ptr_job;
	UDD_EP_t *ep_ctrl;
	Assert(udd_ep_is_valid(ep));

	ep_ctrl = udd_ep_get_ctrl(ep);
	ptr_job = udd_ep_get_job(ep);
    5342:	0e 94 3f 24 	call	0x487e	; 0x487e <udd_ep_get_job>

	if (udd_endpoint_is_stall(ep_ctrl)) {
    5346:	cc 0f       	add	r28, r28
    5348:	dd 1f       	adc	r29, r29
    534a:	cc 0f       	add	r28, r28
    534c:	dd 1f       	adc	r29, r29
    534e:	cc 0f       	add	r28, r28
    5350:	dd 1f       	adc	r29, r29
    5352:	c0 52       	subi	r28, 0x20	; 32
    5354:	da 4d       	sbci	r29, 0xDA	; 218
    5356:	29 89       	ldd	r18, Y+17	; 0x11
    5358:	22 ff       	sbrs	r18, 2
    535a:	0a c0       	rjmp	.+20     	; 0x5370 <udd_ep_wait_stall_clear+0x56>
		// Wait clear halt endpoint
		if (ptr_job->busy == true) {
    535c:	fc 01       	movw	r30, r24
    535e:	20 81       	ld	r18, Z
    5360:	20 fd       	sbrc	r18, 0
    5362:	0a c0       	rjmp	.+20     	; 0x5378 <udd_ep_wait_stall_clear+0x5e>
			return false; // Job already on going
		}
		ptr_job->busy = true;
    5364:	21 60       	ori	r18, 0x01	; 1
    5366:	20 83       	st	Z, r18
		ptr_job->call_nohalt = callback;
    5368:	07 83       	std	Z+7, r16	; 0x07
    536a:	10 87       	std	Z+8, r17	; 0x08
	} else {
		// endpoint not halted then call directly callback
		callback();
	}
	return true;
    536c:	81 e0       	ldi	r24, 0x01	; 1
    536e:	05 c0       	rjmp	.+10     	; 0x537a <udd_ep_wait_stall_clear+0x60>
		}
		ptr_job->busy = true;
		ptr_job->call_nohalt = callback;
	} else {
		// endpoint not halted then call directly callback
		callback();
    5370:	f8 01       	movw	r30, r16
    5372:	19 95       	eicall
	}
	return true;
    5374:	81 e0       	ldi	r24, 0x01	; 1
    5376:	01 c0       	rjmp	.+2      	; 0x537a <udd_ep_wait_stall_clear+0x60>
	ptr_job = udd_ep_get_job(ep);

	if (udd_endpoint_is_stall(ep_ctrl)) {
		// Wait clear halt endpoint
		if (ptr_job->busy == true) {
			return false; // Job already on going
    5378:	80 e0       	ldi	r24, 0x00	; 0
	} else {
		// endpoint not halted then call directly callback
		callback();
	}
	return true;
}
    537a:	df 91       	pop	r29
    537c:	cf 91       	pop	r28
    537e:	1f 91       	pop	r17
    5380:	0f 91       	pop	r16
    5382:	08 95       	ret

00005384 <__vector_125>:
 * USB bus event interrupt includes :
 * - USB line events SOF, reset, suspend, resume, wakeup
 * - endpoint control errors underflow, overflow, stall
 */
ISR(USB_BUSEVENT_vect)
{
    5384:	1f 92       	push	r1
    5386:	0f 92       	push	r0
    5388:	0f b6       	in	r0, 0x3f	; 63
    538a:	0f 92       	push	r0
    538c:	11 24       	eor	r1, r1
    538e:	08 b6       	in	r0, 0x38	; 56
    5390:	0f 92       	push	r0
    5392:	18 be       	out	0x38, r1	; 56
    5394:	09 b6       	in	r0, 0x39	; 57
    5396:	0f 92       	push	r0
    5398:	19 be       	out	0x39, r1	; 57
    539a:	0b b6       	in	r0, 0x3b	; 59
    539c:	0f 92       	push	r0
    539e:	1b be       	out	0x3b, r1	; 59
    53a0:	0f 93       	push	r16
    53a2:	2f 93       	push	r18
    53a4:	3f 93       	push	r19
    53a6:	4f 93       	push	r20
    53a8:	5f 93       	push	r21
    53aa:	6f 93       	push	r22
    53ac:	7f 93       	push	r23
    53ae:	8f 93       	push	r24
    53b0:	9f 93       	push	r25
    53b2:	af 93       	push	r26
    53b4:	bf 93       	push	r27
    53b6:	ef 93       	push	r30
    53b8:	ff 93       	push	r31
	if (udd_is_start_of_frame_event()) {
    53ba:	80 91 cb 04 	lds	r24, 0x04CB	; 0x8004cb <__TEXT_REGION_LENGTH__+0x7004cb>
    53be:	88 23       	and	r24, r24
    53c0:	34 f4       	brge	.+12     	; 0x53ce <__vector_125+0x4a>
		udd_ack_start_of_frame_event();
    53c2:	80 e8       	ldi	r24, 0x80	; 128
    53c4:	80 93 ca 04 	sts	0x04CA, r24	; 0x8004ca <__TEXT_REGION_LENGTH__+0x7004ca>
		udc_sof_notify();
    53c8:	0e 94 57 20 	call	0x40ae	; 0x40ae <udc_sof_notify>
#ifdef UDC_SOF_EVENT
		UDC_SOF_EVENT();
#endif
		goto udd_interrupt_bus_event_end;
    53cc:	90 c0       	rjmp	.+288    	; 0x54ee <__vector_125+0x16a>
}

static bool udd_ctrl_interrupt_error(void)
{
	// Underflow only managed for control endpoint
	if (udd_is_underflow_event()) {
    53ce:	80 91 cb 04 	lds	r24, 0x04CB	; 0x8004cb <__TEXT_REGION_LENGTH__+0x7004cb>
    53d2:	82 ff       	sbrs	r24, 2
    53d4:	22 c0       	rjmp	.+68     	; 0x541a <__vector_125+0x96>
		udd_ack_underflow_event();
    53d6:	84 e0       	ldi	r24, 0x04	; 4
    53d8:	80 93 ca 04 	sts	0x04CA, r24	; 0x8004ca <__TEXT_REGION_LENGTH__+0x7004ca>
		if (udd_control_in_underflow()) {
    53dc:	80 91 f8 25 	lds	r24, 0x25F8	; 0x8025f8 <udd_sram+0x18>
    53e0:	86 ff       	sbrs	r24, 6
    53e2:	85 c0       	rjmp	.+266    	; 0x54ee <__vector_125+0x16a>
	udd_control_out_ack_tc();
}

static void udd_ctrl_underflow(void)
{
	if (udd_is_tc_event() || udd_ctrl_interrupt_tc_setup()) {
    53e4:	80 91 cc 04 	lds	r24, 0x04CC	; 0x8004cc <__TEXT_REGION_LENGTH__+0x7004cc>
    53e8:	81 fd       	sbrc	r24, 1
    53ea:	81 c0       	rjmp	.+258    	; 0x54ee <__vector_125+0x16a>
    53ec:	0e 94 5a 24 	call	0x48b4	; 0x48b4 <udd_ctrl_interrupt_tc_setup>
    53f0:	81 11       	cpse	r24, r1
    53f2:	7d c0       	rjmp	.+250    	; 0x54ee <__vector_125+0x16a>
		return; // underflow ignored if a transfer complete has been no processed
	}
	if (UDD_EPCTRL_DATA_OUT == udd_ep_control_state) {
    53f4:	80 91 df 25 	lds	r24, 0x25DF	; 0x8025df <udd_ep_control_state>
    53f8:	81 30       	cpi	r24, 0x01	; 1
    53fa:	19 f4       	brne	.+6      	; 0x5402 <__vector_125+0x7e>
		// Host want to stop OUT transaction
		// then stop to wait OUT data phase and wait IN ZLP handshake
		udd_ctrl_send_zlp_in();
    53fc:	0e 94 92 23 	call	0x4724	; 0x4724 <udd_ctrl_send_zlp_in>
    5400:	76 c0       	rjmp	.+236    	; 0x54ee <__vector_125+0x16a>
	} else if (UDD_EPCTRL_HANDSHAKE_WAIT_OUT_ZLP == udd_ep_control_state) {
    5402:	84 30       	cpi	r24, 0x04	; 4
    5404:	09 f0       	breq	.+2      	; 0x5408 <__vector_125+0x84>
    5406:	73 c0       	rjmp	.+230    	; 0x54ee <__vector_125+0x16a>
		// A OUT handshake is waiting by device,
		// but host want extra IN data then stall extra IN data and following status stage
		udd_control_in_enable_stall();
    5408:	e9 ef       	ldi	r30, 0xF9	; 249
    540a:	f5 e2       	ldi	r31, 0x25	; 37
    540c:	04 e0       	ldi	r16, 0x04	; 4
    540e:	05 93       	las	Z, r16
		udd_control_out_enable_stall();
    5410:	e1 ef       	ldi	r30, 0xF1	; 241
    5412:	f5 e2       	ldi	r31, 0x25	; 37
    5414:	04 e0       	ldi	r16, 0x04	; 4
    5416:	05 93       	las	Z, r16
    5418:	6a c0       	rjmp	.+212    	; 0x54ee <__vector_125+0x16a>
			udd_ctrl_underflow();
		}
		return true;
	}
	// Overflow only managed for control endpoint
	if (udd_is_overflow_event()) {
    541a:	80 91 cb 04 	lds	r24, 0x04CB	; 0x8004cb <__TEXT_REGION_LENGTH__+0x7004cb>
    541e:	81 ff       	sbrs	r24, 1
    5420:	61 c0       	rjmp	.+194    	; 0x54e4 <__vector_125+0x160>
		udd_ack_overflow_event();
    5422:	82 e0       	ldi	r24, 0x02	; 2
    5424:	80 93 ca 04 	sts	0x04CA, r24	; 0x8004ca <__TEXT_REGION_LENGTH__+0x7004ca>
		if (udd_control_out_overflow()) {
    5428:	80 91 f0 25 	lds	r24, 0x25F0	; 0x8025f0 <udd_sram+0x10>
    542c:	86 ff       	sbrs	r24, 6
    542e:	5f c0       	rjmp	.+190    	; 0x54ee <__vector_125+0x16a>
	}
}

static void udd_ctrl_overflow(void)
{
	if (udd_is_tc_event() || udd_ctrl_interrupt_tc_setup()) {
    5430:	80 91 cc 04 	lds	r24, 0x04CC	; 0x8004cc <__TEXT_REGION_LENGTH__+0x7004cc>
    5434:	81 fd       	sbrc	r24, 1
    5436:	5b c0       	rjmp	.+182    	; 0x54ee <__vector_125+0x16a>
    5438:	0e 94 5a 24 	call	0x48b4	; 0x48b4 <udd_ctrl_interrupt_tc_setup>
    543c:	81 11       	cpse	r24, r1
    543e:	57 c0       	rjmp	.+174    	; 0x54ee <__vector_125+0x16a>
		return; // overflow ignored if a transfer complete has been no processed
	}
	if (UDD_EPCTRL_DATA_IN == udd_ep_control_state) {
    5440:	80 91 df 25 	lds	r24, 0x25DF	; 0x8025df <udd_ep_control_state>
    5444:	82 30       	cpi	r24, 0x02	; 2
    5446:	41 f4       	brne	.+16     	; 0x5458 <__vector_125+0xd4>
	udd_control_in_clear_NACK0();
}

static void udd_ctrl_send_zlp_out(void)
{
	udd_ep_control_state = UDD_EPCTRL_HANDSHAKE_WAIT_OUT_ZLP;
    5448:	84 e0       	ldi	r24, 0x04	; 4
    544a:	80 93 df 25 	sts	0x25DF, r24	; 0x8025df <udd_ep_control_state>
	// Valid reception of OUT packet on control endpoint
	udd_control_out_clear_NACK0();
    544e:	e0 ef       	ldi	r30, 0xF0	; 240
    5450:	f5 e2       	ldi	r31, 0x25	; 37
    5452:	02 e0       	ldi	r16, 0x02	; 2
    5454:	06 93       	lac	Z, r16
    5456:	4b c0       	rjmp	.+150    	; 0x54ee <__vector_125+0x16a>
	}
	if (UDD_EPCTRL_DATA_IN == udd_ep_control_state) {
		// Host want to stop IN transaction
		// then stop to wait IN data phase and wait OUT ZLP handshake
		udd_ctrl_send_zlp_out();
	} else if (UDD_EPCTRL_HANDSHAKE_WAIT_IN_ZLP == udd_ep_control_state) {
    5458:	83 30       	cpi	r24, 0x03	; 3
    545a:	09 f0       	breq	.+2      	; 0x545e <__vector_125+0xda>
    545c:	48 c0       	rjmp	.+144    	; 0x54ee <__vector_125+0x16a>
		// A IN handshake is waiting by device,
		// but host want extra OUT data then stall extra OUT data and following status stage
		udd_control_in_enable_stall();
    545e:	e9 ef       	ldi	r30, 0xF9	; 249
    5460:	f5 e2       	ldi	r31, 0x25	; 37
    5462:	04 e0       	ldi	r16, 0x04	; 4
    5464:	05 93       	las	Z, r16
		udd_control_out_enable_stall();
    5466:	e1 ef       	ldi	r30, 0xF1	; 241
    5468:	f5 e2       	ldi	r31, 0x25	; 37
    546a:	04 e0       	ldi	r16, 0x04	; 4
    546c:	05 93       	las	Z, r16
    546e:	3f c0       	rjmp	.+126    	; 0x54ee <__vector_125+0x16a>

	if (udd_ctrl_interrupt_error()) {
		goto udd_interrupt_bus_event_end;
	}
	if (udd_is_reset_event()) {
		udd_ack_reset_event();
    5470:	80 e1       	ldi	r24, 0x10	; 16
    5472:	80 93 ca 04 	sts	0x04CA, r24	; 0x8004ca <__TEXT_REGION_LENGTH__+0x7004ca>
#if (0!=USB_DEVICE_MAX_EP)
		// Abort all endpoint jobs on going
		uint8_t i;
		for (i = 1; i <= USB_DEVICE_MAX_EP; i++) {
			udd_ep_abort(i);
    5476:	81 e0       	ldi	r24, 0x01	; 1
    5478:	0e 94 02 29 	call	0x5204	; 0x5204 <udd_ep_abort>
			udd_ep_abort(i | USB_EP_DIR_IN);
    547c:	81 e8       	ldi	r24, 0x81	; 129
    547e:	0e 94 02 29 	call	0x5204	; 0x5204 <udd_ep_abort>
		udd_ack_reset_event();
#if (0!=USB_DEVICE_MAX_EP)
		// Abort all endpoint jobs on going
		uint8_t i;
		for (i = 1; i <= USB_DEVICE_MAX_EP; i++) {
			udd_ep_abort(i);
    5482:	82 e0       	ldi	r24, 0x02	; 2
    5484:	0e 94 02 29 	call	0x5204	; 0x5204 <udd_ep_abort>
			udd_ep_abort(i | USB_EP_DIR_IN);
    5488:	82 e8       	ldi	r24, 0x82	; 130
    548a:	0e 94 02 29 	call	0x5204	; 0x5204 <udd_ep_abort>
		}
#endif
		udc_reset();
    548e:	0e 94 2a 20 	call	0x4054	; 0x4054 <udc_reset>

		// Reset USB address to 0
		udd_set_device_address(0);
    5492:	10 92 c3 04 	sts	0x04C3, r1	; 0x8004c3 <__TEXT_REGION_LENGTH__+0x7004c3>
#endif
	}

	// Enable endpoint
	ep_ctrl = udd_ep_get_ctrl(ep);
	udd_endpoint_disable(ep_ctrl);
    5496:	e0 ee       	ldi	r30, 0xE0	; 224
    5498:	f5 e2       	ldi	r31, 0x25	; 37
    549a:	11 8a       	std	Z+17, r1	; 0x11
	udd_endpoint_clear_status(ep_ctrl);
    549c:	96 e0       	ldi	r25, 0x06	; 6
    549e:	90 8b       	std	Z+16, r25	; 0x10
	udd_endpoint_set_control(ep_ctrl, (uint8_t) type | (uint8_t) size);
    54a0:	83 e4       	ldi	r24, 0x43	; 67
    54a2:	81 8b       	std	Z+17, r24	; 0x11
#endif
	}

	// Enable endpoint
	ep_ctrl = udd_ep_get_ctrl(ep);
	udd_endpoint_disable(ep_ctrl);
    54a4:	11 8e       	std	Z+25, r1	; 0x19
	udd_endpoint_clear_status(ep_ctrl);
    54a6:	90 8f       	std	Z+24, r25	; 0x18
	udd_endpoint_set_control(ep_ctrl, (uint8_t) type | (uint8_t) size);
    54a8:	81 8f       	std	Z+25, r24	; 0x19
		udd_set_device_address(0);
		// Alloc and configure control endpoint
		udd_ep_init(0, USB_EP_TYPE_CONTROL, USB_DEVICE_EP_CTRL_SIZE);
		udd_ep_init(0 | USB_EP_DIR_IN, USB_EP_TYPE_CONTROL,
				USB_DEVICE_EP_CTRL_SIZE);
		udd_control_out_set_buf(&udd_ctrl_buffer);
    54aa:	8b e9       	ldi	r24, 0x9B	; 155
    54ac:	95 e2       	ldi	r25, 0x25	; 37
    54ae:	84 8b       	std	Z+20, r24	; 0x14
    54b0:	95 8b       	std	Z+21, r25	; 0x15
		// Reset endpoint control management
		udd_ctrl_init();
    54b2:	0e 94 5f 23 	call	0x46be	; 0x46be <udd_ctrl_init>
		goto udd_interrupt_bus_event_end;
    54b6:	1b c0       	rjmp	.+54     	; 0x54ee <__vector_125+0x16a>
	}

	if (udd_is_suspend_event()) {
    54b8:	80 91 cb 04 	lds	r24, 0x04CB	; 0x8004cb <__TEXT_REGION_LENGTH__+0x7004cb>
    54bc:	86 ff       	sbrs	r24, 6
    54be:	07 c0       	rjmp	.+14     	; 0x54ce <__vector_125+0x14a>
		udd_ack_suspend_event();
    54c0:	80 e4       	ldi	r24, 0x40	; 64
    54c2:	80 93 ca 04 	sts	0x04CA, r24	; 0x8004ca <__TEXT_REGION_LENGTH__+0x7004ca>
		udd_sleep_mode(false); // Enter in SUSPEND mode
    54c6:	80 e0       	ldi	r24, 0x00	; 0
    54c8:	0e 94 27 23 	call	0x464e	; 0x464e <udd_sleep_mode>
#ifdef UDC_SUSPEND_EVENT
		UDC_SUSPEND_EVENT();
#endif
		goto udd_interrupt_bus_event_end;
    54cc:	10 c0       	rjmp	.+32     	; 0x54ee <__vector_125+0x16a>
	}

	if (udd_is_resume_event()) {
    54ce:	80 91 cb 04 	lds	r24, 0x04CB	; 0x8004cb <__TEXT_REGION_LENGTH__+0x7004cb>
    54d2:	85 ff       	sbrs	r24, 5
    54d4:	0c c0       	rjmp	.+24     	; 0x54ee <__vector_125+0x16a>
		udd_ack_resume_event();
    54d6:	80 e2       	ldi	r24, 0x20	; 32
    54d8:	80 93 ca 04 	sts	0x04CA, r24	; 0x8004ca <__TEXT_REGION_LENGTH__+0x7004ca>
		udd_sleep_mode(true); // Enter in power reduction mode
    54dc:	81 e0       	ldi	r24, 0x01	; 1
    54de:	0e 94 27 23 	call	0x464e	; 0x464e <udd_sleep_mode>
#endif
		goto udd_interrupt_bus_event_end;
	}

udd_interrupt_bus_event_end:
	return;
    54e2:	05 c0       	rjmp	.+10     	; 0x54ee <__vector_125+0x16a>
	}

	if (udd_ctrl_interrupt_error()) {
		goto udd_interrupt_bus_event_end;
	}
	if (udd_is_reset_event()) {
    54e4:	80 91 cb 04 	lds	r24, 0x04CB	; 0x8004cb <__TEXT_REGION_LENGTH__+0x7004cb>
    54e8:	84 fd       	sbrc	r24, 4
    54ea:	c2 cf       	rjmp	.-124    	; 0x5470 <__vector_125+0xec>
    54ec:	e5 cf       	rjmp	.-54     	; 0x54b8 <__vector_125+0x134>
		goto udd_interrupt_bus_event_end;
	}

udd_interrupt_bus_event_end:
	return;
}
    54ee:	ff 91       	pop	r31
    54f0:	ef 91       	pop	r30
    54f2:	bf 91       	pop	r27
    54f4:	af 91       	pop	r26
    54f6:	9f 91       	pop	r25
    54f8:	8f 91       	pop	r24
    54fa:	7f 91       	pop	r23
    54fc:	6f 91       	pop	r22
    54fe:	5f 91       	pop	r21
    5500:	4f 91       	pop	r20
    5502:	3f 91       	pop	r19
    5504:	2f 91       	pop	r18
    5506:	0f 91       	pop	r16
    5508:	0f 90       	pop	r0
    550a:	0b be       	out	0x3b, r0	; 59
    550c:	0f 90       	pop	r0
    550e:	09 be       	out	0x39, r0	; 57
    5510:	0f 90       	pop	r0
    5512:	08 be       	out	0x38, r0	; 56
    5514:	0f 90       	pop	r0
    5516:	0f be       	out	0x3f, r0	; 63
    5518:	0f 90       	pop	r0
    551a:	1f 90       	pop	r1
    551c:	18 95       	reti

0000551e <__vector_126>:
 * \brief Function called by USB transfer complete interrupt
 *
 * USB transfer complete interrupt includes events about endpoint transfer on all endpoints.
 */
ISR(USB_TRNCOMPL_vect)
{
    551e:	1f 92       	push	r1
    5520:	0f 92       	push	r0
    5522:	0f b6       	in	r0, 0x3f	; 63
    5524:	0f 92       	push	r0
    5526:	11 24       	eor	r1, r1
    5528:	08 b6       	in	r0, 0x38	; 56
    552a:	0f 92       	push	r0
    552c:	18 be       	out	0x38, r1	; 56
    552e:	09 b6       	in	r0, 0x39	; 57
    5530:	0f 92       	push	r0
    5532:	19 be       	out	0x39, r1	; 57
    5534:	0a b6       	in	r0, 0x3a	; 58
    5536:	0f 92       	push	r0
    5538:	1a be       	out	0x3a, r1	; 58
    553a:	0b b6       	in	r0, 0x3b	; 59
    553c:	0f 92       	push	r0
    553e:	1b be       	out	0x3b, r1	; 59
    5540:	0f 93       	push	r16
    5542:	1f 93       	push	r17
    5544:	2f 93       	push	r18
    5546:	3f 93       	push	r19
    5548:	4f 93       	push	r20
    554a:	5f 93       	push	r21
    554c:	6f 93       	push	r22
    554e:	7f 93       	push	r23
    5550:	8f 93       	push	r24
    5552:	9f 93       	push	r25
    5554:	af 93       	push	r26
    5556:	bf 93       	push	r27
    5558:	cf 93       	push	r28
    555a:	df 93       	push	r29
    555c:	ef 93       	push	r30
    555e:	ff 93       	push	r31
	int8_t rp;
	UDD_EP_t *ep_ctrl;
	udd_ep_id_t ep;
#endif

	if (!udd_is_tc_event()) {
    5560:	80 91 cc 04 	lds	r24, 0x04CC	; 0x8004cc <__TEXT_REGION_LENGTH__+0x7004cc>
    5564:	81 fd       	sbrc	r24, 1
    5566:	04 c0       	rjmp	.+8      	; 0x5570 <__vector_126+0x52>
		// If no other transfer complete
		// then check reception of SETUP packet on control endpoint
		if (udd_ctrl_interrupt_tc_setup()) {
    5568:	0e 94 5a 24 	call	0x48b4	; 0x48b4 <udd_ctrl_interrupt_tc_setup>
    556c:	81 11       	cpse	r24, r1
    556e:	c4 c0       	rjmp	.+392    	; 0x56f8 <__vector_126+0x1da>
			goto udd_interrupt_tc_end;
		}
		Assert(false);
	}
	// Check IN/OUT transfer complete on all endpoints
	udd_ack_tc_event();
    5570:	82 e0       	ldi	r24, 0x02	; 2
    5572:	80 93 cc 04 	sts	0x04CC, r24	; 0x8004cc <__TEXT_REGION_LENGTH__+0x7004cc>

#if (0!=USB_DEVICE_MAX_EP)
	//** Decode TC FIFO
	// Compute ep addr
	rp = udd_get_fifo_rp();
    5576:	80 91 c5 04 	lds	r24, 0x04C5	; 0x8004c5 <__TEXT_REGION_LENGTH__+0x7004c5>
	i_fifo = 2 * (1 + ~rp);
	ad = ((uint16_t) udd_sram.ep_ctrl) - i_fifo;
	p_ad = (uint16_t *) ad;
	// Compute ep
	ep_index = (((uint16_t) * p_ad - ((uint16_t) udd_sram.ep_ctrl)) >> 3);
    557a:	81 95       	neg	r24
    557c:	88 0f       	add	r24, r24
    557e:	e0 ef       	ldi	r30, 0xF0	; 240
    5580:	f5 e2       	ldi	r31, 0x25	; 37
    5582:	e8 1b       	sub	r30, r24
    5584:	f1 09       	sbc	r31, r1
    5586:	20 81       	ld	r18, Z
    5588:	31 81       	ldd	r19, Z+1	; 0x01
    558a:	20 5f       	subi	r18, 0xF0	; 240
    558c:	35 42       	sbci	r19, 0x25	; 37
    558e:	36 95       	lsr	r19
    5590:	27 95       	ror	r18
    5592:	36 95       	lsr	r19
    5594:	27 95       	ror	r18
    5596:	36 95       	lsr	r19
    5598:	27 95       	ror	r18
	ep = (ep_index / 2) + ((ep_index & 1) ? USB_EP_DIR_IN : 0);
    559a:	82 2f       	mov	r24, r18
    559c:	86 95       	lsr	r24
    559e:	20 fd       	sbrc	r18, 0
    55a0:	02 c0       	rjmp	.+4      	; 0x55a6 <__vector_126+0x88>
    55a2:	90 e0       	ldi	r25, 0x00	; 0
    55a4:	01 c0       	rjmp	.+2      	; 0x55a8 <__vector_126+0x8a>
    55a6:	90 e8       	ldi	r25, 0x80	; 128
    55a8:	89 0f       	add	r24, r25
	udd_endpoint_set_control(ep_ctrl, (uint8_t) type | (uint8_t) size);
}

static UDD_EP_t *udd_ep_get_ctrl(udd_ep_id_t ep)
{
	return &udd_sram.ep_ctrl[(2 * (ep & USB_EP_ADDR_MASK) +
    55aa:	e8 2f       	mov	r30, r24
    55ac:	ef 70       	andi	r30, 0x0F	; 15
    55ae:	f0 e0       	ldi	r31, 0x00	; 0
    55b0:	ee 0f       	add	r30, r30
    55b2:	ff 1f       	adc	r31, r31
    55b4:	28 2f       	mov	r18, r24
    55b6:	08 2e       	mov	r0, r24
    55b8:	00 0c       	add	r0, r0
    55ba:	33 0b       	sbc	r19, r19
    55bc:	22 27       	eor	r18, r18
    55be:	33 0f       	add	r19, r19
    55c0:	22 1f       	adc	r18, r18
    55c2:	33 27       	eor	r19, r19
    55c4:	e2 0f       	add	r30, r18
    55c6:	f3 1f       	adc	r31, r19
	ep = (ep_index / 2) + ((ep_index & 1) ? USB_EP_DIR_IN : 0);
	Assert(USB_DEVICE_MAX_EP >= (ep & USB_EP_ADDR_MASK));

	// Ack IT TC of endpoint
	ep_ctrl = udd_ep_get_ctrl(ep);
	if (!udd_endpoint_transfer_complete(ep_ctrl)) {
    55c8:	df 01       	movw	r26, r30
    55ca:	aa 0f       	add	r26, r26
    55cc:	bb 1f       	adc	r27, r27
    55ce:	aa 0f       	add	r26, r26
    55d0:	bb 1f       	adc	r27, r27
    55d2:	aa 0f       	add	r26, r26
    55d4:	bb 1f       	adc	r27, r27
    55d6:	a0 51       	subi	r26, 0x10	; 16
    55d8:	ba 4d       	sbci	r27, 0xDA	; 218
    55da:	9c 91       	ld	r25, X
    55dc:	95 ff       	sbrs	r25, 5
    55de:	8c c0       	rjmp	.+280    	; 0x56f8 <__vector_126+0x1da>
		return; // Error, TC is generated by Multipacket transfer
	}
	udd_endpoint_ack_transfer_complete(ep_ctrl);
    55e0:	fd 01       	movw	r30, r26
    55e2:	00 e2       	ldi	r16, 0x20	; 32
    55e4:	06 93       	lac	Z, r16

	// Check status on control endpoint
	if (ep == 0) {
    55e6:	81 11       	cpse	r24, r1
    55e8:	80 c0       	rjmp	.+256    	; 0x56ea <__vector_126+0x1cc>

static void udd_ctrl_out_received(void)
{
	uint16_t nb_data;

	if (UDD_EPCTRL_HANDSHAKE_WAIT_OUT_ZLP == udd_ep_control_state) {
    55ea:	80 91 df 25 	lds	r24, 0x25DF	; 0x8025df <udd_ep_control_state>
    55ee:	84 30       	cpi	r24, 0x04	; 4
    55f0:	29 f4       	brne	.+10     	; 0x55fc <__vector_126+0xde>
		// Valid end of setup request
		udd_ctrl_endofrequest();
    55f2:	0e 94 a0 23 	call	0x4740	; 0x4740 <udd_ctrl_endofrequest>
		// Reinitializes control endpoint management
		udd_ctrl_init();
    55f6:	0e 94 5f 23 	call	0x46be	; 0x46be <udd_ctrl_init>
    55fa:	7e c0       	rjmp	.+252    	; 0x56f8 <__vector_126+0x1da>
		return;
	}
	Assert(udd_ep_control_state == UDD_EPCTRL_DATA_OUT);

	// Read data received during OUT phase
	nb_data = udd_control_out_get_bytecnt();
    55fc:	00 91 f2 25 	lds	r16, 0x25F2	; 0x8025f2 <udd_sram+0x12>
    5600:	10 91 f3 25 	lds	r17, 0x25F3	; 0x8025f3 <udd_sram+0x13>

	if (udd_g_ctrlreq.payload_size < (udd_ctrl_payload_nb_trans + nb_data)) {
    5604:	80 91 3b 26 	lds	r24, 0x263B	; 0x80263b <udd_g_ctrlreq+0xa>
    5608:	90 91 3c 26 	lds	r25, 0x263C	; 0x80263c <udd_g_ctrlreq+0xb>
    560c:	c0 91 db 25 	lds	r28, 0x25DB	; 0x8025db <udd_ctrl_payload_nb_trans>
    5610:	d0 91 dc 25 	lds	r29, 0x25DC	; 0x8025dc <udd_ctrl_payload_nb_trans+0x1>
    5614:	98 01       	movw	r18, r16
    5616:	2c 0f       	add	r18, r28
    5618:	3d 1f       	adc	r19, r29
    561a:	82 17       	cp	r24, r18
    561c:	93 07       	cpc	r25, r19
    561e:	18 f4       	brcc	.+6      	; 0x5626 <__vector_126+0x108>
		// Payload buffer too small, ignore data remaining
		nb_data = udd_g_ctrlreq.payload_size - udd_ctrl_payload_nb_trans;
    5620:	8c 01       	movw	r16, r24
    5622:	0c 1b       	sub	r16, r28
    5624:	1d 0b       	sbc	r17, r29
	}

	memcpy((uint8_t *) (udd_g_ctrlreq.payload + udd_ctrl_payload_nb_trans),
    5626:	80 91 39 26 	lds	r24, 0x2639	; 0x802639 <udd_g_ctrlreq+0x8>
    562a:	90 91 3a 26 	lds	r25, 0x263A	; 0x80263a <udd_g_ctrlreq+0x9>
    562e:	a8 01       	movw	r20, r16
    5630:	6b e9       	ldi	r22, 0x9B	; 155
    5632:	75 e2       	ldi	r23, 0x25	; 37
    5634:	8c 0f       	add	r24, r28
    5636:	9d 1f       	adc	r25, r29
    5638:	0e 94 11 31 	call	0x6222	; 0x6222 <memcpy>
			udd_ctrl_buffer, nb_data);
	udd_ctrl_payload_nb_trans += nb_data;
    563c:	c0 0f       	add	r28, r16
    563e:	d1 1f       	adc	r29, r17
    5640:	c0 93 db 25 	sts	0x25DB, r28	; 0x8025db <udd_ctrl_payload_nb_trans>
    5644:	d0 93 dc 25 	sts	0x25DC, r29	; 0x8025dc <udd_ctrl_payload_nb_trans+0x1>

	if ((USB_DEVICE_EP_CTRL_SIZE != nb_data) || (udd_g_ctrlreq.req.wLength
    5648:	00 34       	cpi	r16, 0x40	; 64
    564a:	11 05       	cpc	r17, r1
    564c:	69 f4       	brne	.+26     	; 0x5668 <__vector_126+0x14a>
    564e:	80 91 dd 25 	lds	r24, 0x25DD	; 0x8025dd <udd_ctrl_prev_payload_nb_trans>
    5652:	90 91 de 25 	lds	r25, 0x25DE	; 0x8025de <udd_ctrl_prev_payload_nb_trans+0x1>
    5656:	8c 0f       	add	r24, r28
    5658:	9d 1f       	adc	r25, r29
    565a:	20 91 37 26 	lds	r18, 0x2637	; 0x802637 <udd_g_ctrlreq+0x6>
    565e:	30 91 38 26 	lds	r19, 0x2638	; 0x802638 <udd_g_ctrlreq+0x7>
    5662:	82 17       	cp	r24, r18
    5664:	93 07       	cpc	r25, r19
    5666:	90 f0       	brcs	.+36     	; 0x568c <__vector_126+0x16e>
		// End of reception because it is a short packet
		// or all data are transfered

		// Before send ZLP, call intermediate callback
		// in case of data receive generate a stall
		udd_g_ctrlreq.payload_size = udd_ctrl_payload_nb_trans;
    5668:	e1 e3       	ldi	r30, 0x31	; 49
    566a:	f6 e2       	ldi	r31, 0x26	; 38
    566c:	c2 87       	std	Z+10, r28	; 0x0a
    566e:	d3 87       	std	Z+11, r29	; 0x0b
		if (NULL != udd_g_ctrlreq.over_under_run) {
    5670:	06 84       	ldd	r0, Z+14	; 0x0e
    5672:	f7 85       	ldd	r31, Z+15	; 0x0f
    5674:	e0 2d       	mov	r30, r0
    5676:	30 97       	sbiw	r30, 0x00	; 0
    5678:	31 f0       	breq	.+12     	; 0x5686 <__vector_126+0x168>
			if (!udd_g_ctrlreq.over_under_run()) {
    567a:	19 95       	eicall
    567c:	81 11       	cpse	r24, r1
    567e:	03 c0       	rjmp	.+6      	; 0x5686 <__vector_126+0x168>
				// Stall ZLP
				udd_ctrl_stall_data();
    5680:	0e 94 84 23 	call	0x4708	; 0x4708 <udd_ctrl_stall_data>
    5684:	39 c0       	rjmp	.+114    	; 0x56f8 <__vector_126+0x1da>
				return;
			}
		}
		// Send IN ZLP to ACK setup request
		udd_ctrl_send_zlp_in();
    5686:	0e 94 92 23 	call	0x4724	; 0x4724 <udd_ctrl_send_zlp_in>
    568a:	36 c0       	rjmp	.+108    	; 0x56f8 <__vector_126+0x1da>
		return;
	}

	if (udd_g_ctrlreq.payload_size == udd_ctrl_payload_nb_trans) {
    568c:	80 91 3b 26 	lds	r24, 0x263B	; 0x80263b <udd_g_ctrlreq+0xa>
    5690:	90 91 3c 26 	lds	r25, 0x263C	; 0x80263c <udd_g_ctrlreq+0xb>
    5694:	c8 17       	cp	r28, r24
    5696:	d9 07       	cpc	r29, r25
    5698:	09 f5       	brne	.+66     	; 0x56dc <__vector_126+0x1be>
		// Overrun then request a new payload buffer
		if (!udd_g_ctrlreq.over_under_run) {
    569a:	e0 91 3f 26 	lds	r30, 0x263F	; 0x80263f <udd_g_ctrlreq+0xe>
    569e:	f0 91 40 26 	lds	r31, 0x2640	; 0x802640 <udd_g_ctrlreq+0xf>
    56a2:	30 97       	sbiw	r30, 0x00	; 0
    56a4:	19 f4       	brne	.+6      	; 0x56ac <__vector_126+0x18e>
			// No callback available to request a new payload buffer
			udd_ctrl_stall_data();
    56a6:	0e 94 84 23 	call	0x4708	; 0x4708 <udd_ctrl_stall_data>
    56aa:	26 c0       	rjmp	.+76     	; 0x56f8 <__vector_126+0x1da>
			return;
		}
		if (!udd_g_ctrlreq.over_under_run()) {
    56ac:	19 95       	eicall
    56ae:	81 11       	cpse	r24, r1
    56b0:	03 c0       	rjmp	.+6      	; 0x56b8 <__vector_126+0x19a>
			// No new payload buffer delivered
			udd_ctrl_stall_data();
    56b2:	0e 94 84 23 	call	0x4708	; 0x4708 <udd_ctrl_stall_data>
    56b6:	20 c0       	rjmp	.+64     	; 0x56f8 <__vector_126+0x1da>
			return;
		}
		// New payload buffer available
		// Update number of total data received
		udd_ctrl_prev_payload_nb_trans += udd_ctrl_payload_nb_trans;
    56b8:	20 91 dd 25 	lds	r18, 0x25DD	; 0x8025dd <udd_ctrl_prev_payload_nb_trans>
    56bc:	30 91 de 25 	lds	r19, 0x25DE	; 0x8025de <udd_ctrl_prev_payload_nb_trans+0x1>
    56c0:	80 91 db 25 	lds	r24, 0x25DB	; 0x8025db <udd_ctrl_payload_nb_trans>
    56c4:	90 91 dc 25 	lds	r25, 0x25DC	; 0x8025dc <udd_ctrl_payload_nb_trans+0x1>
    56c8:	82 0f       	add	r24, r18
    56ca:	93 1f       	adc	r25, r19
    56cc:	80 93 dd 25 	sts	0x25DD, r24	; 0x8025dd <udd_ctrl_prev_payload_nb_trans>
    56d0:	90 93 de 25 	sts	0x25DE, r25	; 0x8025de <udd_ctrl_prev_payload_nb_trans+0x1>
		// Reinit reception on payload buffer
		udd_ctrl_payload_nb_trans = 0;
    56d4:	10 92 db 25 	sts	0x25DB, r1	; 0x8025db <udd_ctrl_payload_nb_trans>
    56d8:	10 92 dc 25 	sts	0x25DC, r1	; 0x8025dc <udd_ctrl_payload_nb_trans+0x1>
	}
	// Free buffer of OUT control endpoint to authorize next reception
	udd_control_out_clear_NACK0();
    56dc:	e0 ef       	ldi	r30, 0xF0	; 240
    56de:	f5 e2       	ldi	r31, 0x25	; 37
    56e0:	02 e0       	ldi	r16, 0x02	; 2
    56e2:	06 93       	lac	Z, r16
	udd_control_out_ack_tc();
    56e4:	00 e2       	ldi	r16, 0x20	; 32
    56e6:	06 93       	lac	Z, r16
    56e8:	07 c0       	rjmp	.+14     	; 0x56f8 <__vector_126+0x1da>
	// Check status on control endpoint
	if (ep == 0) {
		udd_ctrl_out_received();
		goto udd_interrupt_tc_end; // Interrupt acked by control endpoint managed
	}
	if (ep == (0 | USB_EP_DIR_IN)) {
    56ea:	80 38       	cpi	r24, 0x80	; 128
    56ec:	19 f4       	brne	.+6      	; 0x56f4 <__vector_126+0x1d6>
		udd_ctrl_in_sent();
    56ee:	0e 94 a8 23 	call	0x4750	; 0x4750 <udd_ctrl_in_sent>
		goto udd_interrupt_tc_end; // Interrupt acked by control endpoint managed
    56f2:	02 c0       	rjmp	.+4      	; 0x56f8 <__vector_126+0x1da>
	}
	Assert(udd_ep_is_valid(ep));
	// Manage end of transfer on endpoint bulk/interrupt/isochronous
	udd_ep_trans_complet(ep);
    56f4:	0e 94 d1 24 	call	0x49a2	; 0x49a2 <udd_ep_trans_complet>
	}
#endif

udd_interrupt_tc_end:
	return;
}
    56f8:	ff 91       	pop	r31
    56fa:	ef 91       	pop	r30
    56fc:	df 91       	pop	r29
    56fe:	cf 91       	pop	r28
    5700:	bf 91       	pop	r27
    5702:	af 91       	pop	r26
    5704:	9f 91       	pop	r25
    5706:	8f 91       	pop	r24
    5708:	7f 91       	pop	r23
    570a:	6f 91       	pop	r22
    570c:	5f 91       	pop	r21
    570e:	4f 91       	pop	r20
    5710:	3f 91       	pop	r19
    5712:	2f 91       	pop	r18
    5714:	1f 91       	pop	r17
    5716:	0f 91       	pop	r16
    5718:	0f 90       	pop	r0
    571a:	0b be       	out	0x3b, r0	; 59
    571c:	0f 90       	pop	r0
    571e:	0a be       	out	0x3a, r0	; 58
    5720:	0f 90       	pop	r0
    5722:	09 be       	out	0x39, r0	; 57
    5724:	0f 90       	pop	r0
    5726:	08 be       	out	0x38, r0	; 56
    5728:	0f 90       	pop	r0
    572a:	0f be       	out	0x3f, r0	; 63
    572c:	0f 90       	pop	r0
    572e:	1f 90       	pop	r1
    5730:	18 95       	reti

00005732 <udd_ep_is_valid>:
		((ep & USB_EP_DIR_IN) ? 1 : 0)) - 2];
}

bool udd_ep_is_valid(udd_ep_id_t ep)
{
	ep &= USB_EP_ADDR_MASK;
    5732:	98 2f       	mov	r25, r24
    5734:	9f 70       	andi	r25, 0x0F	; 15
	if (ep == 0) {
    5736:	29 f0       	breq	.+10     	; 0x5742 <udd_ep_is_valid+0x10>
		return false;
	}
	return (USB_DEVICE_MAX_EP >= ep);
    5738:	81 e0       	ldi	r24, 0x01	; 1
    573a:	93 30       	cpi	r25, 0x03	; 3
    573c:	18 f0       	brcs	.+6      	; 0x5744 <udd_ep_is_valid+0x12>
    573e:	80 e0       	ldi	r24, 0x00	; 0
    5740:	08 95       	ret

bool udd_ep_is_valid(udd_ep_id_t ep)
{
	ep &= USB_EP_ADDR_MASK;
	if (ep == 0) {
		return false;
    5742:	80 e0       	ldi	r24, 0x00	; 0
	}
	return (USB_DEVICE_MAX_EP >= ep);
}
    5744:	08 95       	ret

00005746 <sysclk_init>:
#  include <nvm.h>
#endif


void sysclk_init(void)
{
    5746:	0f 93       	push	r16
    5748:	1f 93       	push	r17
    574a:	cf 93       	push	r28
    574c:	df 93       	push	r29
    574e:	cd b7       	in	r28, 0x3d	; 61
    5750:	de b7       	in	r29, 0x3e	; 62
    5752:	27 97       	sbiw	r28, 0x07	; 7
    5754:	cd bf       	out	0x3d, r28	; 61
    5756:	de bf       	out	0x3e, r29	; 62
#endif
	bool need_rc2mhz = false;

	/* Turn off all peripheral clocks that can be turned off. */
	for (i = 0; i <= SYSCLK_PORT_F; i++) {
		*(reg++) = 0xff;
    5758:	8f ef       	ldi	r24, 0xFF	; 255
    575a:	80 93 70 00 	sts	0x0070, r24	; 0x800070 <__TEXT_REGION_LENGTH__+0x700070>
    575e:	80 93 71 00 	sts	0x0071, r24	; 0x800071 <__TEXT_REGION_LENGTH__+0x700071>
    5762:	80 93 72 00 	sts	0x0072, r24	; 0x800072 <__TEXT_REGION_LENGTH__+0x700072>
    5766:	80 93 73 00 	sts	0x0073, r24	; 0x800073 <__TEXT_REGION_LENGTH__+0x700073>
    576a:	80 93 74 00 	sts	0x0074, r24	; 0x800074 <__TEXT_REGION_LENGTH__+0x700074>
    576e:	80 93 75 00 	sts	0x0075, r24	; 0x800075 <__TEXT_REGION_LENGTH__+0x700075>
    5772:	80 93 76 00 	sts	0x0076, r24	; 0x800076 <__TEXT_REGION_LENGTH__+0x700076>
 * \param psbcdiv The prescaler B and C settings (one of the \c SYSCLK_PSBCDIV_*
 * definitions). These determine the clkPER2, clkPER and clkCPU frequencies.
 */
static inline void sysclk_set_prescalers(uint8_t psadiv, uint8_t psbcdiv)
{
	ccp_write_io((uint8_t *)&CLK.PSCTRL, psadiv | psbcdiv);
    5776:	64 e0       	ldi	r22, 0x04	; 4
    5778:	81 e4       	ldi	r24, 0x41	; 65
    577a:	90 e0       	ldi	r25, 0x00	; 0
    577c:	0e 94 40 30 	call	0x6080	; 0x6080 <ccp_write_io>
    5780:	6c e1       	ldi	r22, 0x1C	; 28
    5782:	70 e0       	ldi	r23, 0x00	; 0
    5784:	82 e0       	ldi	r24, 0x02	; 2
    5786:	0e 94 36 30 	call	0x606c	; 0x606c <nvm_read_byte>
			|| (CONFIG_SYSCLK_PSBCDIV != SYSCLK_PSBCDIV_1_1)) {
		sysclk_set_prescalers(CONFIG_SYSCLK_PSADIV,
				CONFIG_SYSCLK_PSBCDIV);
	}
#if (CONFIG_OSC_RC32_CAL==48000000UL)
	MSB(cal) = nvm_read_production_signature_row(
    578a:	8a 83       	std	Y+2, r24	; 0x02
    578c:	6d e1       	ldi	r22, 0x1D	; 29
    578e:	70 e0       	ldi	r23, 0x00	; 0
    5790:	82 e0       	ldi	r24, 0x02	; 2
    5792:	0e 94 36 30 	call	0x606c	; 0x606c <nvm_read_byte>
			nvm_get_production_signature_row_offset(USBRCOSC));
	LSB(cal) = nvm_read_production_signature_row(
    5796:	89 83       	std	Y+1, r24	; 0x01
	/*
	* If a device has an uncalibrated value in the
	* production signature row (early sample part), load a
	* sane default calibration value.
	*/
	if (cal == 0xFFFF) {
    5798:	89 81       	ldd	r24, Y+1	; 0x01
    579a:	9a 81       	ldd	r25, Y+2	; 0x02
    579c:	01 96       	adiw	r24, 0x01	; 1
    579e:	21 f4       	brne	.+8      	; 0x57a8 <sysclk_init+0x62>
		cal = 0x2340;
    57a0:	80 e4       	ldi	r24, 0x40	; 64
    57a2:	93 e2       	ldi	r25, 0x23	; 35
    57a4:	89 83       	std	Y+1, r24	; 0x01
    57a6:	9a 83       	std	Y+2, r25	; 0x02
    57a8:	89 81       	ldd	r24, Y+1	; 0x01
    57aa:	9a 81       	ldd	r25, Y+2	; 0x02
    57ac:	8b 83       	std	Y+3, r24	; 0x03
    57ae:	9c 83       	std	Y+4, r25	; 0x04
		DFLLRC2M.CALB=MSB(calib);
#endif
		break;

	case OSC_ID_RC32MHZ:
		DFLLRC32M.CALA=LSB(calib);
    57b0:	e0 e6       	ldi	r30, 0x60	; 96
    57b2:	f0 e0       	ldi	r31, 0x00	; 0
    57b4:	82 83       	std	Z+2, r24	; 0x02
		DFLLRC32M.CALB=MSB(calib);
    57b6:	8c 81       	ldd	r24, Y+4	; 0x04
    57b8:	83 83       	std	Z+3, r24	; 0x03

typedef uint8_t irqflags_t;

static inline irqflags_t cpu_irq_save(void)
{
	volatile irqflags_t flags = SREG;
    57ba:	8f b7       	in	r24, 0x3f	; 63
    57bc:	8e 83       	std	Y+6, r24	; 0x06
	cpu_irq_disable();
    57be:	f8 94       	cli
	return flags;
    57c0:	9e 81       	ldd	r25, Y+6	; 0x06
	irqflags_t flags;

	Assert(id != OSC_ID_USBSOF);

	flags = cpu_irq_save();
	OSC.CTRL |= id;
    57c2:	e0 e5       	ldi	r30, 0x50	; 80
    57c4:	f0 e0       	ldi	r31, 0x00	; 0
    57c6:	80 81       	ld	r24, Z
    57c8:	82 60       	ori	r24, 0x02	; 2
    57ca:	80 83       	st	Z, r24
}

static inline void cpu_irq_restore(irqflags_t flags)
{
	barrier();
	SREG = flags;
    57cc:	9f bf       	out	0x3f, r25	; 63

static inline bool osc_is_ready(uint8_t id)
{
	Assert(id != OSC_ID_USBSOF);

	return OSC.STATUS & id;
    57ce:	81 81       	ldd	r24, Z+1	; 0x01
 *
 * \param id A number identifying the oscillator to wait for.
 */
static inline void osc_wait_ready(uint8_t id)
{
	while (!osc_is_ready(id)) {
    57d0:	81 ff       	sbrs	r24, 1
    57d2:	fd cf       	rjmp	.-6      	; 0x57ce <sysclk_init+0x88>

typedef uint8_t irqflags_t;

static inline irqflags_t cpu_irq_save(void)
{
	volatile irqflags_t flags = SREG;
    57d4:	8f b7       	in	r24, 0x3f	; 63
    57d6:	8f 83       	std	Y+7, r24	; 0x07
	cpu_irq_disable();
    57d8:	f8 94       	cli
	return flags;
    57da:	9f 81       	ldd	r25, Y+7	; 0x07
# if !XMEGA_E
				|| (ref_id == OSC_ID_USBSOF)
#endif
				);

		OSC.DFLLCTRL &= ~(OSC_RC32MCREF_gm);
    57dc:	00 e5       	ldi	r16, 0x50	; 80
    57de:	10 e0       	ldi	r17, 0x00	; 0
    57e0:	d8 01       	movw	r26, r16
    57e2:	16 96       	adiw	r26, 0x06	; 6
    57e4:	8c 91       	ld	r24, X
    57e6:	16 97       	sbiw	r26, 0x06	; 6
    57e8:	89 7f       	andi	r24, 0xF9	; 249
    57ea:	16 96       	adiw	r26, 0x06	; 6
    57ec:	8c 93       	st	X, r24
    57ee:	16 97       	sbiw	r26, 0x06	; 6
		else if (ref_id == OSC_ID_USBSOF) {
			/*
			 * Calibrate 32MRC at 48MHz using USB SOF
			 * 48MHz / 1kHz = 0xBB80
			 */
			DFLLRC32M.COMP1 = 0x80;
    57f0:	e0 e6       	ldi	r30, 0x60	; 96
    57f2:	f0 e0       	ldi	r31, 0x00	; 0
    57f4:	80 e8       	ldi	r24, 0x80	; 128
    57f6:	85 83       	std	Z+5, r24	; 0x05
			DFLLRC32M.COMP2 = 0xBB;
    57f8:	8b eb       	ldi	r24, 0xBB	; 187
    57fa:	86 83       	std	Z+6, r24	; 0x06
			OSC.DFLLCTRL |= OSC_RC32MCREF_USBSOF_gc;
    57fc:	16 96       	adiw	r26, 0x06	; 6
    57fe:	8c 91       	ld	r24, X
    5800:	16 97       	sbiw	r26, 0x06	; 6
    5802:	84 60       	ori	r24, 0x04	; 4
    5804:	16 96       	adiw	r26, 0x06	; 6
    5806:	8c 93       	st	X, r24
			OSC.DFLLCTRL &= ~(OSC_RC32MCREF_bm);
# endif
		}
#endif

		DFLLRC32M.CTRL |= DFLL_ENABLE_bm;
    5808:	80 81       	ld	r24, Z
    580a:	81 60       	ori	r24, 0x01	; 1
    580c:	80 83       	st	Z, r24
}

static inline void cpu_irq_restore(irqflags_t flags)
{
	barrier();
	SREG = flags;
    580e:	9f bf       	out	0x3f, r25	; 63
		default:
			//unhandled_case(CONFIG_SYSCLK_SOURCE);
			return;
		}

		ccp_write_io((uint8_t *)&CLK.CTRL, CONFIG_SYSCLK_SOURCE);
    5810:	61 e0       	ldi	r22, 0x01	; 1
    5812:	80 e4       	ldi	r24, 0x40	; 64
    5814:	90 e0       	ldi	r25, 0x00	; 0
    5816:	0e 94 40 30 	call	0x6080	; 0x6080 <ccp_write_io>

typedef uint8_t irqflags_t;

static inline irqflags_t cpu_irq_save(void)
{
	volatile irqflags_t flags = SREG;
    581a:	8f b7       	in	r24, 0x3f	; 63
    581c:	8d 83       	std	Y+5, r24	; 0x05
	cpu_irq_disable();
    581e:	f8 94       	cli
	return flags;
    5820:	9d 81       	ldd	r25, Y+5	; 0x05
	irqflags_t flags;

	Assert(id != OSC_ID_USBSOF);

	flags = cpu_irq_save();
	OSC.CTRL &= ~id;
    5822:	f8 01       	movw	r30, r16
    5824:	80 81       	ld	r24, Z
    5826:	8e 7f       	andi	r24, 0xFE	; 254
    5828:	80 83       	st	Z, r24
}

static inline void cpu_irq_restore(irqflags_t flags)
{
	barrier();
	SREG = flags;
    582a:	9f bf       	out	0x3f, r25	; 63
	}

#ifdef CONFIG_RTC_SOURCE
	sysclk_rtcsrc_enable(CONFIG_RTC_SOURCE);
#endif
}
    582c:	27 96       	adiw	r28, 0x07	; 7
    582e:	cd bf       	out	0x3d, r28	; 61
    5830:	de bf       	out	0x3e, r29	; 62
    5832:	df 91       	pop	r29
    5834:	cf 91       	pop	r28
    5836:	1f 91       	pop	r17
    5838:	0f 91       	pop	r16
    583a:	08 95       	ret

0000583c <sysclk_enable_module>:

void sysclk_enable_module(enum sysclk_port_id port, uint8_t id)
{
    583c:	cf 93       	push	r28
    583e:	df 93       	push	r29
    5840:	1f 92       	push	r1
    5842:	cd b7       	in	r28, 0x3d	; 61
    5844:	de b7       	in	r29, 0x3e	; 62

typedef uint8_t irqflags_t;

static inline irqflags_t cpu_irq_save(void)
{
	volatile irqflags_t flags = SREG;
    5846:	9f b7       	in	r25, 0x3f	; 63
    5848:	99 83       	std	Y+1, r25	; 0x01
	cpu_irq_disable();
    584a:	f8 94       	cli
	return flags;
    584c:	99 81       	ldd	r25, Y+1	; 0x01
	irqflags_t flags = cpu_irq_save();

	*((uint8_t *)&PR.PRGEN + port) &= ~id;
    584e:	e8 2f       	mov	r30, r24
    5850:	f0 e0       	ldi	r31, 0x00	; 0
    5852:	e0 59       	subi	r30, 0x90	; 144
    5854:	ff 4f       	sbci	r31, 0xFF	; 255
    5856:	60 95       	com	r22
    5858:	80 81       	ld	r24, Z
    585a:	68 23       	and	r22, r24
    585c:	60 83       	st	Z, r22
}

static inline void cpu_irq_restore(irqflags_t flags)
{
	barrier();
	SREG = flags;
    585e:	9f bf       	out	0x3f, r25	; 63

	cpu_irq_restore(flags);
}
    5860:	0f 90       	pop	r0
    5862:	df 91       	pop	r29
    5864:	cf 91       	pop	r28
    5866:	08 95       	ret

00005868 <sysclk_disable_module>:

void sysclk_disable_module(enum sysclk_port_id port, uint8_t id)
{
    5868:	cf 93       	push	r28
    586a:	df 93       	push	r29
    586c:	1f 92       	push	r1
    586e:	cd b7       	in	r28, 0x3d	; 61
    5870:	de b7       	in	r29, 0x3e	; 62

typedef uint8_t irqflags_t;

static inline irqflags_t cpu_irq_save(void)
{
	volatile irqflags_t flags = SREG;
    5872:	9f b7       	in	r25, 0x3f	; 63
    5874:	99 83       	std	Y+1, r25	; 0x01
	cpu_irq_disable();
    5876:	f8 94       	cli
	return flags;
    5878:	99 81       	ldd	r25, Y+1	; 0x01
	irqflags_t flags = cpu_irq_save();

	*((uint8_t *)&PR.PRGEN + port) |= id;
    587a:	e8 2f       	mov	r30, r24
    587c:	f0 e0       	ldi	r31, 0x00	; 0
    587e:	e0 59       	subi	r30, 0x90	; 144
    5880:	ff 4f       	sbci	r31, 0xFF	; 255
    5882:	80 81       	ld	r24, Z
    5884:	68 2b       	or	r22, r24
    5886:	60 83       	st	Z, r22
}

static inline void cpu_irq_restore(irqflags_t flags)
{
	barrier();
	SREG = flags;
    5888:	9f bf       	out	0x3f, r25	; 63

	cpu_irq_restore(flags);
}
    588a:	0f 90       	pop	r0
    588c:	df 91       	pop	r29
    588e:	cf 91       	pop	r28
    5890:	08 95       	ret

00005892 <sysclk_enable_usb>:
 * \param frequency The required USB clock frequency in MHz:
 * \arg \c 6 for 6 MHz
 * \arg \c 48 for 48 MHz
 */
void sysclk_enable_usb(uint8_t frequency)
{
    5892:	cf 93       	push	r28
    5894:	df 93       	push	r29
    5896:	1f 92       	push	r1
    5898:	1f 92       	push	r1
    589a:	cd b7       	in	r28, 0x3d	; 61
    589c:	de b7       	in	r29, 0x3e	; 62

	/*
	 * Enable or disable prescaler depending on if the USB frequency is 6
	 * MHz or 48 MHz. Only 6 MHz USB frequency requires prescaling.
	 */
	if (frequency == 6) {
    589e:	86 30       	cpi	r24, 0x06	; 6
    58a0:	11 f0       	breq	.+4      	; 0x58a6 <sysclk_enable_usb+0x14>
		prescaler = CLK_USBPSDIV_8_gc;
	}
	else {
		prescaler = 0;
    58a2:	60 e0       	ldi	r22, 0x00	; 0
    58a4:	01 c0       	rjmp	.+2      	; 0x58a8 <sysclk_enable_usb+0x16>
	/*
	 * Enable or disable prescaler depending on if the USB frequency is 6
	 * MHz or 48 MHz. Only 6 MHz USB frequency requires prescaling.
	 */
	if (frequency == 6) {
		prescaler = CLK_USBPSDIV_8_gc;
    58a6:	68 e1       	ldi	r22, 0x18	; 24

static inline bool osc_is_ready(uint8_t id)
{
	Assert(id != OSC_ID_USBSOF);

	return OSC.STATUS & id;
    58a8:	80 91 51 00 	lds	r24, 0x0051	; 0x800051 <__TEXT_REGION_LENGTH__+0x700051>
	/*
	 * Switch to the system clock selected by the user.
	 */
	switch (CONFIG_USBCLK_SOURCE) {
	case USBCLK_SRC_RCOSC:
		if (!osc_is_ready(OSC_ID_RC32MHZ)) {
    58ac:	81 fd       	sbrc	r24, 1
    58ae:	2a c0       	rjmp	.+84     	; 0x5904 <sysclk_enable_usb+0x72>

typedef uint8_t irqflags_t;

static inline irqflags_t cpu_irq_save(void)
{
	volatile irqflags_t flags = SREG;
    58b0:	8f b7       	in	r24, 0x3f	; 63
    58b2:	89 83       	std	Y+1, r24	; 0x01
	cpu_irq_disable();
    58b4:	f8 94       	cli
	return flags;
    58b6:	99 81       	ldd	r25, Y+1	; 0x01
	irqflags_t flags;

	Assert(id != OSC_ID_USBSOF);

	flags = cpu_irq_save();
	OSC.CTRL |= id;
    58b8:	e0 e5       	ldi	r30, 0x50	; 80
    58ba:	f0 e0       	ldi	r31, 0x00	; 0
    58bc:	80 81       	ld	r24, Z
    58be:	82 60       	ori	r24, 0x02	; 2
    58c0:	80 83       	st	Z, r24
}

static inline void cpu_irq_restore(irqflags_t flags)
{
	barrier();
	SREG = flags;
    58c2:	9f bf       	out	0x3f, r25	; 63

static inline bool osc_is_ready(uint8_t id)
{
	Assert(id != OSC_ID_USBSOF);

	return OSC.STATUS & id;
    58c4:	81 81       	ldd	r24, Z+1	; 0x01
    58c6:	81 ff       	sbrs	r24, 1
    58c8:	fd cf       	rjmp	.-6      	; 0x58c4 <sysclk_enable_usb+0x32>

typedef uint8_t irqflags_t;

static inline irqflags_t cpu_irq_save(void)
{
	volatile irqflags_t flags = SREG;
    58ca:	8f b7       	in	r24, 0x3f	; 63
    58cc:	8a 83       	std	Y+2, r24	; 0x02
	cpu_irq_disable();
    58ce:	f8 94       	cli
	return flags;
    58d0:	9a 81       	ldd	r25, Y+2	; 0x02
# if !XMEGA_E
				|| (ref_id == OSC_ID_USBSOF)
#endif
				);

		OSC.DFLLCTRL &= ~(OSC_RC32MCREF_gm);
    58d2:	a0 e5       	ldi	r26, 0x50	; 80
    58d4:	b0 e0       	ldi	r27, 0x00	; 0
    58d6:	16 96       	adiw	r26, 0x06	; 6
    58d8:	8c 91       	ld	r24, X
    58da:	16 97       	sbiw	r26, 0x06	; 6
    58dc:	89 7f       	andi	r24, 0xF9	; 249
    58de:	16 96       	adiw	r26, 0x06	; 6
    58e0:	8c 93       	st	X, r24
    58e2:	16 97       	sbiw	r26, 0x06	; 6
		else if (ref_id == OSC_ID_USBSOF) {
			/*
			 * Calibrate 32MRC at 48MHz using USB SOF
			 * 48MHz / 1kHz = 0xBB80
			 */
			DFLLRC32M.COMP1 = 0x80;
    58e4:	e0 e6       	ldi	r30, 0x60	; 96
    58e6:	f0 e0       	ldi	r31, 0x00	; 0
    58e8:	80 e8       	ldi	r24, 0x80	; 128
    58ea:	85 83       	std	Z+5, r24	; 0x05
			DFLLRC32M.COMP2 = 0xBB;
    58ec:	8b eb       	ldi	r24, 0xBB	; 187
    58ee:	86 83       	std	Z+6, r24	; 0x06
			OSC.DFLLCTRL |= OSC_RC32MCREF_USBSOF_gc;
    58f0:	16 96       	adiw	r26, 0x06	; 6
    58f2:	8c 91       	ld	r24, X
    58f4:	16 97       	sbiw	r26, 0x06	; 6
    58f6:	84 60       	ori	r24, 0x04	; 4
    58f8:	16 96       	adiw	r26, 0x06	; 6
    58fa:	8c 93       	st	X, r24
			OSC.DFLLCTRL &= ~(OSC_RC32MCREF_bm);
# endif
		}
#endif

		DFLLRC32M.CTRL |= DFLL_ENABLE_bm;
    58fc:	80 81       	ld	r24, Z
    58fe:	81 60       	ori	r24, 0x01	; 1
    5900:	80 83       	st	Z, r24
}

static inline void cpu_irq_restore(irqflags_t flags)
{
	barrier();
	SREG = flags;
    5902:	9f bf       	out	0x3f, r25	; 63
			}
			osc_enable_autocalibration(OSC_ID_RC32MHZ,
					CONFIG_OSC_AUTOCAL_RC32MHZ_REF_OSC);
#endif
		}
		ccp_write_io((uint8_t *)&CLK.USBCTRL, (prescaler)
    5904:	63 60       	ori	r22, 0x03	; 3
    5906:	84 e4       	ldi	r24, 0x44	; 68
    5908:	90 e0       	ldi	r25, 0x00	; 0
    590a:	0e 94 40 30 	call	0x6080	; 0x6080 <ccp_write_io>
	default:
		Assert(false);
		break;
	}

	sysclk_enable_module(SYSCLK_PORT_GEN, SYSCLK_USB);
    590e:	60 e4       	ldi	r22, 0x40	; 64
    5910:	80 e0       	ldi	r24, 0x00	; 0
    5912:	0e 94 1e 2c 	call	0x583c	; 0x583c <sysclk_enable_module>
}
    5916:	0f 90       	pop	r0
    5918:	0f 90       	pop	r0
    591a:	df 91       	pop	r29
    591c:	cf 91       	pop	r28
    591e:	08 95       	ret

00005920 <sysclk_disable_usb>:
/**
 * \brief Disable clock for the USB module
 */
void sysclk_disable_usb(void)
{
	sysclk_disable_module(SYSCLK_PORT_GEN, SYSCLK_USB);
    5920:	60 e4       	ldi	r22, 0x40	; 64
    5922:	80 e0       	ldi	r24, 0x00	; 0
    5924:	0e 94 34 2c 	call	0x5868	; 0x5868 <sysclk_disable_module>
	ccp_write_io((uint8_t *)&CLK.USBCTRL, 0);
    5928:	60 e0       	ldi	r22, 0x00	; 0
    592a:	84 e4       	ldi	r24, 0x44	; 68
    592c:	90 e0       	ldi	r25, 0x00	; 0
    592e:	0e 94 40 30 	call	0x6080	; 0x6080 <ccp_write_io>
    5932:	08 95       	ret

00005934 <nvm_read_device_serial>:
 *       the program space reads will be corrupted.
 *
 * \retval storage Pointer to the structure where to store the device serial
 */
void nvm_read_device_serial(struct nvm_device_serial *storage)
{
    5934:	cf 93       	push	r28
    5936:	df 93       	push	r29
    5938:	ec 01       	movw	r28, r24
    593a:	68 e0       	ldi	r22, 0x08	; 8
    593c:	70 e0       	ldi	r23, 0x00	; 0
    593e:	82 e0       	ldi	r24, 0x02	; 2
    5940:	0e 94 36 30 	call	0x606c	; 0x606c <nvm_read_byte>
	storage->lotnum0 = nvm_read_production_signature_row(
    5944:	88 83       	st	Y, r24
    5946:	69 e0       	ldi	r22, 0x09	; 9
    5948:	70 e0       	ldi	r23, 0x00	; 0
    594a:	82 e0       	ldi	r24, 0x02	; 2
    594c:	0e 94 36 30 	call	0x606c	; 0x606c <nvm_read_byte>
			nvm_get_production_signature_row_offset(LOTNUM0));
	storage->lotnum1 = nvm_read_production_signature_row(
    5950:	89 83       	std	Y+1, r24	; 0x01
    5952:	6a e0       	ldi	r22, 0x0A	; 10
    5954:	70 e0       	ldi	r23, 0x00	; 0
    5956:	82 e0       	ldi	r24, 0x02	; 2
    5958:	0e 94 36 30 	call	0x606c	; 0x606c <nvm_read_byte>
			nvm_get_production_signature_row_offset(LOTNUM1));
	storage->lotnum2 = nvm_read_production_signature_row(
    595c:	8a 83       	std	Y+2, r24	; 0x02
    595e:	6b e0       	ldi	r22, 0x0B	; 11
    5960:	70 e0       	ldi	r23, 0x00	; 0
    5962:	82 e0       	ldi	r24, 0x02	; 2
    5964:	0e 94 36 30 	call	0x606c	; 0x606c <nvm_read_byte>
			nvm_get_production_signature_row_offset(LOTNUM2));
	storage->lotnum3 = nvm_read_production_signature_row(
    5968:	8b 83       	std	Y+3, r24	; 0x03
    596a:	6c e0       	ldi	r22, 0x0C	; 12
    596c:	70 e0       	ldi	r23, 0x00	; 0
    596e:	82 e0       	ldi	r24, 0x02	; 2
    5970:	0e 94 36 30 	call	0x606c	; 0x606c <nvm_read_byte>
			nvm_get_production_signature_row_offset(LOTNUM3));
	storage->lotnum4 = nvm_read_production_signature_row(
    5974:	8c 83       	std	Y+4, r24	; 0x04
    5976:	6d e0       	ldi	r22, 0x0D	; 13
    5978:	70 e0       	ldi	r23, 0x00	; 0
    597a:	82 e0       	ldi	r24, 0x02	; 2
    597c:	0e 94 36 30 	call	0x606c	; 0x606c <nvm_read_byte>
			nvm_get_production_signature_row_offset(LOTNUM4));
	storage->lotnum5 = nvm_read_production_signature_row(
    5980:	8d 83       	std	Y+5, r24	; 0x05
    5982:	60 e1       	ldi	r22, 0x10	; 16
    5984:	70 e0       	ldi	r23, 0x00	; 0
    5986:	82 e0       	ldi	r24, 0x02	; 2
    5988:	0e 94 36 30 	call	0x606c	; 0x606c <nvm_read_byte>
			nvm_get_production_signature_row_offset(LOTNUM5));

	storage->wafnum  = nvm_read_production_signature_row(
    598c:	8e 83       	std	Y+6, r24	; 0x06
    598e:	62 e1       	ldi	r22, 0x12	; 18
    5990:	70 e0       	ldi	r23, 0x00	; 0
    5992:	82 e0       	ldi	r24, 0x02	; 2
    5994:	0e 94 36 30 	call	0x606c	; 0x606c <nvm_read_byte>
			nvm_get_production_signature_row_offset(WAFNUM));

	storage->coordx0 = nvm_read_production_signature_row(
    5998:	8f 83       	std	Y+7, r24	; 0x07
    599a:	63 e1       	ldi	r22, 0x13	; 19
    599c:	70 e0       	ldi	r23, 0x00	; 0
    599e:	82 e0       	ldi	r24, 0x02	; 2
    59a0:	0e 94 36 30 	call	0x606c	; 0x606c <nvm_read_byte>
			nvm_get_production_signature_row_offset(COORDX0));
	storage->coordx1 = nvm_read_production_signature_row(
    59a4:	88 87       	std	Y+8, r24	; 0x08
    59a6:	64 e1       	ldi	r22, 0x14	; 20
    59a8:	70 e0       	ldi	r23, 0x00	; 0
    59aa:	82 e0       	ldi	r24, 0x02	; 2
    59ac:	0e 94 36 30 	call	0x606c	; 0x606c <nvm_read_byte>
			nvm_get_production_signature_row_offset(COORDX1));
	storage->coordy0 = nvm_read_production_signature_row(
    59b0:	89 87       	std	Y+9, r24	; 0x09
    59b2:	65 e1       	ldi	r22, 0x15	; 21
    59b4:	70 e0       	ldi	r23, 0x00	; 0
    59b6:	82 e0       	ldi	r24, 0x02	; 2
    59b8:	0e 94 36 30 	call	0x606c	; 0x606c <nvm_read_byte>
			nvm_get_production_signature_row_offset(COORDY0));
	storage->coordy1 = nvm_read_production_signature_row(
    59bc:	8a 87       	std	Y+10, r24	; 0x0a
			nvm_get_production_signature_row_offset(COORDY1));
}
    59be:	df 91       	pop	r29
    59c0:	cf 91       	pop	r28
    59c2:	08 95       	ret

000059c4 <nvm_eeprom_read_byte>:
 * \param  addr       EEPROM address, between 0 and EEPROM_SIZE
 *
 *  \return  Byte value read from EEPROM.
 */
uint8_t nvm_eeprom_read_byte(eeprom_addr_t addr)
{
    59c4:	dc 01       	movw	r26, r24
 */
static inline void nvm_wait_until_ready( void )
{
	do {
		// Block execution while waiting for the NVM to be ready
	} while ((NVM.STATUS & NVM_NVMBUSY_bm) == NVM_NVMBUSY_bm);
    59c6:	e0 ec       	ldi	r30, 0xC0	; 192
    59c8:	f1 e0       	ldi	r31, 0x01	; 1
    59ca:	97 85       	ldd	r25, Z+15	; 0x0f
    59cc:	99 23       	and	r25, r25
    59ce:	ec f3       	brlt	.-6      	; 0x59ca <nvm_eeprom_read_byte+0x6>
 *        write operations still needs to be done through IO register.
 */
static inline void eeprom_enable_mapping(void)
{
#if !XMEGA_E
	NVM_CTRLB = NVM_CTRLB | NVM_EEMAPEN_bm;
    59d0:	ec ec       	ldi	r30, 0xCC	; 204
    59d2:	f1 e0       	ldi	r31, 0x01	; 1
    59d4:	80 81       	ld	r24, Z
    59d6:	88 60       	ori	r24, 0x08	; 8
    59d8:	80 83       	st	Z, r24
	Assert(addr <= EEPROM_SIZE);

	/* Wait until NVM is ready */
	nvm_wait_until_ready();
	eeprom_enable_mapping();
	data = *(uint8_t*)(addr + MAPPED_EEPROM_START),
    59da:	b0 5f       	subi	r27, 0xF0	; 240
    59dc:	8c 91       	ld	r24, X
 *  IO mapped access is now enabled.
 */
static inline void eeprom_disable_mapping(void)
{
#if !XMEGA_E
	NVM_CTRLB = NVM_CTRLB & ~NVM_EEMAPEN_bm;
    59de:	90 81       	ld	r25, Z
    59e0:	97 7f       	andi	r25, 0xF7	; 247
    59e2:	90 83       	st	Z, r25
	eeprom_disable_mapping();
	return data;
}
    59e4:	08 95       	ret

000059e6 <nvm_eeprom_read_buffer>:
 * \param address   the address to where to read
 * \param buf       pointer to the data
 * \param len       the number of bytes to read
 */
void nvm_eeprom_read_buffer(eeprom_addr_t address, void *buf, uint16_t len)
{
    59e6:	cf 93       	push	r28
    59e8:	df 93       	push	r29
    59ea:	9c 01       	movw	r18, r24
    59ec:	db 01       	movw	r26, r22
 */
static inline void nvm_wait_until_ready( void )
{
	do {
		// Block execution while waiting for the NVM to be ready
	} while ((NVM.STATUS & NVM_NVMBUSY_bm) == NVM_NVMBUSY_bm);
    59ee:	e0 ec       	ldi	r30, 0xC0	; 192
    59f0:	f1 e0       	ldi	r31, 0x01	; 1
    59f2:	97 85       	ldd	r25, Z+15	; 0x0f
    59f4:	99 23       	and	r25, r25
    59f6:	ec f3       	brlt	.-6      	; 0x59f2 <nvm_eeprom_read_buffer+0xc>
 *        write operations still needs to be done through IO register.
 */
static inline void eeprom_enable_mapping(void)
{
#if !XMEGA_E
	NVM_CTRLB = NVM_CTRLB | NVM_EEMAPEN_bm;
    59f8:	cc ec       	ldi	r28, 0xCC	; 204
    59fa:	d1 e0       	ldi	r29, 0x01	; 1
    59fc:	98 81       	ld	r25, Y
    59fe:	98 60       	ori	r25, 0x08	; 8
    5a00:	98 83       	st	Y, r25
	nvm_wait_until_ready();
	eeprom_enable_mapping();
	memcpy( buf,(void*)(address+MAPPED_EEPROM_START), len );
    5a02:	b9 01       	movw	r22, r18
    5a04:	70 5f       	subi	r23, 0xF0	; 240
    5a06:	cd 01       	movw	r24, r26
    5a08:	0e 94 11 31 	call	0x6222	; 0x6222 <memcpy>
 *  IO mapped access is now enabled.
 */
static inline void eeprom_disable_mapping(void)
{
#if !XMEGA_E
	NVM_CTRLB = NVM_CTRLB & ~NVM_EEMAPEN_bm;
    5a0c:	88 81       	ld	r24, Y
    5a0e:	87 7f       	andi	r24, 0xF7	; 247
    5a10:	88 83       	st	Y, r24
	eeprom_disable_mapping();
}
    5a12:	df 91       	pop	r29
    5a14:	cf 91       	pop	r28
    5a16:	08 95       	ret

00005a18 <nvm_eeprom_flush_buffer>:
 */
static inline void nvm_wait_until_ready( void )
{
	do {
		// Block execution while waiting for the NVM to be ready
	} while ((NVM.STATUS & NVM_NVMBUSY_bm) == NVM_NVMBUSY_bm);
    5a18:	e0 ec       	ldi	r30, 0xC0	; 192
    5a1a:	f1 e0       	ldi	r31, 0x01	; 1
    5a1c:	87 85       	ldd	r24, Z+15	; 0x0f
    5a1e:	88 23       	and	r24, r24
    5a20:	ec f3       	brlt	.-6      	; 0x5a1c <nvm_eeprom_flush_buffer+0x4>
{
	// Wait until NVM is ready
	nvm_wait_until_ready();

	// Flush EEPROM page buffer if necessary
	if ((NVM.STATUS & NVM_EELOAD_bm) != 0) {
    5a22:	80 91 cf 01 	lds	r24, 0x01CF	; 0x8001cf <__TEXT_REGION_LENGTH__+0x7001cf>
    5a26:	81 ff       	sbrs	r24, 1
    5a28:	08 c0       	rjmp	.+16     	; 0x5a3a <nvm_eeprom_flush_buffer+0x22>
		NVM.CMD = NVM_CMD_ERASE_EEPROM_BUFFER_gc;
    5a2a:	86 e3       	ldi	r24, 0x36	; 54
    5a2c:	80 93 ca 01 	sts	0x01CA, r24	; 0x8001ca <__TEXT_REGION_LENGTH__+0x7001ca>
 * \note The correct NVM command must be set in the NVM.CMD register before
 *       calling this function.
 */
static inline void nvm_exec(void)
{
	ccp_write_io((uint8_t *)&NVM.CTRLA, NVM_CMDEX_bm);
    5a30:	61 e0       	ldi	r22, 0x01	; 1
    5a32:	8b ec       	ldi	r24, 0xCB	; 203
    5a34:	91 e0       	ldi	r25, 0x01	; 1
    5a36:	0e 94 40 30 	call	0x6080	; 0x6080 <ccp_write_io>
    5a3a:	08 95       	ret

00005a3c <nvm_eeprom_load_byte_to_buffer>:
 */
static inline void nvm_wait_until_ready( void )
{
	do {
		// Block execution while waiting for the NVM to be ready
	} while ((NVM.STATUS & NVM_NVMBUSY_bm) == NVM_NVMBUSY_bm);
    5a3c:	e0 ec       	ldi	r30, 0xC0	; 192
    5a3e:	f1 e0       	ldi	r31, 0x01	; 1
    5a40:	97 85       	ldd	r25, Z+15	; 0x0f
    5a42:	99 23       	and	r25, r25
    5a44:	ec f3       	brlt	.-6      	; 0x5a40 <nvm_eeprom_load_byte_to_buffer+0x4>
 *        write operations still needs to be done through IO register.
 */
static inline void eeprom_enable_mapping(void)
{
#if !XMEGA_E
	NVM_CTRLB = NVM_CTRLB | NVM_EEMAPEN_bm;
    5a46:	ac ec       	ldi	r26, 0xCC	; 204
    5a48:	b1 e0       	ldi	r27, 0x01	; 1
    5a4a:	9c 91       	ld	r25, X
    5a4c:	98 60       	ori	r25, 0x08	; 8
    5a4e:	9c 93       	st	X, r25
{
	// Wait until NVM is ready
	nvm_wait_until_ready();

	eeprom_enable_mapping();
	*(uint8_t*)(byte_addr + MAPPED_EEPROM_START) = value;
    5a50:	e8 2f       	mov	r30, r24
    5a52:	f0 e0       	ldi	r31, 0x00	; 0
    5a54:	f0 5f       	subi	r31, 0xF0	; 240
    5a56:	60 83       	st	Z, r22
 *  IO mapped access is now enabled.
 */
static inline void eeprom_disable_mapping(void)
{
#if !XMEGA_E
	NVM_CTRLB = NVM_CTRLB & ~NVM_EEMAPEN_bm;
    5a58:	8c 91       	ld	r24, X
    5a5a:	87 7f       	andi	r24, 0xF7	; 247
    5a5c:	8c 93       	st	X, r24
    5a5e:	08 95       	ret

00005a60 <nvm_eeprom_write_byte>:
 *
 * \param  address    EEPROM address (max EEPROM_SIZE)
 * \param  value      Byte value to write to EEPROM.
 */
void nvm_eeprom_write_byte(eeprom_addr_t address, uint8_t value)
{
    5a60:	ff 92       	push	r15
    5a62:	0f 93       	push	r16
    5a64:	1f 93       	push	r17
    5a66:	cf 93       	push	r28
    5a68:	df 93       	push	r29
    5a6a:	18 2f       	mov	r17, r24
    5a6c:	f9 2e       	mov	r15, r25
    5a6e:	c6 2f       	mov	r28, r22

	Assert(address <= EEPROM_SIZE);
	/*  Flush buffer to make sure no unintentional data is written and load
	 *  the "Page Load" command into the command register.
	 */
	old_cmd = NVM.CMD;
    5a70:	00 91 ca 01 	lds	r16, 0x01CA	; 0x8001ca <__TEXT_REGION_LENGTH__+0x7001ca>
	nvm_eeprom_flush_buffer();
    5a74:	0e 94 0c 2d 	call	0x5a18	; 0x5a18 <nvm_eeprom_flush_buffer>
 */
static inline void nvm_wait_until_ready( void )
{
	do {
		// Block execution while waiting for the NVM to be ready
	} while ((NVM.STATUS & NVM_NVMBUSY_bm) == NVM_NVMBUSY_bm);
    5a78:	e0 ec       	ldi	r30, 0xC0	; 192
    5a7a:	f1 e0       	ldi	r31, 0x01	; 1
    5a7c:	87 85       	ldd	r24, Z+15	; 0x0f
    5a7e:	88 23       	and	r24, r24
    5a80:	ec f3       	brlt	.-6      	; 0x5a7c <nvm_eeprom_write_byte+0x1c>
	// Wait until NVM is ready
	nvm_wait_until_ready();
	nvm_eeprom_load_byte_to_buffer(address, value);
    5a82:	6c 2f       	mov	r22, r28
    5a84:	81 2f       	mov	r24, r17
    5a86:	0e 94 1e 2d 	call	0x5a3c	; 0x5a3c <nvm_eeprom_load_byte_to_buffer>

	// Set address to write to
	NVM.ADDR2 = 0x00;
    5a8a:	c0 ec       	ldi	r28, 0xC0	; 192
    5a8c:	d1 e0       	ldi	r29, 0x01	; 1
    5a8e:	1a 82       	std	Y+2, r1	; 0x02
	NVM.ADDR1 = (address >> 8) & 0xFF;
    5a90:	f9 82       	std	Y+1, r15	; 0x01
	NVM.ADDR0 = address & 0xFF;
    5a92:	18 83       	st	Y, r17

	/*  Issue EEPROM Atomic Write (Erase&Write) command. Load command, write
	 *  the protection signature and execute command.
	 */
	NVM.CMD = NVM_CMD_ERASE_WRITE_EEPROM_PAGE_gc;
    5a94:	85 e3       	ldi	r24, 0x35	; 53
    5a96:	8a 87       	std	Y+10, r24	; 0x0a
 * \note The correct NVM command must be set in the NVM.CMD register before
 *       calling this function.
 */
static inline void nvm_exec(void)
{
	ccp_write_io((uint8_t *)&NVM.CTRLA, NVM_CMDEX_bm);
    5a98:	61 e0       	ldi	r22, 0x01	; 1
    5a9a:	8b ec       	ldi	r24, 0xCB	; 203
    5a9c:	91 e0       	ldi	r25, 0x01	; 1
    5a9e:	0e 94 40 30 	call	0x6080	; 0x6080 <ccp_write_io>
	nvm_exec();
	NVM.CMD = old_cmd;
    5aa2:	0a 87       	std	Y+10, r16	; 0x0a
}
    5aa4:	df 91       	pop	r29
    5aa6:	cf 91       	pop	r28
    5aa8:	1f 91       	pop	r17
    5aaa:	0f 91       	pop	r16
    5aac:	ff 90       	pop	r15
    5aae:	08 95       	ret

00005ab0 <nvm_eeprom_load_page_to_buffer>:
 *       EEPROM write page operation.
 *
 * \param  values   Pointer to SRAM buffer containing an entire page.
 */
void nvm_eeprom_load_page_to_buffer(const uint8_t *values)
{
    5ab0:	0f 93       	push	r16
    5ab2:	1f 93       	push	r17
    5ab4:	cf 93       	push	r28
    5ab6:	8c 01       	movw	r16, r24
 */
static inline void nvm_wait_until_ready( void )
{
	do {
		// Block execution while waiting for the NVM to be ready
	} while ((NVM.STATUS & NVM_NVMBUSY_bm) == NVM_NVMBUSY_bm);
    5ab8:	e0 ec       	ldi	r30, 0xC0	; 192
    5aba:	f1 e0       	ldi	r31, 0x01	; 1
    5abc:	87 85       	ldd	r24, Z+15	; 0x0f
    5abe:	88 23       	and	r24, r24
    5ac0:	ec f3       	brlt	.-6      	; 0x5abc <nvm_eeprom_load_page_to_buffer+0xc>
    5ac2:	c0 e0       	ldi	r28, 0x00	; 0
	nvm_wait_until_ready();

	// Load multiple bytes into page buffer
	uint8_t i;
	for (i = 0; i < EEPROM_PAGE_SIZE; ++i) {
		nvm_eeprom_load_byte_to_buffer(i, *values);
    5ac4:	f8 01       	movw	r30, r16
    5ac6:	61 91       	ld	r22, Z+
    5ac8:	8f 01       	movw	r16, r30
    5aca:	8c 2f       	mov	r24, r28
    5acc:	0e 94 1e 2d 	call	0x5a3c	; 0x5a3c <nvm_eeprom_load_byte_to_buffer>
	// Wait until NVM is ready
	nvm_wait_until_ready();

	// Load multiple bytes into page buffer
	uint8_t i;
	for (i = 0; i < EEPROM_PAGE_SIZE; ++i) {
    5ad0:	cf 5f       	subi	r28, 0xFF	; 255
    5ad2:	c0 32       	cpi	r28, 0x20	; 32
    5ad4:	b9 f7       	brne	.-18     	; 0x5ac4 <nvm_eeprom_load_page_to_buffer+0x14>
		nvm_eeprom_load_byte_to_buffer(i, *values);
		++values;
	}
}
    5ad6:	cf 91       	pop	r28
    5ad8:	1f 91       	pop	r17
    5ada:	0f 91       	pop	r16
    5adc:	08 95       	ret

00005ade <nvm_eeprom_atomic_write_page>:
 * locations that have not been loaded will be left untouched in EEPROM.
 *
 * \param  page_addr  EEPROM Page address, between 0 and EEPROM_SIZE/EEPROM_PAGE_SIZE
 */
void nvm_eeprom_atomic_write_page(uint8_t page_addr)
{
    5ade:	1f 93       	push	r17
    5ae0:	cf 93       	push	r28
    5ae2:	df 93       	push	r29
    5ae4:	e0 ec       	ldi	r30, 0xC0	; 192
    5ae6:	f1 e0       	ldi	r31, 0x01	; 1
    5ae8:	97 85       	ldd	r25, Z+15	; 0x0f
    5aea:	99 23       	and	r25, r25
    5aec:	ec f3       	brlt	.-6      	; 0x5ae8 <nvm_eeprom_atomic_write_page+0xa>
	// Wait until NVM is ready
	nvm_wait_until_ready();

	// Calculate page address
	uint16_t address = (uint16_t)(page_addr * EEPROM_PAGE_SIZE);
    5aee:	20 e2       	ldi	r18, 0x20	; 32
    5af0:	82 9f       	mul	r24, r18
    5af2:	c0 01       	movw	r24, r0
    5af4:	11 24       	eor	r1, r1

	Assert(address <= EEPROM_SIZE);

	// Set address
	NVM.ADDR2 = 0x00;
    5af6:	c0 ec       	ldi	r28, 0xC0	; 192
    5af8:	d1 e0       	ldi	r29, 0x01	; 1
    5afa:	1a 82       	std	Y+2, r1	; 0x02
	NVM.ADDR1 = (address >> 8) & 0xFF;
    5afc:	99 83       	std	Y+1, r25	; 0x01
	NVM.ADDR0 = address & 0xFF;
    5afe:	88 83       	st	Y, r24
 */
static inline void nvm_issue_command(NVM_CMD_t nvm_command)
{
	uint8_t old_cmd;

	old_cmd = NVM.CMD;
    5b00:	1a 85       	ldd	r17, Y+10	; 0x0a
	NVM.CMD = nvm_command;
    5b02:	85 e3       	ldi	r24, 0x35	; 53
    5b04:	8a 87       	std	Y+10, r24	; 0x0a
	ccp_write_io((uint8_t *)&NVM.CTRLA, NVM_CMDEX_bm);
    5b06:	61 e0       	ldi	r22, 0x01	; 1
    5b08:	8b ec       	ldi	r24, 0xCB	; 203
    5b0a:	91 e0       	ldi	r25, 0x01	; 1
    5b0c:	0e 94 40 30 	call	0x6080	; 0x6080 <ccp_write_io>
	NVM.CMD = old_cmd;
    5b10:	1a 87       	std	Y+10, r17	; 0x0a

	// Issue EEPROM Atomic Write (Erase&Write) command
	nvm_issue_command(NVM_CMD_ERASE_WRITE_EEPROM_PAGE_gc);
}
    5b12:	df 91       	pop	r29
    5b14:	cf 91       	pop	r28
    5b16:	1f 91       	pop	r17
    5b18:	08 95       	ret

00005b1a <nvm_eeprom_erase_and_write_buffer>:
 * \param address   the address to where to write
 * \param buf       pointer to the data
 * \param len       the number of bytes to write
 */
void nvm_eeprom_erase_and_write_buffer(eeprom_addr_t address, const void *buf, uint16_t len)
{
    5b1a:	cf 92       	push	r12
    5b1c:	df 92       	push	r13
    5b1e:	ef 92       	push	r14
    5b20:	ff 92       	push	r15
    5b22:	0f 93       	push	r16
    5b24:	1f 93       	push	r17
    5b26:	cf 93       	push	r28
    5b28:	df 93       	push	r29
    5b2a:	ec 01       	movw	r28, r24
    5b2c:	7b 01       	movw	r14, r22
    5b2e:	8a 01       	movw	r16, r20
	while (len) {
    5b30:	45 2b       	or	r20, r21
    5b32:	69 f1       	breq	.+90     	; 0x5b8e <nvm_eeprom_erase_and_write_buffer+0x74>
		if (((address%EEPROM_PAGE_SIZE)==0) && (len>=EEPROM_PAGE_SIZE)) {
    5b34:	ce 01       	movw	r24, r28
    5b36:	8f 71       	andi	r24, 0x1F	; 31
    5b38:	99 27       	eor	r25, r25
    5b3a:	89 2b       	or	r24, r25
    5b3c:	c1 f4       	brne	.+48     	; 0x5b6e <nvm_eeprom_erase_and_write_buffer+0x54>
    5b3e:	00 32       	cpi	r16, 0x20	; 32
    5b40:	11 05       	cpc	r17, r1
    5b42:	a8 f0       	brcs	.+42     	; 0x5b6e <nvm_eeprom_erase_and_write_buffer+0x54>
			// A full page can be written
			nvm_eeprom_load_page_to_buffer((uint8_t*)buf);
    5b44:	c7 01       	movw	r24, r14
    5b46:	0e 94 58 2d 	call	0x5ab0	; 0x5ab0 <nvm_eeprom_load_page_to_buffer>
			nvm_eeprom_atomic_write_page(address/EEPROM_PAGE_SIZE);
    5b4a:	ce 01       	movw	r24, r28
    5b4c:	96 95       	lsr	r25
    5b4e:	87 95       	ror	r24
    5b50:	92 95       	swap	r25
    5b52:	82 95       	swap	r24
    5b54:	8f 70       	andi	r24, 0x0F	; 15
    5b56:	89 27       	eor	r24, r25
    5b58:	9f 70       	andi	r25, 0x0F	; 15
    5b5a:	89 27       	eor	r24, r25
    5b5c:	0e 94 6f 2d 	call	0x5ade	; 0x5ade <nvm_eeprom_atomic_write_page>
			address += EEPROM_PAGE_SIZE;
    5b60:	a0 96       	adiw	r28, 0x20	; 32
			buf = (uint8_t*)buf + EEPROM_PAGE_SIZE;
    5b62:	80 e2       	ldi	r24, 0x20	; 32
    5b64:	e8 0e       	add	r14, r24
    5b66:	f1 1c       	adc	r15, r1
			len -= EEPROM_PAGE_SIZE;
    5b68:	00 52       	subi	r16, 0x20	; 32
    5b6a:	11 09       	sbc	r17, r1
    5b6c:	0d c0       	rjmp	.+26     	; 0x5b88 <nvm_eeprom_erase_and_write_buffer+0x6e>
		} else {
			nvm_eeprom_write_byte(address++, *(uint8_t*)buf);
    5b6e:	6e 01       	movw	r12, r28
    5b70:	ef ef       	ldi	r30, 0xFF	; 255
    5b72:	ce 1a       	sub	r12, r30
    5b74:	de 0a       	sbc	r13, r30
    5b76:	f7 01       	movw	r30, r14
    5b78:	61 91       	ld	r22, Z+
    5b7a:	7f 01       	movw	r14, r30
    5b7c:	ce 01       	movw	r24, r28
    5b7e:	0e 94 30 2d 	call	0x5a60	; 0x5a60 <nvm_eeprom_write_byte>
			buf = (uint8_t*)buf + 1;
			len--;
    5b82:	01 50       	subi	r16, 0x01	; 1
    5b84:	11 09       	sbc	r17, r1
			nvm_eeprom_atomic_write_page(address/EEPROM_PAGE_SIZE);
			address += EEPROM_PAGE_SIZE;
			buf = (uint8_t*)buf + EEPROM_PAGE_SIZE;
			len -= EEPROM_PAGE_SIZE;
		} else {
			nvm_eeprom_write_byte(address++, *(uint8_t*)buf);
    5b86:	e6 01       	movw	r28, r12
 * \param buf       pointer to the data
 * \param len       the number of bytes to write
 */
void nvm_eeprom_erase_and_write_buffer(eeprom_addr_t address, const void *buf, uint16_t len)
{
	while (len) {
    5b88:	01 15       	cp	r16, r1
    5b8a:	11 05       	cpc	r17, r1
    5b8c:	99 f6       	brne	.-90     	; 0x5b34 <nvm_eeprom_erase_and_write_buffer+0x1a>
			nvm_eeprom_write_byte(address++, *(uint8_t*)buf);
			buf = (uint8_t*)buf + 1;
			len--;
		}
	}
}
    5b8e:	df 91       	pop	r29
    5b90:	cf 91       	pop	r28
    5b92:	1f 91       	pop	r17
    5b94:	0f 91       	pop	r16
    5b96:	ff 90       	pop	r15
    5b98:	ef 90       	pop	r14
    5b9a:	df 90       	pop	r13
    5b9c:	cf 90       	pop	r12
    5b9e:	08 95       	ret

00005ba0 <nvm_eeprom_split_write_page>:
 * before writing.
 *
 * \param  page_addr  EEPROM Page address, between 0 and EEPROM_SIZE/EEPROM_PAGE_SIZE
 */
void nvm_eeprom_split_write_page(uint8_t page_addr)
{
    5ba0:	1f 93       	push	r17
    5ba2:	cf 93       	push	r28
    5ba4:	df 93       	push	r29
 */
static inline void nvm_wait_until_ready( void )
{
	do {
		// Block execution while waiting for the NVM to be ready
	} while ((NVM.STATUS & NVM_NVMBUSY_bm) == NVM_NVMBUSY_bm);
    5ba6:	e0 ec       	ldi	r30, 0xC0	; 192
    5ba8:	f1 e0       	ldi	r31, 0x01	; 1
    5baa:	97 85       	ldd	r25, Z+15	; 0x0f
    5bac:	99 23       	and	r25, r25
    5bae:	ec f3       	brlt	.-6      	; 0x5baa <nvm_eeprom_split_write_page+0xa>
	// Wait until NVM is ready
	nvm_wait_until_ready();

	// Calculate page address
	uint16_t address = (uint16_t)(page_addr * EEPROM_PAGE_SIZE);
    5bb0:	20 e2       	ldi	r18, 0x20	; 32
    5bb2:	82 9f       	mul	r24, r18
    5bb4:	c0 01       	movw	r24, r0
    5bb6:	11 24       	eor	r1, r1

	Assert(address <= EEPROM_SIZE);

	// Set address
	NVM.ADDR2 = 0x00;
    5bb8:	c0 ec       	ldi	r28, 0xC0	; 192
    5bba:	d1 e0       	ldi	r29, 0x01	; 1
    5bbc:	1a 82       	std	Y+2, r1	; 0x02
	NVM.ADDR1 = (address >> 8) & 0xFF;
    5bbe:	99 83       	std	Y+1, r25	; 0x01
	NVM.ADDR0 = address & 0xFF;
    5bc0:	88 83       	st	Y, r24
 */
static inline void nvm_issue_command(NVM_CMD_t nvm_command)
{
	uint8_t old_cmd;

	old_cmd = NVM.CMD;
    5bc2:	1a 85       	ldd	r17, Y+10	; 0x0a
	NVM.CMD = nvm_command;
    5bc4:	84 e3       	ldi	r24, 0x34	; 52
    5bc6:	8a 87       	std	Y+10, r24	; 0x0a
	ccp_write_io((uint8_t *)&NVM.CTRLA, NVM_CMDEX_bm);
    5bc8:	61 e0       	ldi	r22, 0x01	; 1
    5bca:	8b ec       	ldi	r24, 0xCB	; 203
    5bcc:	91 e0       	ldi	r25, 0x01	; 1
    5bce:	0e 94 40 30 	call	0x6080	; 0x6080 <ccp_write_io>
	NVM.CMD = old_cmd;
    5bd2:	1a 87       	std	Y+10, r17	; 0x0a

	// Issue EEPROM Split Write command
	nvm_issue_command(NVM_CMD_WRITE_EEPROM_PAGE_gc);
}
    5bd4:	df 91       	pop	r29
    5bd6:	cf 91       	pop	r28
    5bd8:	1f 91       	pop	r17
    5bda:	08 95       	ret

00005bdc <nvm_eeprom_fill_buffer_with_value>:
 *       EEPROM write page operation.
 *
 * \param  value Value to copy to the page buffer.
 */
void nvm_eeprom_fill_buffer_with_value(uint8_t value)
{
    5bdc:	cf 93       	push	r28
    5bde:	df 93       	push	r29
    5be0:	d8 2f       	mov	r29, r24
	nvm_eeprom_flush_buffer();
    5be2:	0e 94 0c 2d 	call	0x5a18	; 0x5a18 <nvm_eeprom_flush_buffer>
 */
static inline void nvm_wait_until_ready( void )
{
	do {
		// Block execution while waiting for the NVM to be ready
	} while ((NVM.STATUS & NVM_NVMBUSY_bm) == NVM_NVMBUSY_bm);
    5be6:	e0 ec       	ldi	r30, 0xC0	; 192
    5be8:	f1 e0       	ldi	r31, 0x01	; 1
    5bea:	87 85       	ldd	r24, Z+15	; 0x0f
    5bec:	88 23       	and	r24, r24
    5bee:	ec f3       	brlt	.-6      	; 0x5bea <nvm_eeprom_fill_buffer_with_value+0xe>
    5bf0:	c0 e0       	ldi	r28, 0x00	; 0
	// Wait until NVM is ready
	nvm_wait_until_ready();
	// Load multiple bytes into page buffer
	uint8_t i;
	for (i = 0; i < EEPROM_PAGE_SIZE; ++i) {
		nvm_eeprom_load_byte_to_buffer(i, value);
    5bf2:	6d 2f       	mov	r22, r29
    5bf4:	8c 2f       	mov	r24, r28
    5bf6:	0e 94 1e 2d 	call	0x5a3c	; 0x5a3c <nvm_eeprom_load_byte_to_buffer>
	nvm_eeprom_flush_buffer();
	// Wait until NVM is ready
	nvm_wait_until_ready();
	// Load multiple bytes into page buffer
	uint8_t i;
	for (i = 0; i < EEPROM_PAGE_SIZE; ++i) {
    5bfa:	cf 5f       	subi	r28, 0xFF	; 255
    5bfc:	c0 32       	cpi	r28, 0x20	; 32
    5bfe:	c9 f7       	brne	.-14     	; 0x5bf2 <nvm_eeprom_fill_buffer_with_value+0x16>
		nvm_eeprom_load_byte_to_buffer(i, value);
	}
}
    5c00:	df 91       	pop	r29
    5c02:	cf 91       	pop	r28
    5c04:	08 95       	ret

00005c06 <nvm_eeprom_erase_bytes_in_page>:
 * written to in the page buffer reads 0xFF.
 *
 * \param page_addr EEPROM Page address, between 0 and EEPROM_SIZE/EEPROM_PAGE_SIZE
 */
void nvm_eeprom_erase_bytes_in_page(uint8_t page_addr)
{
    5c06:	1f 93       	push	r17
    5c08:	cf 93       	push	r28
    5c0a:	df 93       	push	r29
    5c0c:	e0 ec       	ldi	r30, 0xC0	; 192
    5c0e:	f1 e0       	ldi	r31, 0x01	; 1
    5c10:	97 85       	ldd	r25, Z+15	; 0x0f
    5c12:	99 23       	and	r25, r25
    5c14:	ec f3       	brlt	.-6      	; 0x5c10 <nvm_eeprom_erase_bytes_in_page+0xa>
	// Wait until NVM is ready
	nvm_wait_until_ready();

	// Calculate page address
	uint16_t address = (uint16_t)(page_addr * EEPROM_PAGE_SIZE);
    5c16:	20 e2       	ldi	r18, 0x20	; 32
    5c18:	82 9f       	mul	r24, r18
    5c1a:	c0 01       	movw	r24, r0
    5c1c:	11 24       	eor	r1, r1

	Assert(address <= EEPROM_SIZE);

	// Set address
	NVM.ADDR2 = 0x00;
    5c1e:	c0 ec       	ldi	r28, 0xC0	; 192
    5c20:	d1 e0       	ldi	r29, 0x01	; 1
    5c22:	1a 82       	std	Y+2, r1	; 0x02
	NVM.ADDR1 = (address >> 8) & 0xFF;
    5c24:	99 83       	std	Y+1, r25	; 0x01
	NVM.ADDR0 = address & 0xFF;
    5c26:	88 83       	st	Y, r24
 */
static inline void nvm_issue_command(NVM_CMD_t nvm_command)
{
	uint8_t old_cmd;

	old_cmd = NVM.CMD;
    5c28:	1a 85       	ldd	r17, Y+10	; 0x0a
	NVM.CMD = nvm_command;
    5c2a:	82 e3       	ldi	r24, 0x32	; 50
    5c2c:	8a 87       	std	Y+10, r24	; 0x0a
	ccp_write_io((uint8_t *)&NVM.CTRLA, NVM_CMDEX_bm);
    5c2e:	61 e0       	ldi	r22, 0x01	; 1
    5c30:	8b ec       	ldi	r24, 0xCB	; 203
    5c32:	91 e0       	ldi	r25, 0x01	; 1
    5c34:	0e 94 40 30 	call	0x6080	; 0x6080 <ccp_write_io>
	NVM.CMD = old_cmd;
    5c38:	1a 87       	std	Y+10, r17	; 0x0a

	// Issue EEPROM Erase command
	nvm_issue_command(NVM_CMD_ERASE_EEPROM_PAGE_gc);
}
    5c3a:	df 91       	pop	r29
    5c3c:	cf 91       	pop	r28
    5c3e:	1f 91       	pop	r17
    5c40:	08 95       	ret

00005c42 <nvm_eeprom_erase_page>:
 * This function erases one EEPROM page, so that every location reads 0xFF.
 *
 * \param page_addr EEPROM Page address, between 0 and EEPROM_SIZE/EEPROM_PAGE_SIZE
 */
void nvm_eeprom_erase_page(uint8_t page_addr)
{
    5c42:	cf 93       	push	r28
    5c44:	c8 2f       	mov	r28, r24
	// Mark all addresses to be deleted
	nvm_eeprom_fill_buffer_with_value(0xff);
    5c46:	8f ef       	ldi	r24, 0xFF	; 255
    5c48:	0e 94 ee 2d 	call	0x5bdc	; 0x5bdc <nvm_eeprom_fill_buffer_with_value>
	// Erase bytes
	nvm_eeprom_erase_bytes_in_page(page_addr);
    5c4c:	8c 2f       	mov	r24, r28
    5c4e:	0e 94 03 2e 	call	0x5c06	; 0x5c06 <nvm_eeprom_erase_bytes_in_page>
}
    5c52:	cf 91       	pop	r28
    5c54:	08 95       	ret

00005c56 <nvm_eeprom_erase_bytes_in_all_pages>:
 *
 * This function erases bytes from all EEPROM pages, so that every location
 * written to in the page buffer reads 0xFF.
 */
void nvm_eeprom_erase_bytes_in_all_pages(void)
{
    5c56:	1f 93       	push	r17
    5c58:	cf 93       	push	r28
    5c5a:	df 93       	push	r29
 */
static inline void nvm_wait_until_ready( void )
{
	do {
		// Block execution while waiting for the NVM to be ready
	} while ((NVM.STATUS & NVM_NVMBUSY_bm) == NVM_NVMBUSY_bm);
    5c5c:	e0 ec       	ldi	r30, 0xC0	; 192
    5c5e:	f1 e0       	ldi	r31, 0x01	; 1
    5c60:	87 85       	ldd	r24, Z+15	; 0x0f
    5c62:	88 23       	and	r24, r24
    5c64:	ec f3       	brlt	.-6      	; 0x5c60 <nvm_eeprom_erase_bytes_in_all_pages+0xa>
 */
static inline void nvm_issue_command(NVM_CMD_t nvm_command)
{
	uint8_t old_cmd;

	old_cmd = NVM.CMD;
    5c66:	c0 ec       	ldi	r28, 0xC0	; 192
    5c68:	d1 e0       	ldi	r29, 0x01	; 1
    5c6a:	1a 85       	ldd	r17, Y+10	; 0x0a
	NVM.CMD = nvm_command;
    5c6c:	80 e3       	ldi	r24, 0x30	; 48
    5c6e:	8a 87       	std	Y+10, r24	; 0x0a
	ccp_write_io((uint8_t *)&NVM.CTRLA, NVM_CMDEX_bm);
    5c70:	61 e0       	ldi	r22, 0x01	; 1
    5c72:	8b ec       	ldi	r24, 0xCB	; 203
    5c74:	91 e0       	ldi	r25, 0x01	; 1
    5c76:	0e 94 40 30 	call	0x6080	; 0x6080 <ccp_write_io>
	NVM.CMD = old_cmd;
    5c7a:	1a 87       	std	Y+10, r17	; 0x0a
	// Wait until NVM is ready
	nvm_wait_until_ready();

	// Issue EEPROM Erase All command
	nvm_issue_command(NVM_CMD_ERASE_EEPROM_gc);
}
    5c7c:	df 91       	pop	r29
    5c7e:	cf 91       	pop	r28
    5c80:	1f 91       	pop	r17
    5c82:	08 95       	ret

00005c84 <nvm_eeprom_erase_all>:
 * This function erases the entire EEPROM memory block to 0xFF.
 */
void nvm_eeprom_erase_all(void)
{
	// Mark all addresses to be deleted
	nvm_eeprom_fill_buffer_with_value(0xff);
    5c84:	8f ef       	ldi	r24, 0xFF	; 255
    5c86:	0e 94 ee 2d 	call	0x5bdc	; 0x5bdc <nvm_eeprom_fill_buffer_with_value>
	// Erase all pages
	nvm_eeprom_erase_bytes_in_all_pages();
    5c8a:	0e 94 2b 2e 	call	0x5c56	; 0x5c56 <nvm_eeprom_erase_bytes_in_all_pages>
    5c8e:	08 95       	ret

00005c90 <nvm_issue_flash_range_crc>:
 *
 * \param start_addr  end byte address
 * \param end_addr    start byte address
 */
void nvm_issue_flash_range_crc(flash_addr_t start_addr, flash_addr_t end_addr)
{
    5c90:	cf 92       	push	r12
    5c92:	df 92       	push	r13
    5c94:	ef 92       	push	r14
    5c96:	ff 92       	push	r15
    5c98:	1f 93       	push	r17
    5c9a:	cf 93       	push	r28
    5c9c:	df 93       	push	r29
	uint8_t old_cmd;
	// Save current nvm command
	old_cmd = NVM.CMD;
    5c9e:	c0 ec       	ldi	r28, 0xC0	; 192
    5ca0:	d1 e0       	ldi	r29, 0x01	; 1
    5ca2:	1a 85       	ldd	r17, Y+10	; 0x0a

	// Load the NVM CMD register with the Flash Range CRC command
	NVM.CMD = NVM_CMD_FLASH_RANGE_CRC_gc;
    5ca4:	ea e3       	ldi	r30, 0x3A	; 58
    5ca6:	ea 87       	std	Y+10, r30	; 0x0a

	// Load the start byte address in the NVM Address Register
	NVM.ADDR0 = start_addr & 0xFF;
    5ca8:	68 83       	st	Y, r22
	NVM.ADDR1 = (start_addr >> 8) & 0xFF;
    5caa:	c7 2e       	mov	r12, r23
    5cac:	d8 2e       	mov	r13, r24
    5cae:	e9 2e       	mov	r14, r25
    5cb0:	ff 24       	eor	r15, r15
    5cb2:	c9 82       	std	Y+1, r12	; 0x01
#if (FLASH_SIZE >= 0x10000UL)
	NVM.ADDR2 = (start_addr >> 16) & 0xFF;
    5cb4:	aa 27       	eor	r26, r26
    5cb6:	bb 27       	eor	r27, r27
    5cb8:	8a 83       	std	Y+2, r24	; 0x02
#endif

	// Load the end byte address in NVM Data Register
	NVM.DATA0 = end_addr & 0xFF;
    5cba:	2c 83       	std	Y+4, r18	; 0x04
	NVM.DATA1 = (end_addr >> 8) & 0xFF;
    5cbc:	bb 27       	eor	r27, r27
    5cbe:	a5 2f       	mov	r26, r21
    5cc0:	94 2f       	mov	r25, r20
    5cc2:	83 2f       	mov	r24, r19
    5cc4:	8d 83       	std	Y+5, r24	; 0x05
#if (FLASH_SIZE >= 0x10000UL)
	NVM.DATA2 = (end_addr >> 16) & 0xFF;
    5cc6:	ca 01       	movw	r24, r20
    5cc8:	aa 27       	eor	r26, r26
    5cca:	bb 27       	eor	r27, r27
    5ccc:	8e 83       	std	Y+6, r24	; 0x06
#endif

	// Execute command
	ccp_write_io((uint8_t *)&NVM.CTRLA, NVM_CMDEX_bm);
    5cce:	61 e0       	ldi	r22, 0x01	; 1
    5cd0:	8b ec       	ldi	r24, 0xCB	; 203
    5cd2:	91 e0       	ldi	r25, 0x01	; 1
    5cd4:	0e 94 40 30 	call	0x6080	; 0x6080 <ccp_write_io>

	// Restore command register
	NVM.CMD = old_cmd;
    5cd8:	1a 87       	std	Y+10, r17	; 0x0a
}
    5cda:	df 91       	pop	r29
    5cdc:	cf 91       	pop	r28
    5cde:	1f 91       	pop	r17
    5ce0:	ff 90       	pop	r15
    5ce2:	ef 90       	pop	r14
    5ce4:	df 90       	pop	r13
    5ce6:	cf 90       	pop	r12
    5ce8:	08 95       	ret

00005cea <nvm_flash_read_buffer>:
 * \param address	the address to where to read
 * \param buf		pointer to the data
 * \param len		the number of bytes to read
 */
void nvm_flash_read_buffer(flash_addr_t address, void *buf, uint16_t len)
{
    5cea:	da 01       	movw	r26, r20
    5cec:	a9 01       	movw	r20, r18
 */
static inline void nvm_wait_until_ready( void )
{
	do {
		// Block execution while waiting for the NVM to be ready
	} while ((NVM.STATUS & NVM_NVMBUSY_bm) == NVM_NVMBUSY_bm);
    5cee:	e0 ec       	ldi	r30, 0xC0	; 192
    5cf0:	f1 e0       	ldi	r31, 0x01	; 1
    5cf2:	37 85       	ldd	r19, Z+15	; 0x0f
    5cf4:	33 23       	and	r19, r19
    5cf6:	ec f3       	brlt	.-6      	; 0x5cf2 <nvm_flash_read_buffer+0x8>
	uint32_t opt_address = address;
#else
	uint16_t opt_address = (uint16_t)address;
#endif
	nvm_wait_until_ready();
	while ( len ) {
    5cf8:	41 15       	cp	r20, r1
    5cfa:	51 05       	cpc	r21, r1
    5cfc:	79 f0       	breq	.+30     	; 0x5d1c <nvm_flash_read_buffer+0x32>
    5cfe:	4a 0f       	add	r20, r26
    5d00:	5b 1f       	adc	r21, r27
 * \return Byte from program memory
 */
static inline uint8_t nvm_flash_read_byte(flash_addr_t addr)
{
#if defined(__GNUC__)
	return pgm_read_byte_far(addr);
    5d02:	0b b6       	in	r0, 0x3b	; 59
    5d04:	8b bf       	out	0x3b, r24	; 59
    5d06:	fb 01       	movw	r30, r22
    5d08:	37 91       	elpm	r19, Z+
    5d0a:	0b be       	out	0x3b, r0	; 59
		*(uint8_t*)buf = nvm_flash_read_byte(opt_address);
    5d0c:	3d 93       	st	X+, r19
		buf=(uint8_t*)buf+1;
		opt_address++;
    5d0e:	6f 5f       	subi	r22, 0xFF	; 255
    5d10:	7f 4f       	sbci	r23, 0xFF	; 255
    5d12:	8f 4f       	sbci	r24, 0xFF	; 255
    5d14:	9f 4f       	sbci	r25, 0xFF	; 255
	uint32_t opt_address = address;
#else
	uint16_t opt_address = (uint16_t)address;
#endif
	nvm_wait_until_ready();
	while ( len ) {
    5d16:	a4 17       	cp	r26, r20
    5d18:	b5 07       	cpc	r27, r21
    5d1a:	99 f7       	brne	.-26     	; 0x5d02 <nvm_flash_read_buffer+0x18>
    5d1c:	08 95       	ret

00005d1e <nvm_user_sig_read_buffer>:
 * \param address	the address to where to read
 * \param buf		pointer to the data
 * \param len		the number of bytes to read
 */
void nvm_user_sig_read_buffer(flash_addr_t address, void *buf, uint16_t len)
{
    5d1e:	ef 92       	push	r14
    5d20:	ff 92       	push	r15
    5d22:	0f 93       	push	r16
    5d24:	1f 93       	push	r17
    5d26:	cf 93       	push	r28
    5d28:	df 93       	push	r29
    5d2a:	7a 01       	movw	r14, r20
    5d2c:	89 01       	movw	r16, r18
	uint16_t opt_address = (uint16_t)address&(FLASH_PAGE_SIZE-1);
    5d2e:	eb 01       	movw	r28, r22
    5d30:	d1 70       	andi	r29, 0x01	; 1
	while ( len ) {
    5d32:	23 2b       	or	r18, r19
    5d34:	59 f0       	breq	.+22     	; 0x5d4c <nvm_user_sig_read_buffer+0x2e>
 *
 * \param address Byte offset into the signature row
 */
static inline uint8_t nvm_read_user_signature_row(uint16_t address)
{
	return nvm_read_byte(NVM_CMD_READ_USER_SIG_ROW_gc, address);
    5d36:	be 01       	movw	r22, r28
    5d38:	81 e0       	ldi	r24, 0x01	; 1
    5d3a:	0e 94 36 30 	call	0x606c	; 0x606c <nvm_read_byte>
		*(uint8_t*)buf = nvm_read_user_signature_row(opt_address);
    5d3e:	f7 01       	movw	r30, r14
    5d40:	81 93       	st	Z+, r24
    5d42:	7f 01       	movw	r14, r30
		buf=(uint8_t*)buf+1;
		opt_address++;
    5d44:	21 96       	adiw	r28, 0x01	; 1
		len--;
    5d46:	01 50       	subi	r16, 0x01	; 1
    5d48:	11 09       	sbc	r17, r1
 * \param len		the number of bytes to read
 */
void nvm_user_sig_read_buffer(flash_addr_t address, void *buf, uint16_t len)
{
	uint16_t opt_address = (uint16_t)address&(FLASH_PAGE_SIZE-1);
	while ( len ) {
    5d4a:	a9 f7       	brne	.-22     	; 0x5d36 <nvm_user_sig_read_buffer+0x18>
		*(uint8_t*)buf = nvm_read_user_signature_row(opt_address);
		buf=(uint8_t*)buf+1;
		opt_address++;
		len--;
	}
}
    5d4c:	df 91       	pop	r29
    5d4e:	cf 91       	pop	r28
    5d50:	1f 91       	pop	r17
    5d52:	0f 91       	pop	r16
    5d54:	ff 90       	pop	r15
    5d56:	ef 90       	pop	r14
    5d58:	08 95       	ret

00005d5a <nvm_user_sig_write_buffer>:
 *
 * Set b_blank_check to false if all application flash is erased before.
 */
void nvm_user_sig_write_buffer(flash_addr_t address, const void *buf,
	uint16_t len, bool b_blank_check)
{
    5d5a:	2f 92       	push	r2
    5d5c:	3f 92       	push	r3
    5d5e:	4f 92       	push	r4
    5d60:	5f 92       	push	r5
    5d62:	6f 92       	push	r6
    5d64:	7f 92       	push	r7
    5d66:	8f 92       	push	r8
    5d68:	9f 92       	push	r9
    5d6a:	af 92       	push	r10
    5d6c:	bf 92       	push	r11
    5d6e:	cf 92       	push	r12
    5d70:	df 92       	push	r13
    5d72:	ef 92       	push	r14
    5d74:	ff 92       	push	r15
    5d76:	0f 93       	push	r16
    5d78:	1f 93       	push	r17
    5d7a:	cf 93       	push	r28
    5d7c:	df 93       	push	r29
    5d7e:	00 d0       	rcall	.+0      	; 0x5d80 <nvm_user_sig_write_buffer+0x26>
    5d80:	1f 92       	push	r1
    5d82:	cd b7       	in	r28, 0x3d	; 61
    5d84:	de b7       	in	r29, 0x3e	; 62
    5d86:	4b 83       	std	Y+3, r20	; 0x03
    5d88:	5c 83       	std	Y+4, r21	; 0x04
    5d8a:	79 01       	movw	r14, r18
    5d8c:	30 2e       	mov	r3, r16
	uint16_t w_value;
	uint16_t page_pos;
	uint16_t opt_address = (uint16_t)address;
    5d8e:	6b 01       	movw	r12, r22
	bool b_flag_erase = false;

	while ( len ) {
    5d90:	23 2b       	or	r18, r19
    5d92:	09 f0       	breq	.+2      	; 0x5d96 <nvm_user_sig_write_buffer+0x3c>
    5d94:	51 c0       	rjmp	.+162    	; 0x5e38 <nvm_user_sig_write_buffer+0xde>
    5d96:	67 c0       	rjmp	.+206    	; 0x5e66 <nvm_user_sig_write_buffer+0x10c>
    5d98:	52 01       	movw	r10, r4
		for (page_pos=0; page_pos<FLASH_PAGE_SIZE; page_pos+=2 ) {
			if (b_blank_check) {
    5d9a:	33 20       	and	r3, r3
    5d9c:	89 f0       	breq	.+34     	; 0x5dc0 <nvm_user_sig_write_buffer+0x66>
    5d9e:	b2 01       	movw	r22, r4
    5da0:	81 e0       	ldi	r24, 0x01	; 1
    5da2:	0e 94 36 30 	call	0x606c	; 0x606c <nvm_read_byte>
				// Read flash to know if the erase command is mandatory
				LSB(w_value) = nvm_read_user_signature_row(page_pos);
    5da6:	89 83       	std	Y+1, r24	; 0x01
    5da8:	b8 01       	movw	r22, r16
    5daa:	81 e0       	ldi	r24, 0x01	; 1
    5dac:	0e 94 36 30 	call	0x606c	; 0x606c <nvm_read_byte>
				MSB(w_value) = nvm_read_user_signature_row(page_pos+1);
    5db0:	8a 83       	std	Y+2, r24	; 0x02
				if (w_value!=0xFFFF) {
    5db2:	89 81       	ldd	r24, Y+1	; 0x01
    5db4:	9a 81       	ldd	r25, Y+2	; 0x02
    5db6:	01 96       	adiw	r24, 0x01	; 1
    5db8:	29 f0       	breq	.+10     	; 0x5dc4 <nvm_user_sig_write_buffer+0x6a>
					b_flag_erase = true; // The page is not empty
    5dba:	22 24       	eor	r2, r2
    5dbc:	23 94       	inc	r2
    5dbe:	02 c0       	rjmp	.+4      	; 0x5dc4 <nvm_user_sig_write_buffer+0x6a>
				}
			}else{
				w_value = 0xFFFF;
    5dc0:	89 82       	std	Y+1, r8	; 0x01
    5dc2:	9a 82       	std	Y+2, r9	; 0x02
			}
			// Update flash buffer
			if (len) {
    5dc4:	e1 14       	cp	r14, r1
    5dc6:	f1 04       	cpc	r15, r1
    5dc8:	09 f1       	breq	.+66     	; 0x5e0c <nvm_user_sig_write_buffer+0xb2>
				if (opt_address == page_pos) {
    5dca:	ac 14       	cp	r10, r12
    5dcc:	bd 04       	cpc	r11, r13
    5dce:	79 f4       	brne	.+30     	; 0x5dee <nvm_user_sig_write_buffer+0x94>
					// The MSB of flash word must be changed
					// because the address is even
					len--;
    5dd0:	81 e0       	ldi	r24, 0x01	; 1
    5dd2:	e8 1a       	sub	r14, r24
    5dd4:	f1 08       	sbc	r15, r1
					opt_address++;
    5dd6:	ef ef       	ldi	r30, 0xFF	; 255
    5dd8:	ce 1a       	sub	r12, r30
    5dda:	de 0a       	sbc	r13, r30
					LSB(w_value)=*(uint8_t*)buf;
    5ddc:	eb 81       	ldd	r30, Y+3	; 0x03
    5dde:	fc 81       	ldd	r31, Y+4	; 0x04
    5de0:	81 91       	ld	r24, Z+
    5de2:	eb 83       	std	Y+3, r30	; 0x03
    5de4:	fc 83       	std	Y+4, r31	; 0x04
    5de6:	89 83       	std	Y+1, r24	; 0x01
					buf=(uint8_t*)buf+1;
				}
			}
			if (len) {
    5de8:	e1 14       	cp	r14, r1
    5dea:	f1 04       	cpc	r15, r1
    5dec:	79 f0       	breq	.+30     	; 0x5e0c <nvm_user_sig_write_buffer+0xb2>
				if (opt_address == (page_pos+1)) {
    5dee:	c0 16       	cp	r12, r16
    5df0:	d1 06       	cpc	r13, r17
    5df2:	61 f4       	brne	.+24     	; 0x5e0c <nvm_user_sig_write_buffer+0xb2>
					// The LSB of flash word must be changed
					// because the user buffer is not empty
					len--;
    5df4:	f1 e0       	ldi	r31, 0x01	; 1
    5df6:	ef 1a       	sub	r14, r31
    5df8:	f1 08       	sbc	r15, r1
					opt_address++;
    5dfa:	2f ef       	ldi	r18, 0xFF	; 255
    5dfc:	c2 1a       	sub	r12, r18
    5dfe:	d2 0a       	sbc	r13, r18
					MSB(w_value)=*(uint8_t*)buf;
    5e00:	eb 81       	ldd	r30, Y+3	; 0x03
    5e02:	fc 81       	ldd	r31, Y+4	; 0x04
    5e04:	81 91       	ld	r24, Z+
    5e06:	eb 83       	std	Y+3, r30	; 0x03
    5e08:	fc 83       	std	Y+4, r31	; 0x04
    5e0a:	8a 83       	std	Y+2, r24	; 0x02
					buf=(uint8_t*)buf+1;
				}
			}
			// Load flash buffer
			nvm_flash_load_word_to_buffer(page_pos,w_value);
    5e0c:	49 81       	ldd	r20, Y+1	; 0x01
    5e0e:	5a 81       	ldd	r21, Y+2	; 0x02
    5e10:	c3 01       	movw	r24, r6
    5e12:	b2 01       	movw	r22, r4
    5e14:	0f 94 19 00 	call	0x20032	; 0x20032 <nvm_flash_load_word_to_buffer>
    5e18:	f2 e0       	ldi	r31, 0x02	; 2
    5e1a:	4f 0e       	add	r4, r31
    5e1c:	51 1c       	adc	r5, r1
    5e1e:	61 1c       	adc	r6, r1
    5e20:	71 1c       	adc	r7, r1
    5e22:	0e 5f       	subi	r16, 0xFE	; 254
    5e24:	1f 4f       	sbci	r17, 0xFF	; 255
	uint16_t page_pos;
	uint16_t opt_address = (uint16_t)address;
	bool b_flag_erase = false;

	while ( len ) {
		for (page_pos=0; page_pos<FLASH_PAGE_SIZE; page_pos+=2 ) {
    5e26:	01 30       	cpi	r16, 0x01	; 1
    5e28:	22 e0       	ldi	r18, 0x02	; 2
    5e2a:	12 07       	cpc	r17, r18
    5e2c:	09 f0       	breq	.+2      	; 0x5e30 <nvm_user_sig_write_buffer+0xd6>
    5e2e:	b4 cf       	rjmp	.-152    	; 0x5d98 <nvm_user_sig_write_buffer+0x3e>
	uint16_t w_value;
	uint16_t page_pos;
	uint16_t opt_address = (uint16_t)address;
	bool b_flag_erase = false;

	while ( len ) {
    5e30:	e1 14       	cp	r14, r1
    5e32:	f1 04       	cpc	r15, r1
    5e34:	29 f4       	brne	.+10     	; 0x5e40 <nvm_user_sig_write_buffer+0xe6>
    5e36:	0a c0       	rjmp	.+20     	; 0x5e4c <nvm_user_sig_write_buffer+0xf2>
    5e38:	21 2c       	mov	r2, r1
				MSB(w_value) = nvm_read_user_signature_row(page_pos+1);
				if (w_value!=0xFFFF) {
					b_flag_erase = true; // The page is not empty
				}
			}else{
				w_value = 0xFFFF;
    5e3a:	88 24       	eor	r8, r8
    5e3c:	8a 94       	dec	r8
    5e3e:	98 2c       	mov	r9, r8
 *
 * Set b_blank_check to false if all application flash is erased before.
 */
void nvm_user_sig_write_buffer(flash_addr_t address, const void *buf,
	uint16_t len, bool b_blank_check)
{
    5e40:	01 e0       	ldi	r16, 0x01	; 1
    5e42:	10 e0       	ldi	r17, 0x00	; 0
    5e44:	41 2c       	mov	r4, r1
    5e46:	51 2c       	mov	r5, r1
    5e48:	32 01       	movw	r6, r4
    5e4a:	a6 cf       	rjmp	.-180    	; 0x5d98 <nvm_user_sig_write_buffer+0x3e>
			// Load flash buffer
			nvm_flash_load_word_to_buffer(page_pos,w_value);
		}
	}
	// Write flash buffer
	if (b_flag_erase) {
    5e4c:	22 20       	and	r2, r2
    5e4e:	59 f0       	breq	.+22     	; 0x5e66 <nvm_user_sig_write_buffer+0x10c>
 */
static inline void nvm_wait_until_ready( void )
{
	do {
		// Block execution while waiting for the NVM to be ready
	} while ((NVM.STATUS & NVM_NVMBUSY_bm) == NVM_NVMBUSY_bm);
    5e50:	e0 ec       	ldi	r30, 0xC0	; 192
    5e52:	f1 e0       	ldi	r31, 0x01	; 1
    5e54:	87 85       	ldd	r24, Z+15	; 0x0f
    5e56:	88 23       	and	r24, r24
    5e58:	ec f3       	brlt	.-6      	; 0x5e54 <nvm_user_sig_write_buffer+0xfa>
 * parameters are needed.
 */
static inline void nvm_flash_erase_user_section(void)
{
	nvm_wait_until_ready();
	nvm_common_spm(0, NVM_CMD_ERASE_USER_SIG_ROW_gc);
    5e5a:	48 e1       	ldi	r20, 0x18	; 24
    5e5c:	60 e0       	ldi	r22, 0x00	; 0
    5e5e:	70 e0       	ldi	r23, 0x00	; 0
    5e60:	cb 01       	movw	r24, r22
    5e62:	0f 94 0a 00 	call	0x20014	; 0x20014 <nvm_common_spm>
 */
static inline void nvm_wait_until_ready( void )
{
	do {
		// Block execution while waiting for the NVM to be ready
	} while ((NVM.STATUS & NVM_NVMBUSY_bm) == NVM_NVMBUSY_bm);
    5e66:	e0 ec       	ldi	r30, 0xC0	; 192
    5e68:	f1 e0       	ldi	r31, 0x01	; 1
    5e6a:	87 85       	ldd	r24, Z+15	; 0x0f
    5e6c:	88 23       	and	r24, r24
    5e6e:	ec f3       	brlt	.-6      	; 0x5e6a <nvm_user_sig_write_buffer+0x110>
 * parameters are needed.
 */
static inline void nvm_flash_write_user_page(void)
{
	nvm_wait_until_ready();
	nvm_common_spm(0, NVM_CMD_WRITE_USER_SIG_ROW_gc);
    5e70:	4a e1       	ldi	r20, 0x1A	; 26
    5e72:	60 e0       	ldi	r22, 0x00	; 0
    5e74:	70 e0       	ldi	r23, 0x00	; 0
    5e76:	cb 01       	movw	r24, r22
    5e78:	0f 94 0a 00 	call	0x20014	; 0x20014 <nvm_common_spm>
		nvm_flash_erase_user_section();
	}
	nvm_flash_write_user_page();
}
    5e7c:	24 96       	adiw	r28, 0x04	; 4
    5e7e:	cd bf       	out	0x3d, r28	; 61
    5e80:	de bf       	out	0x3e, r29	; 62
    5e82:	df 91       	pop	r29
    5e84:	cf 91       	pop	r28
    5e86:	1f 91       	pop	r17
    5e88:	0f 91       	pop	r16
    5e8a:	ff 90       	pop	r15
    5e8c:	ef 90       	pop	r14
    5e8e:	df 90       	pop	r13
    5e90:	cf 90       	pop	r12
    5e92:	bf 90       	pop	r11
    5e94:	af 90       	pop	r10
    5e96:	9f 90       	pop	r9
    5e98:	8f 90       	pop	r8
    5e9a:	7f 90       	pop	r7
    5e9c:	6f 90       	pop	r6
    5e9e:	5f 90       	pop	r5
    5ea0:	4f 90       	pop	r4
    5ea2:	3f 90       	pop	r3
    5ea4:	2f 90       	pop	r2
    5ea6:	08 95       	ret

00005ea8 <nvm_flash_erase_and_write_buffer>:
 *
 * Set b_blank_check to false if all application flash is erased before.
 */
void nvm_flash_erase_and_write_buffer(flash_addr_t address, const void *buf,
	uint16_t len, bool b_blank_check)
{
    5ea8:	2f 92       	push	r2
    5eaa:	3f 92       	push	r3
    5eac:	4f 92       	push	r4
    5eae:	5f 92       	push	r5
    5eb0:	6f 92       	push	r6
    5eb2:	7f 92       	push	r7
    5eb4:	8f 92       	push	r8
    5eb6:	9f 92       	push	r9
    5eb8:	af 92       	push	r10
    5eba:	bf 92       	push	r11
    5ebc:	cf 92       	push	r12
    5ebe:	df 92       	push	r13
    5ec0:	ef 92       	push	r14
    5ec2:	ff 92       	push	r15
    5ec4:	0f 93       	push	r16
    5ec6:	1f 93       	push	r17
    5ec8:	cf 93       	push	r28
    5eca:	df 93       	push	r29
    5ecc:	cd b7       	in	r28, 0x3d	; 61
    5ece:	de b7       	in	r29, 0x3e	; 62
    5ed0:	2a 97       	sbiw	r28, 0x0a	; 10
    5ed2:	cd bf       	out	0x3d, r28	; 61
    5ed4:	de bf       	out	0x3e, r29	; 62
    5ed6:	2b 01       	movw	r4, r22
    5ed8:	3c 01       	movw	r6, r24
    5eda:	1a 01       	movw	r2, r20
    5edc:	59 01       	movw	r10, r18
	uint16_t page_address;
	uint16_t opt_address = (uint16_t)address;
#endif

	// Compute the start of the page to be modified
	page_address = opt_address-(opt_address%FLASH_PAGE_SIZE);
    5ede:	dc 01       	movw	r26, r24
    5ee0:	cb 01       	movw	r24, r22
    5ee2:	88 27       	eor	r24, r24
    5ee4:	9e 7f       	andi	r25, 0xFE	; 254
    5ee6:	8f 83       	std	Y+7, r24	; 0x07
    5ee8:	98 87       	std	Y+8, r25	; 0x08
    5eea:	a9 87       	std	Y+9, r26	; 0x09
    5eec:	ba 87       	std	Y+10, r27	; 0x0a

	// For each page
	while ( len ) {
    5eee:	23 2b       	or	r18, r19
    5ef0:	09 f4       	brne	.+2      	; 0x5ef4 <nvm_flash_erase_and_write_buffer+0x4c>
    5ef2:	8d c0       	rjmp	.+282    	; 0x600e <nvm_flash_erase_and_write_buffer+0x166>
				w_value = nvm_flash_read_word(page_address);
				if (w_value!=0xFFFF) {
					b_flag_erase = true; // The page is not empty
				}
			}else{
				w_value = 0xFFFF;
    5ef4:	88 24       	eor	r8, r8
    5ef6:	8a 94       	dec	r8
    5ef8:	98 2c       	mov	r9, r8
    5efa:	04 c0       	rjmp	.+8      	; 0x5f04 <nvm_flash_erase_and_write_buffer+0x5c>
    5efc:	cf 82       	std	Y+7, r12	; 0x07
    5efe:	d8 86       	std	Y+8, r13	; 0x08
    5f00:	e9 86       	std	Y+9, r14	; 0x09
    5f02:	fa 86       	std	Y+10, r15	; 0x0a
 */
static inline void nvm_wait_until_ready( void )
{
	do {
		// Block execution while waiting for the NVM to be ready
	} while ((NVM.STATUS & NVM_NVMBUSY_bm) == NVM_NVMBUSY_bm);
    5f04:	80 91 cf 01 	lds	r24, 0x01CF	; 0x8001cf <__TEXT_REGION_LENGTH__+0x7001cf>
    5f08:	88 23       	and	r24, r24
    5f0a:	e4 f3       	brlt	.-8      	; 0x5f04 <nvm_flash_erase_and_write_buffer+0x5c>
    5f0c:	8f 81       	ldd	r24, Y+7	; 0x07
    5f0e:	98 85       	ldd	r25, Y+8	; 0x08
    5f10:	a9 85       	ldd	r26, Y+9	; 0x09
    5f12:	ba 85       	ldd	r27, Y+10	; 0x0a
    5f14:	9e 5f       	subi	r25, 0xFE	; 254
    5f16:	af 4f       	sbci	r26, 0xFF	; 255
    5f18:	bf 4f       	sbci	r27, 0xFF	; 255
    5f1a:	8b 83       	std	Y+3, r24	; 0x03
    5f1c:	9c 83       	std	Y+4, r25	; 0x04
    5f1e:	ad 83       	std	Y+5, r26	; 0x05
    5f20:	be 83       	std	Y+6, r27	; 0x06
    5f22:	cf 80       	ldd	r12, Y+7	; 0x07
    5f24:	d8 84       	ldd	r13, Y+8	; 0x08
    5f26:	e9 84       	ldd	r14, Y+9	; 0x09
    5f28:	fa 84       	ldd	r15, Y+10	; 0x0a
    5f2a:	10 e0       	ldi	r17, 0x00	; 0
	while ( len ) {
		b_flag_erase = false;

		nvm_wait_until_ready();
		for (page_pos=0; page_pos<FLASH_PAGE_SIZE; page_pos+=2 ) {
			if (b_blank_check) {
    5f2c:	00 23       	and	r16, r16
    5f2e:	61 f0       	breq	.+24     	; 0x5f48 <nvm_flash_erase_and_write_buffer+0xa0>
 * \return Word from program memory
 */
static inline uint16_t nvm_flash_read_word(flash_addr_t addr)
{
#if defined(__GNUC__)
	return pgm_read_word_far(addr);
    5f30:	0b b6       	in	r0, 0x3b	; 59
    5f32:	eb be       	out	0x3b, r14	; 59
    5f34:	f6 01       	movw	r30, r12
    5f36:	87 91       	elpm	r24, Z+
    5f38:	96 91       	elpm	r25, Z
    5f3a:	0b be       	out	0x3b, r0	; 59
				// Read flash to know if the erase command is mandatory
				w_value = nvm_flash_read_word(page_address);
    5f3c:	89 83       	std	Y+1, r24	; 0x01
    5f3e:	9a 83       	std	Y+2, r25	; 0x02
				if (w_value!=0xFFFF) {
    5f40:	01 96       	adiw	r24, 0x01	; 1
    5f42:	21 f0       	breq	.+8      	; 0x5f4c <nvm_flash_erase_and_write_buffer+0xa4>
					b_flag_erase = true; // The page is not empty
    5f44:	11 e0       	ldi	r17, 0x01	; 1
    5f46:	02 c0       	rjmp	.+4      	; 0x5f4c <nvm_flash_erase_and_write_buffer+0xa4>
				}
			}else{
				w_value = 0xFFFF;
    5f48:	89 82       	std	Y+1, r8	; 0x01
    5f4a:	9a 82       	std	Y+2, r9	; 0x02
			}

			// Update flash buffer
			if (len) {
    5f4c:	a1 14       	cp	r10, r1
    5f4e:	b1 04       	cpc	r11, r1
    5f50:	61 f1       	breq	.+88     	; 0x5faa <nvm_flash_erase_and_write_buffer+0x102>
				if (opt_address == page_address) {
    5f52:	c4 14       	cp	r12, r4
    5f54:	d5 04       	cpc	r13, r5
    5f56:	e6 04       	cpc	r14, r6
    5f58:	f7 04       	cpc	r15, r7
    5f5a:	79 f4       	brne	.+30     	; 0x5f7a <nvm_flash_erase_and_write_buffer+0xd2>
					// The MSB of flash word must be changed
					// because the address is even
					len--;
    5f5c:	b1 e0       	ldi	r27, 0x01	; 1
    5f5e:	ab 1a       	sub	r10, r27
    5f60:	b1 08       	sbc	r11, r1
					opt_address++;
    5f62:	ef ef       	ldi	r30, 0xFF	; 255
    5f64:	4e 1a       	sub	r4, r30
    5f66:	5e 0a       	sbc	r5, r30
    5f68:	6e 0a       	sbc	r6, r30
    5f6a:	7e 0a       	sbc	r7, r30
					LSB(w_value)=*(uint8_t*)buf;
    5f6c:	d1 01       	movw	r26, r2
    5f6e:	8d 91       	ld	r24, X+
    5f70:	1d 01       	movw	r2, r26
    5f72:	89 83       	std	Y+1, r24	; 0x01
					buf=(uint8_t*)buf+1;
				}
			}
			if (len) {
    5f74:	a1 14       	cp	r10, r1
    5f76:	b1 04       	cpc	r11, r1
    5f78:	c1 f0       	breq	.+48     	; 0x5faa <nvm_flash_erase_and_write_buffer+0x102>
				if (opt_address == (page_address+1)) {
    5f7a:	d7 01       	movw	r26, r14
    5f7c:	c6 01       	movw	r24, r12
    5f7e:	01 96       	adiw	r24, 0x01	; 1
    5f80:	a1 1d       	adc	r26, r1
    5f82:	b1 1d       	adc	r27, r1
    5f84:	84 15       	cp	r24, r4
    5f86:	95 05       	cpc	r25, r5
    5f88:	a6 05       	cpc	r26, r6
    5f8a:	b7 05       	cpc	r27, r7
    5f8c:	71 f4       	brne	.+28     	; 0x5faa <nvm_flash_erase_and_write_buffer+0x102>
					// The LSB of flash word must be changed
					// because the user buffer is not empty
					len--;
    5f8e:	b1 e0       	ldi	r27, 0x01	; 1
    5f90:	ab 1a       	sub	r10, r27
    5f92:	b1 08       	sbc	r11, r1
					opt_address++;
    5f94:	26 01       	movw	r4, r12
    5f96:	37 01       	movw	r6, r14
    5f98:	e2 e0       	ldi	r30, 0x02	; 2
    5f9a:	4e 0e       	add	r4, r30
    5f9c:	51 1c       	adc	r5, r1
    5f9e:	61 1c       	adc	r6, r1
    5fa0:	71 1c       	adc	r7, r1
					MSB(w_value)=*(uint8_t*)buf;
    5fa2:	d1 01       	movw	r26, r2
    5fa4:	8d 91       	ld	r24, X+
    5fa6:	1d 01       	movw	r2, r26
    5fa8:	8a 83       	std	Y+2, r24	; 0x02
					buf=(uint8_t*)buf+1;
				}
			}
			// Load flash buffer
			nvm_flash_load_word_to_buffer(page_address,w_value);
    5faa:	49 81       	ldd	r20, Y+1	; 0x01
    5fac:	5a 81       	ldd	r21, Y+2	; 0x02
    5fae:	c7 01       	movw	r24, r14
    5fb0:	b6 01       	movw	r22, r12
    5fb2:	0f 94 19 00 	call	0x20032	; 0x20032 <nvm_flash_load_word_to_buffer>
			page_address+=2;
    5fb6:	b2 e0       	ldi	r27, 0x02	; 2
    5fb8:	cb 0e       	add	r12, r27
    5fba:	d1 1c       	adc	r13, r1
    5fbc:	e1 1c       	adc	r14, r1
    5fbe:	f1 1c       	adc	r15, r1
	// For each page
	while ( len ) {
		b_flag_erase = false;

		nvm_wait_until_ready();
		for (page_pos=0; page_pos<FLASH_PAGE_SIZE; page_pos+=2 ) {
    5fc0:	8b 81       	ldd	r24, Y+3	; 0x03
    5fc2:	9c 81       	ldd	r25, Y+4	; 0x04
    5fc4:	ad 81       	ldd	r26, Y+5	; 0x05
    5fc6:	be 81       	ldd	r27, Y+6	; 0x06
    5fc8:	c8 16       	cp	r12, r24
    5fca:	d9 06       	cpc	r13, r25
    5fcc:	ea 06       	cpc	r14, r26
    5fce:	fb 06       	cpc	r15, r27
    5fd0:	09 f0       	breq	.+2      	; 0x5fd4 <nvm_flash_erase_and_write_buffer+0x12c>
    5fd2:	ac cf       	rjmp	.-168    	; 0x5f2c <nvm_flash_erase_and_write_buffer+0x84>
			nvm_flash_load_word_to_buffer(page_address,w_value);
			page_address+=2;
		}

		// Write flash buffer
		if (b_flag_erase) {
    5fd4:	11 23       	and	r17, r17
    5fd6:	61 f0       	breq	.+24     	; 0x5ff0 <nvm_flash_erase_and_write_buffer+0x148>
			nvm_flash_atomic_write_app_page(page_address-FLASH_PAGE_SIZE);
    5fd8:	6f 81       	ldd	r22, Y+7	; 0x07
    5fda:	78 85       	ldd	r23, Y+8	; 0x08
    5fdc:	89 85       	ldd	r24, Y+9	; 0x09
    5fde:	9a 85       	ldd	r25, Y+10	; 0x0a
 */
static inline void nvm_wait_until_ready( void )
{
	do {
		// Block execution while waiting for the NVM to be ready
	} while ((NVM.STATUS & NVM_NVMBUSY_bm) == NVM_NVMBUSY_bm);
    5fe0:	20 91 cf 01 	lds	r18, 0x01CF	; 0x8001cf <__TEXT_REGION_LENGTH__+0x7001cf>
    5fe4:	22 23       	and	r18, r18
    5fe6:	e4 f3       	brlt	.-8      	; 0x5fe0 <nvm_flash_erase_and_write_buffer+0x138>
 * \param page_addr Byte address to the page to delete
 */
static inline void nvm_flash_atomic_write_app_page(flash_addr_t page_addr)
{
	nvm_wait_until_ready();
	nvm_common_spm(page_addr, NVM_CMD_ERASE_WRITE_APP_PAGE_gc);
    5fe8:	45 e2       	ldi	r20, 0x25	; 37
    5fea:	0f 94 0a 00 	call	0x20014	; 0x20014 <nvm_common_spm>
    5fee:	0b c0       	rjmp	.+22     	; 0x6006 <nvm_flash_erase_and_write_buffer+0x15e>
		}else{
			nvm_flash_split_write_app_page(page_address-FLASH_PAGE_SIZE);
    5ff0:	6f 81       	ldd	r22, Y+7	; 0x07
    5ff2:	78 85       	ldd	r23, Y+8	; 0x08
    5ff4:	89 85       	ldd	r24, Y+9	; 0x09
    5ff6:	9a 85       	ldd	r25, Y+10	; 0x0a
 */
static inline void nvm_wait_until_ready( void )
{
	do {
		// Block execution while waiting for the NVM to be ready
	} while ((NVM.STATUS & NVM_NVMBUSY_bm) == NVM_NVMBUSY_bm);
    5ff8:	20 91 cf 01 	lds	r18, 0x01CF	; 0x8001cf <__TEXT_REGION_LENGTH__+0x7001cf>
    5ffc:	22 23       	and	r18, r18
    5ffe:	e4 f3       	brlt	.-8      	; 0x5ff8 <nvm_flash_erase_and_write_buffer+0x150>
 * \param page_addr Byte address to the page to delete
 */
static inline void nvm_flash_split_write_app_page(flash_addr_t page_addr)
{
	nvm_wait_until_ready();
	nvm_common_spm(page_addr, NVM_CMD_WRITE_APP_PAGE_gc);
    6000:	44 e2       	ldi	r20, 0x24	; 36
    6002:	0f 94 0a 00 	call	0x20014	; 0x20014 <nvm_common_spm>

	// Compute the start of the page to be modified
	page_address = opt_address-(opt_address%FLASH_PAGE_SIZE);

	// For each page
	while ( len ) {
    6006:	a1 14       	cp	r10, r1
    6008:	b1 04       	cpc	r11, r1
    600a:	09 f0       	breq	.+2      	; 0x600e <nvm_flash_erase_and_write_buffer+0x166>
    600c:	77 cf       	rjmp	.-274    	; 0x5efc <nvm_flash_erase_and_write_buffer+0x54>
			nvm_flash_atomic_write_app_page(page_address-FLASH_PAGE_SIZE);
		}else{
			nvm_flash_split_write_app_page(page_address-FLASH_PAGE_SIZE);
		}
	}
}
    600e:	2a 96       	adiw	r28, 0x0a	; 10
    6010:	cd bf       	out	0x3d, r28	; 61
    6012:	de bf       	out	0x3e, r29	; 62
    6014:	df 91       	pop	r29
    6016:	cf 91       	pop	r28
    6018:	1f 91       	pop	r17
    601a:	0f 91       	pop	r16
    601c:	ff 90       	pop	r15
    601e:	ef 90       	pop	r14
    6020:	df 90       	pop	r13
    6022:	cf 90       	pop	r12
    6024:	bf 90       	pop	r11
    6026:	af 90       	pop	r10
    6028:	9f 90       	pop	r9
    602a:	8f 90       	pop	r8
    602c:	7f 90       	pop	r7
    602e:	6f 90       	pop	r6
    6030:	5f 90       	pop	r5
    6032:	4f 90       	pop	r4
    6034:	3f 90       	pop	r3
    6036:	2f 90       	pop	r2
    6038:	08 95       	ret

0000603a <nvm_fuses_read>:
 * \param fuse Fuse byte to read.
 *
 * \return  Byte value of fuse.
 */
uint8_t nvm_fuses_read(enum fuse_byte_t fuse)
{
    603a:	1f 93       	push	r17
    603c:	cf 93       	push	r28
    603e:	df 93       	push	r29
 */
static inline void nvm_wait_until_ready( void )
{
	do {
		// Block execution while waiting for the NVM to be ready
	} while ((NVM.STATUS & NVM_NVMBUSY_bm) == NVM_NVMBUSY_bm);
    6040:	e0 ec       	ldi	r30, 0xC0	; 192
    6042:	f1 e0       	ldi	r31, 0x01	; 1
    6044:	97 85       	ldd	r25, Z+15	; 0x0f
    6046:	99 23       	and	r25, r25
    6048:	ec f3       	brlt	.-6      	; 0x6044 <nvm_fuses_read+0xa>
	// Wait until NVM is ready
	nvm_wait_until_ready();

	// Set address
	NVM.ADDR0 = fuse;
    604a:	c0 ec       	ldi	r28, 0xC0	; 192
    604c:	d1 e0       	ldi	r29, 0x01	; 1
    604e:	88 83       	st	Y, r24
 */
static inline void nvm_issue_command(NVM_CMD_t nvm_command)
{
	uint8_t old_cmd;

	old_cmd = NVM.CMD;
    6050:	1a 85       	ldd	r17, Y+10	; 0x0a
	NVM.CMD = nvm_command;
    6052:	87 e0       	ldi	r24, 0x07	; 7
    6054:	8a 87       	std	Y+10, r24	; 0x0a
	ccp_write_io((uint8_t *)&NVM.CTRLA, NVM_CMDEX_bm);
    6056:	61 e0       	ldi	r22, 0x01	; 1
    6058:	8b ec       	ldi	r24, 0xCB	; 203
    605a:	91 e0       	ldi	r25, 0x01	; 1
    605c:	0e 94 40 30 	call	0x6080	; 0x6080 <ccp_write_io>
	NVM.CMD = old_cmd;
    6060:	1a 87       	std	Y+10, r17	; 0x0a

	// Issue READ_FUSES command
	nvm_issue_command(NVM_CMD_READ_FUSES_gc);

	return NVM.DATA0;
    6062:	8c 81       	ldd	r24, Y+4	; 0x04
}
    6064:	df 91       	pop	r29
    6066:	cf 91       	pop	r28
    6068:	1f 91       	pop	r17
    606a:	08 95       	ret

0000606c <nvm_read_byte>:
    606c:	40 91 ca 01 	lds	r20, 0x01CA	; 0x8001ca <__TEXT_REGION_LENGTH__+0x7001ca>
    6070:	e6 2f       	mov	r30, r22
    6072:	f7 2f       	mov	r31, r23
    6074:	80 93 ca 01 	sts	0x01CA, r24	; 0x8001ca <__TEXT_REGION_LENGTH__+0x7001ca>
    6078:	84 91       	lpm	r24, Z
    607a:	40 93 ca 01 	sts	0x01CA, r20	; 0x8001ca <__TEXT_REGION_LENGTH__+0x7001ca>
    607e:	08 95       	ret

00006080 <ccp_write_io>:
    6080:	1b be       	out	0x3b, r1	; 59
    6082:	fc 01       	movw	r30, r24
    6084:	28 ed       	ldi	r18, 0xD8	; 216
    6086:	24 bf       	out	0x34, r18	; 52
    6088:	60 83       	st	Z, r22
    608a:	08 95       	ret

0000608c <board_init>:
{
	/* This function is meant to contain board-specific initialization code
	 * for, e.g., the I/O pins. The initialization can rely on application-
	 * specific board configuration, found in conf_board.h.
	 */
	PORTA_DIR = 0;//set all IO's to input
    608c:	10 92 00 06 	sts	0x0600, r1	; 0x800600 <__TEXT_REGION_LENGTH__+0x700600>
	PORTB_DIR = 0;//set all IO's to input
    6090:	10 92 20 06 	sts	0x0620, r1	; 0x800620 <__TEXT_REGION_LENGTH__+0x700620>
	PORTC_DIR = (1<<4)|(1<<5)|(1<<7); //set SS, MOSI and SPCK as output
    6094:	80 eb       	ldi	r24, 0xB0	; 176
    6096:	80 93 40 06 	sts	0x0640, r24	; 0x800640 <__TEXT_REGION_LENGTH__+0x700640>
	PORTD_DIR = (1<<0)|(1<<1)|(1<<3)|(1<<4); //set CAN and Ethernet SS and TXD2 as output
    609a:	9b e1       	ldi	r25, 0x1B	; 27
    609c:	90 93 60 06 	sts	0x0660, r25	; 0x800660 <__TEXT_REGION_LENGTH__+0x700660>
	PORTE_DIR = (1<<4)|(1<<5)|(1<<7); //set DE, RE and TXD1 as output
    60a0:	80 93 80 06 	sts	0x0680, r24	; 0x800680 <__TEXT_REGION_LENGTH__+0x700680>
	PORTF_DIR = (1<<3)|(1<<4)|(1<<5); //set DE, RE and TXD1 as output
    60a4:	88 e3       	ldi	r24, 0x38	; 56
    60a6:	80 93 a0 06 	sts	0x06A0, r24	; 0x8006a0 <__TEXT_REGION_LENGTH__+0x7006a0>
	PORTH_DIR = (1<<4)|(1<<5); //set LED1 and LED2 as output
    60aa:	80 e3       	ldi	r24, 0x30	; 48
    60ac:	80 93 e0 06 	sts	0x06E0, r24	; 0x8006e0 <__TEXT_REGION_LENGTH__+0x7006e0>
	PORTJ_DIR = 0;//set all IO's to input
    60b0:	10 92 00 07 	sts	0x0700, r1	; 0x800700 <__TEXT_REGION_LENGTH__+0x700700>
	PORTK_DIR = 0;//set all IO's to input
    60b4:	10 92 20 07 	sts	0x0720, r1	; 0x800720 <__TEXT_REGION_LENGTH__+0x700720>
	PORTQ_DIR = (1<<0)|(1<<1)|(1<<2)|(1<<3); //set relays to output
    60b8:	8f e0       	ldi	r24, 0x0F	; 15
    60ba:	80 93 c0 07 	sts	0x07C0, r24	; 0x8007c0 <__TEXT_REGION_LENGTH__+0x7007c0>
	PORTR_DIR = (1<<0)|(1<<1); //set relays to output
    60be:	83 e0       	ldi	r24, 0x03	; 3
    60c0:	80 93 e0 07 	sts	0x07E0, r24	; 0x8007e0 <__TEXT_REGION_LENGTH__+0x7007e0>
	

	PORTA_PIN0CTRL = (1<<PORT_OPC0_bp )|(1<<PORT_OPC1_bp);
    60c4:	88 e1       	ldi	r24, 0x18	; 24
    60c6:	80 93 10 06 	sts	0x0610, r24	; 0x800610 <__TEXT_REGION_LENGTH__+0x700610>
    60ca:	08 95       	ret

000060cc <__mulsi3>:
    60cc:	db 01       	movw	r26, r22
    60ce:	8f 93       	push	r24
    60d0:	9f 93       	push	r25
    60d2:	0e 94 06 31 	call	0x620c	; 0x620c <__muluhisi3>
    60d6:	bf 91       	pop	r27
    60d8:	af 91       	pop	r26
    60da:	a2 9f       	mul	r26, r18
    60dc:	80 0d       	add	r24, r0
    60de:	91 1d       	adc	r25, r1
    60e0:	a3 9f       	mul	r26, r19
    60e2:	90 0d       	add	r25, r0
    60e4:	b2 9f       	mul	r27, r18
    60e6:	90 0d       	add	r25, r0
    60e8:	11 24       	eor	r1, r1
    60ea:	08 95       	ret

000060ec <__udivmodhi4>:
    60ec:	aa 1b       	sub	r26, r26
    60ee:	bb 1b       	sub	r27, r27
    60f0:	51 e1       	ldi	r21, 0x11	; 17
    60f2:	07 c0       	rjmp	.+14     	; 0x6102 <__udivmodhi4_ep>

000060f4 <__udivmodhi4_loop>:
    60f4:	aa 1f       	adc	r26, r26
    60f6:	bb 1f       	adc	r27, r27
    60f8:	a6 17       	cp	r26, r22
    60fa:	b7 07       	cpc	r27, r23
    60fc:	10 f0       	brcs	.+4      	; 0x6102 <__udivmodhi4_ep>
    60fe:	a6 1b       	sub	r26, r22
    6100:	b7 0b       	sbc	r27, r23

00006102 <__udivmodhi4_ep>:
    6102:	88 1f       	adc	r24, r24
    6104:	99 1f       	adc	r25, r25
    6106:	5a 95       	dec	r21
    6108:	a9 f7       	brne	.-22     	; 0x60f4 <__udivmodhi4_loop>
    610a:	80 95       	com	r24
    610c:	90 95       	com	r25
    610e:	bc 01       	movw	r22, r24
    6110:	cd 01       	movw	r24, r26
    6112:	08 95       	ret

00006114 <__divmodhi4>:
    6114:	97 fb       	bst	r25, 7
    6116:	07 2e       	mov	r0, r23
    6118:	16 f4       	brtc	.+4      	; 0x611e <__divmodhi4+0xa>
    611a:	00 94       	com	r0
    611c:	07 d0       	rcall	.+14     	; 0x612c <__divmodhi4_neg1>
    611e:	77 fd       	sbrc	r23, 7
    6120:	09 d0       	rcall	.+18     	; 0x6134 <__divmodhi4_neg2>
    6122:	0e 94 76 30 	call	0x60ec	; 0x60ec <__udivmodhi4>
    6126:	07 fc       	sbrc	r0, 7
    6128:	05 d0       	rcall	.+10     	; 0x6134 <__divmodhi4_neg2>
    612a:	3e f4       	brtc	.+14     	; 0x613a <__divmodhi4_exit>

0000612c <__divmodhi4_neg1>:
    612c:	90 95       	com	r25
    612e:	81 95       	neg	r24
    6130:	9f 4f       	sbci	r25, 0xFF	; 255
    6132:	08 95       	ret

00006134 <__divmodhi4_neg2>:
    6134:	70 95       	com	r23
    6136:	61 95       	neg	r22
    6138:	7f 4f       	sbci	r23, 0xFF	; 255

0000613a <__divmodhi4_exit>:
    613a:	08 95       	ret

0000613c <__udivmodsi4>:
    613c:	a1 e2       	ldi	r26, 0x21	; 33
    613e:	1a 2e       	mov	r1, r26
    6140:	aa 1b       	sub	r26, r26
    6142:	bb 1b       	sub	r27, r27
    6144:	fd 01       	movw	r30, r26
    6146:	0d c0       	rjmp	.+26     	; 0x6162 <__udivmodsi4_ep>

00006148 <__udivmodsi4_loop>:
    6148:	aa 1f       	adc	r26, r26
    614a:	bb 1f       	adc	r27, r27
    614c:	ee 1f       	adc	r30, r30
    614e:	ff 1f       	adc	r31, r31
    6150:	a2 17       	cp	r26, r18
    6152:	b3 07       	cpc	r27, r19
    6154:	e4 07       	cpc	r30, r20
    6156:	f5 07       	cpc	r31, r21
    6158:	20 f0       	brcs	.+8      	; 0x6162 <__udivmodsi4_ep>
    615a:	a2 1b       	sub	r26, r18
    615c:	b3 0b       	sbc	r27, r19
    615e:	e4 0b       	sbc	r30, r20
    6160:	f5 0b       	sbc	r31, r21

00006162 <__udivmodsi4_ep>:
    6162:	66 1f       	adc	r22, r22
    6164:	77 1f       	adc	r23, r23
    6166:	88 1f       	adc	r24, r24
    6168:	99 1f       	adc	r25, r25
    616a:	1a 94       	dec	r1
    616c:	69 f7       	brne	.-38     	; 0x6148 <__udivmodsi4_loop>
    616e:	60 95       	com	r22
    6170:	70 95       	com	r23
    6172:	80 95       	com	r24
    6174:	90 95       	com	r25
    6176:	9b 01       	movw	r18, r22
    6178:	ac 01       	movw	r20, r24
    617a:	bd 01       	movw	r22, r26
    617c:	cf 01       	movw	r24, r30
    617e:	08 95       	ret

00006180 <__divmodsi4>:
    6180:	05 2e       	mov	r0, r21
    6182:	97 fb       	bst	r25, 7
    6184:	1e f4       	brtc	.+6      	; 0x618c <__divmodsi4+0xc>
    6186:	00 94       	com	r0
    6188:	0e 94 d7 30 	call	0x61ae	; 0x61ae <__negsi2>
    618c:	57 fd       	sbrc	r21, 7
    618e:	07 d0       	rcall	.+14     	; 0x619e <__divmodsi4_neg2>
    6190:	0e 94 9e 30 	call	0x613c	; 0x613c <__udivmodsi4>
    6194:	07 fc       	sbrc	r0, 7
    6196:	03 d0       	rcall	.+6      	; 0x619e <__divmodsi4_neg2>
    6198:	4e f4       	brtc	.+18     	; 0x61ac <__divmodsi4_exit>
    619a:	0c 94 d7 30 	jmp	0x61ae	; 0x61ae <__negsi2>

0000619e <__divmodsi4_neg2>:
    619e:	50 95       	com	r21
    61a0:	40 95       	com	r20
    61a2:	30 95       	com	r19
    61a4:	21 95       	neg	r18
    61a6:	3f 4f       	sbci	r19, 0xFF	; 255
    61a8:	4f 4f       	sbci	r20, 0xFF	; 255
    61aa:	5f 4f       	sbci	r21, 0xFF	; 255

000061ac <__divmodsi4_exit>:
    61ac:	08 95       	ret

000061ae <__negsi2>:
    61ae:	90 95       	com	r25
    61b0:	80 95       	com	r24
    61b2:	70 95       	com	r23
    61b4:	61 95       	neg	r22
    61b6:	7f 4f       	sbci	r23, 0xFF	; 255
    61b8:	8f 4f       	sbci	r24, 0xFF	; 255
    61ba:	9f 4f       	sbci	r25, 0xFF	; 255
    61bc:	08 95       	ret

000061be <__tablejump2__>:
    61be:	ee 0f       	add	r30, r30
    61c0:	ff 1f       	adc	r31, r31
    61c2:	88 1f       	adc	r24, r24
    61c4:	8b bf       	out	0x3b, r24	; 59
    61c6:	07 90       	elpm	r0, Z+
    61c8:	f6 91       	elpm	r31, Z
    61ca:	e0 2d       	mov	r30, r0
    61cc:	1b be       	out	0x3b, r1	; 59
    61ce:	19 94       	eijmp

000061d0 <__mulhisi3>:
    61d0:	0e 94 f0 30 	call	0x61e0	; 0x61e0 <__umulhisi3>
    61d4:	33 23       	and	r19, r19
    61d6:	12 f4       	brpl	.+4      	; 0x61dc <__mulhisi3+0xc>
    61d8:	8a 1b       	sub	r24, r26
    61da:	9b 0b       	sbc	r25, r27
    61dc:	0c 94 01 31 	jmp	0x6202	; 0x6202 <__usmulhisi3_tail>

000061e0 <__umulhisi3>:
    61e0:	a2 9f       	mul	r26, r18
    61e2:	b0 01       	movw	r22, r0
    61e4:	b3 9f       	mul	r27, r19
    61e6:	c0 01       	movw	r24, r0
    61e8:	a3 9f       	mul	r26, r19
    61ea:	70 0d       	add	r23, r0
    61ec:	81 1d       	adc	r24, r1
    61ee:	11 24       	eor	r1, r1
    61f0:	91 1d       	adc	r25, r1
    61f2:	b2 9f       	mul	r27, r18
    61f4:	70 0d       	add	r23, r0
    61f6:	81 1d       	adc	r24, r1
    61f8:	11 24       	eor	r1, r1
    61fa:	91 1d       	adc	r25, r1
    61fc:	08 95       	ret

000061fe <__usmulhisi3>:
    61fe:	0e 94 f0 30 	call	0x61e0	; 0x61e0 <__umulhisi3>

00006202 <__usmulhisi3_tail>:
    6202:	b7 ff       	sbrs	r27, 7
    6204:	08 95       	ret
    6206:	82 1b       	sub	r24, r18
    6208:	93 0b       	sbc	r25, r19
    620a:	08 95       	ret

0000620c <__muluhisi3>:
    620c:	0e 94 f0 30 	call	0x61e0	; 0x61e0 <__umulhisi3>
    6210:	a5 9f       	mul	r26, r21
    6212:	90 0d       	add	r25, r0
    6214:	b4 9f       	mul	r27, r20
    6216:	90 0d       	add	r25, r0
    6218:	a4 9f       	mul	r26, r20
    621a:	80 0d       	add	r24, r0
    621c:	91 1d       	adc	r25, r1
    621e:	11 24       	eor	r1, r1
    6220:	08 95       	ret

00006222 <memcpy>:
    6222:	fb 01       	movw	r30, r22
    6224:	dc 01       	movw	r26, r24
    6226:	02 c0       	rjmp	.+4      	; 0x622c <memcpy+0xa>
    6228:	01 90       	ld	r0, Z+
    622a:	0d 92       	st	X+, r0
    622c:	41 50       	subi	r20, 0x01	; 1
    622e:	50 40       	sbci	r21, 0x00	; 0
    6230:	d8 f7       	brcc	.-10     	; 0x6228 <memcpy+0x6>
    6232:	08 95       	ret

00006234 <_exit>:
    6234:	f8 94       	cli

00006236 <__stop_program>:
    6236:	ff cf       	rjmp	.-2      	; 0x6236 <__stop_program>
